ARM GAS  C:\Users\jdcox\AppData\Local\Temp\cc7QzIh8.s 			page 1


   1              		.cpu cortex-m4
   2              		.arch armv7e-m
   3              		.fpu fpv4-sp-d16
   4              		.eabi_attribute 27, 1
   5              		.eabi_attribute 28, 1
   6              		.eabi_attribute 20, 1
   7              		.eabi_attribute 21, 1
   8              		.eabi_attribute 23, 3
   9              		.eabi_attribute 24, 1
  10              		.eabi_attribute 25, 1
  11              		.eabi_attribute 26, 1
  12              		.eabi_attribute 30, 1
  13              		.eabi_attribute 34, 1
  14              		.eabi_attribute 18, 4
  15              		.file	"i2c-lcd.c"
  16              		.text
  17              	.Ltext0:
  18              		.cfi_sections	.debug_frame
  19              		.section	.text.lcd_send_cmd,"ax",%progbits
  20              		.align	1
  21              		.global	lcd_send_cmd
  22              		.syntax unified
  23              		.thumb
  24              		.thumb_func
  26              	lcd_send_cmd:
  27              	.LVL0:
  28              	.LFB130:
  29              		.file 1 "Core/Src/i2c-lcd.c"
   1:Core/Src/i2c-lcd.c **** 
   2:Core/Src/i2c-lcd.c **** /** Put this in the src folder **/
   3:Core/Src/i2c-lcd.c **** 
   4:Core/Src/i2c-lcd.c **** #include "i2c-lcd.h"
   5:Core/Src/i2c-lcd.c **** extern I2C_HandleTypeDef hi2c1;  // change your handler here accordingly
   6:Core/Src/i2c-lcd.c **** 
   7:Core/Src/i2c-lcd.c **** #define SLAVE_ADDRESS_LCD 0x4E // change this according to ur setup
   8:Core/Src/i2c-lcd.c **** 
   9:Core/Src/i2c-lcd.c **** void lcd_send_cmd (char cmd)
  10:Core/Src/i2c-lcd.c **** {
  30              		.loc 1 10 1 view -0
  31              		.cfi_startproc
  32              		@ args = 0, pretend = 0, frame = 8
  33              		@ frame_needed = 0, uses_anonymous_args = 0
  34              		.loc 1 10 1 is_stmt 0 view .LVU1
  35 0000 00B5     		push	{lr}
  36              	.LCFI0:
  37              		.cfi_def_cfa_offset 4
  38              		.cfi_offset 14, -4
  39 0002 85B0     		sub	sp, sp, #20
  40              	.LCFI1:
  41              		.cfi_def_cfa_offset 24
  11:Core/Src/i2c-lcd.c ****   char data_u, data_l;
  42              		.loc 1 11 3 is_stmt 1 view .LVU2
  12:Core/Src/i2c-lcd.c **** 	uint8_t data_t[4];
  43              		.loc 1 12 2 view .LVU3
  13:Core/Src/i2c-lcd.c **** 	data_u = (cmd&0xf0);
  44              		.loc 1 13 2 view .LVU4
  45              		.loc 1 13 9 is_stmt 0 view .LVU5
ARM GAS  C:\Users\jdcox\AppData\Local\Temp\cc7QzIh8.s 			page 2


  46 0004 00F0F003 		and	r3, r0, #240
  47              	.LVL1:
  14:Core/Src/i2c-lcd.c **** 	data_l = ((cmd<<4)&0xf0);
  48              		.loc 1 14 2 is_stmt 1 view .LVU6
  49              		.loc 1 14 16 is_stmt 0 view .LVU7
  50 0008 0001     		lsls	r0, r0, #4
  51              	.LVL2:
  52              		.loc 1 14 9 view .LVU8
  53 000a C0B2     		uxtb	r0, r0
  54              	.LVL3:
  15:Core/Src/i2c-lcd.c **** 	data_t[0] = data_u|0x0C;  //en=1, rs=0
  55              		.loc 1 15 2 is_stmt 1 view .LVU9
  56              		.loc 1 15 12 is_stmt 0 view .LVU10
  57 000c 43F00C02 		orr	r2, r3, #12
  58 0010 8DF80C20 		strb	r2, [sp, #12]
  16:Core/Src/i2c-lcd.c **** 	data_t[1] = data_u|0x08;  //en=0, rs=0
  59              		.loc 1 16 2 is_stmt 1 view .LVU11
  60              		.loc 1 16 12 is_stmt 0 view .LVU12
  61 0014 43F00803 		orr	r3, r3, #8
  62              	.LVL4:
  63              		.loc 1 16 12 view .LVU13
  64 0018 8DF80D30 		strb	r3, [sp, #13]
  17:Core/Src/i2c-lcd.c **** 	data_t[2] = data_l|0x0C;  //en=1, rs=0
  65              		.loc 1 17 2 is_stmt 1 view .LVU14
  66              		.loc 1 17 12 is_stmt 0 view .LVU15
  67 001c 40F00C03 		orr	r3, r0, #12
  68 0020 8DF80E30 		strb	r3, [sp, #14]
  18:Core/Src/i2c-lcd.c **** 	data_t[3] = data_l|0x08;  //en=0, rs=0
  69              		.loc 1 18 2 is_stmt 1 view .LVU16
  70              		.loc 1 18 12 is_stmt 0 view .LVU17
  71 0024 40F00800 		orr	r0, r0, #8
  72              	.LVL5:
  73              		.loc 1 18 12 view .LVU18
  74 0028 8DF80F00 		strb	r0, [sp, #15]
  19:Core/Src/i2c-lcd.c **** 	HAL_I2C_Master_Transmit (&hi2c1, SLAVE_ADDRESS_LCD,(uint8_t *) data_t, 4, 100);
  75              		.loc 1 19 2 is_stmt 1 view .LVU19
  76 002c 6423     		movs	r3, #100
  77 002e 0093     		str	r3, [sp]
  78 0030 0423     		movs	r3, #4
  79 0032 03AA     		add	r2, sp, #12
  80 0034 4E21     		movs	r1, #78
  81 0036 0348     		ldr	r0, .L3
  82 0038 FFF7FEFF 		bl	HAL_I2C_Master_Transmit
  83              	.LVL6:
  20:Core/Src/i2c-lcd.c **** }
  84              		.loc 1 20 1 is_stmt 0 view .LVU20
  85 003c 05B0     		add	sp, sp, #20
  86              	.LCFI2:
  87              		.cfi_def_cfa_offset 4
  88              		@ sp needed
  89 003e 5DF804FB 		ldr	pc, [sp], #4
  90              	.L4:
  91 0042 00BF     		.align	2
  92              	.L3:
  93 0044 00000000 		.word	hi2c1
  94              		.cfi_endproc
  95              	.LFE130:
ARM GAS  C:\Users\jdcox\AppData\Local\Temp\cc7QzIh8.s 			page 3


  97              		.section	.text.lcd_send_data,"ax",%progbits
  98              		.align	1
  99              		.global	lcd_send_data
 100              		.syntax unified
 101              		.thumb
 102              		.thumb_func
 104              	lcd_send_data:
 105              	.LVL7:
 106              	.LFB131:
  21:Core/Src/i2c-lcd.c **** 
  22:Core/Src/i2c-lcd.c **** void lcd_send_data (char data)
  23:Core/Src/i2c-lcd.c **** {
 107              		.loc 1 23 1 is_stmt 1 view -0
 108              		.cfi_startproc
 109              		@ args = 0, pretend = 0, frame = 8
 110              		@ frame_needed = 0, uses_anonymous_args = 0
 111              		.loc 1 23 1 is_stmt 0 view .LVU22
 112 0000 00B5     		push	{lr}
 113              	.LCFI3:
 114              		.cfi_def_cfa_offset 4
 115              		.cfi_offset 14, -4
 116 0002 85B0     		sub	sp, sp, #20
 117              	.LCFI4:
 118              		.cfi_def_cfa_offset 24
  24:Core/Src/i2c-lcd.c **** 	char data_u, data_l;
 119              		.loc 1 24 2 is_stmt 1 view .LVU23
  25:Core/Src/i2c-lcd.c **** 	uint8_t data_t[4];
 120              		.loc 1 25 2 view .LVU24
  26:Core/Src/i2c-lcd.c **** 	data_u = (data&0xf0);
 121              		.loc 1 26 2 view .LVU25
 122              		.loc 1 26 9 is_stmt 0 view .LVU26
 123 0004 00F0F003 		and	r3, r0, #240
 124              	.LVL8:
  27:Core/Src/i2c-lcd.c **** 	data_l = ((data<<4)&0xf0);
 125              		.loc 1 27 2 is_stmt 1 view .LVU27
 126              		.loc 1 27 17 is_stmt 0 view .LVU28
 127 0008 0001     		lsls	r0, r0, #4
 128              	.LVL9:
 129              		.loc 1 27 9 view .LVU29
 130 000a C0B2     		uxtb	r0, r0
 131              	.LVL10:
  28:Core/Src/i2c-lcd.c **** 	data_t[0] = data_u|0x0D;  //en=1, rs=0
 132              		.loc 1 28 2 is_stmt 1 view .LVU30
 133              		.loc 1 28 12 is_stmt 0 view .LVU31
 134 000c 43F00D02 		orr	r2, r3, #13
 135 0010 8DF80C20 		strb	r2, [sp, #12]
  29:Core/Src/i2c-lcd.c **** 	data_t[1] = data_u|0x09;  //en=0, rs=0
 136              		.loc 1 29 2 is_stmt 1 view .LVU32
 137              		.loc 1 29 12 is_stmt 0 view .LVU33
 138 0014 43F00903 		orr	r3, r3, #9
 139              	.LVL11:
 140              		.loc 1 29 12 view .LVU34
 141 0018 8DF80D30 		strb	r3, [sp, #13]
  30:Core/Src/i2c-lcd.c **** 	data_t[2] = data_l|0x0D;  //en=1, rs=0
 142              		.loc 1 30 2 is_stmt 1 view .LVU35
 143              		.loc 1 30 12 is_stmt 0 view .LVU36
 144 001c 40F00D03 		orr	r3, r0, #13
ARM GAS  C:\Users\jdcox\AppData\Local\Temp\cc7QzIh8.s 			page 4


 145 0020 8DF80E30 		strb	r3, [sp, #14]
  31:Core/Src/i2c-lcd.c **** 	data_t[3] = data_l|0x09;  //en=0, rs=0
 146              		.loc 1 31 2 is_stmt 1 view .LVU37
 147              		.loc 1 31 12 is_stmt 0 view .LVU38
 148 0024 40F00900 		orr	r0, r0, #9
 149              	.LVL12:
 150              		.loc 1 31 12 view .LVU39
 151 0028 8DF80F00 		strb	r0, [sp, #15]
  32:Core/Src/i2c-lcd.c **** 	HAL_I2C_Master_Transmit (&hi2c1, SLAVE_ADDRESS_LCD,(uint8_t *) data_t, 4, 100);
 152              		.loc 1 32 2 is_stmt 1 view .LVU40
 153 002c 6423     		movs	r3, #100
 154 002e 0093     		str	r3, [sp]
 155 0030 0423     		movs	r3, #4
 156 0032 03AA     		add	r2, sp, #12
 157 0034 4E21     		movs	r1, #78
 158 0036 0348     		ldr	r0, .L7
 159 0038 FFF7FEFF 		bl	HAL_I2C_Master_Transmit
 160              	.LVL13:
  33:Core/Src/i2c-lcd.c **** }
 161              		.loc 1 33 1 is_stmt 0 view .LVU41
 162 003c 05B0     		add	sp, sp, #20
 163              	.LCFI5:
 164              		.cfi_def_cfa_offset 4
 165              		@ sp needed
 166 003e 5DF804FB 		ldr	pc, [sp], #4
 167              	.L8:
 168 0042 00BF     		.align	2
 169              	.L7:
 170 0044 00000000 		.word	hi2c1
 171              		.cfi_endproc
 172              	.LFE131:
 174              		.section	.text.lcd_clear,"ax",%progbits
 175              		.align	1
 176              		.global	lcd_clear
 177              		.syntax unified
 178              		.thumb
 179              		.thumb_func
 181              	lcd_clear:
 182              	.LFB132:
  34:Core/Src/i2c-lcd.c **** 
  35:Core/Src/i2c-lcd.c **** void lcd_clear (void)
  36:Core/Src/i2c-lcd.c **** {
 183              		.loc 1 36 1 is_stmt 1 view -0
 184              		.cfi_startproc
 185              		@ args = 0, pretend = 0, frame = 0
 186              		@ frame_needed = 0, uses_anonymous_args = 0
 187 0000 10B5     		push	{r4, lr}
 188              	.LCFI6:
 189              		.cfi_def_cfa_offset 8
 190              		.cfi_offset 4, -8
 191              		.cfi_offset 14, -4
  37:Core/Src/i2c-lcd.c **** 	lcd_send_cmd (0x80);
 192              		.loc 1 37 2 view .LVU43
 193 0002 8020     		movs	r0, #128
 194 0004 FFF7FEFF 		bl	lcd_send_cmd
 195              	.LVL14:
  38:Core/Src/i2c-lcd.c **** 	for (int i=0; i<70; i++)
ARM GAS  C:\Users\jdcox\AppData\Local\Temp\cc7QzIh8.s 			page 5


 196              		.loc 1 38 2 view .LVU44
 197              	.LBB2:
 198              		.loc 1 38 7 view .LVU45
 199              		.loc 1 38 11 is_stmt 0 view .LVU46
 200 0008 0024     		movs	r4, #0
 201              		.loc 1 38 2 view .LVU47
 202 000a 03E0     		b	.L10
 203              	.LVL15:
 204              	.L11:
  39:Core/Src/i2c-lcd.c **** 	{
  40:Core/Src/i2c-lcd.c **** 		lcd_send_data (' ');
 205              		.loc 1 40 3 is_stmt 1 discriminator 3 view .LVU48
 206 000c 2020     		movs	r0, #32
 207 000e FFF7FEFF 		bl	lcd_send_data
 208              	.LVL16:
  38:Core/Src/i2c-lcd.c **** 	for (int i=0; i<70; i++)
 209              		.loc 1 38 23 discriminator 3 view .LVU49
 210 0012 0134     		adds	r4, r4, #1
 211              	.LVL17:
 212              	.L10:
  38:Core/Src/i2c-lcd.c **** 	for (int i=0; i<70; i++)
 213              		.loc 1 38 17 discriminator 1 view .LVU50
 214 0014 452C     		cmp	r4, #69
 215 0016 F9DD     		ble	.L11
 216              	.LBE2:
  41:Core/Src/i2c-lcd.c **** 	}
  42:Core/Src/i2c-lcd.c **** }
 217              		.loc 1 42 1 is_stmt 0 view .LVU51
 218 0018 10BD     		pop	{r4, pc}
 219              		.loc 1 42 1 view .LVU52
 220              		.cfi_endproc
 221              	.LFE132:
 223              		.section	.text.lcd_put_cur,"ax",%progbits
 224              		.align	1
 225              		.global	lcd_put_cur
 226              		.syntax unified
 227              		.thumb
 228              		.thumb_func
 230              	lcd_put_cur:
 231              	.LVL18:
 232              	.LFB133:
  43:Core/Src/i2c-lcd.c **** 
  44:Core/Src/i2c-lcd.c **** void lcd_put_cur(int row, int col)
  45:Core/Src/i2c-lcd.c **** {
 233              		.loc 1 45 1 is_stmt 1 view -0
 234              		.cfi_startproc
 235              		@ args = 0, pretend = 0, frame = 0
 236              		@ frame_needed = 0, uses_anonymous_args = 0
 237              		.loc 1 45 1 is_stmt 0 view .LVU54
 238 0000 08B5     		push	{r3, lr}
 239              	.LCFI7:
 240              		.cfi_def_cfa_offset 8
 241              		.cfi_offset 3, -8
 242              		.cfi_offset 14, -4
  46:Core/Src/i2c-lcd.c ****     switch (row)
 243              		.loc 1 46 5 is_stmt 1 view .LVU55
 244 0002 28B1     		cbz	r0, .L14
ARM GAS  C:\Users\jdcox\AppData\Local\Temp\cc7QzIh8.s 			page 6


 245 0004 0128     		cmp	r0, #1
 246 0006 06D0     		beq	.L15
 247              	.L16:
  47:Core/Src/i2c-lcd.c ****     {
  48:Core/Src/i2c-lcd.c ****         case 0:
  49:Core/Src/i2c-lcd.c ****             col |= 0x80;
  50:Core/Src/i2c-lcd.c ****             break;
  51:Core/Src/i2c-lcd.c ****         case 1:
  52:Core/Src/i2c-lcd.c ****             col |= 0xC0;
  53:Core/Src/i2c-lcd.c ****             break;
  54:Core/Src/i2c-lcd.c ****     }
  55:Core/Src/i2c-lcd.c **** 
  56:Core/Src/i2c-lcd.c ****     lcd_send_cmd (col);
 248              		.loc 1 56 5 view .LVU56
 249 0008 C8B2     		uxtb	r0, r1
 250              	.LVL19:
 251              		.loc 1 56 5 is_stmt 0 view .LVU57
 252 000a FFF7FEFF 		bl	lcd_send_cmd
 253              	.LVL20:
  57:Core/Src/i2c-lcd.c **** }
 254              		.loc 1 57 1 view .LVU58
 255 000e 08BD     		pop	{r3, pc}
 256              	.LVL21:
 257              	.L14:
  49:Core/Src/i2c-lcd.c ****             break;
 258              		.loc 1 49 13 is_stmt 1 view .LVU59
  49:Core/Src/i2c-lcd.c ****             break;
 259              		.loc 1 49 17 is_stmt 0 view .LVU60
 260 0010 41F08001 		orr	r1, r1, #128
 261              	.LVL22:
  50:Core/Src/i2c-lcd.c ****         case 1:
 262              		.loc 1 50 13 is_stmt 1 view .LVU61
 263 0014 F8E7     		b	.L16
 264              	.L15:
  52:Core/Src/i2c-lcd.c ****             break;
 265              		.loc 1 52 13 view .LVU62
  52:Core/Src/i2c-lcd.c ****             break;
 266              		.loc 1 52 17 is_stmt 0 view .LVU63
 267 0016 41F0C001 		orr	r1, r1, #192
 268              	.LVL23:
  53:Core/Src/i2c-lcd.c ****     }
 269              		.loc 1 53 13 is_stmt 1 view .LVU64
 270 001a F5E7     		b	.L16
 271              		.cfi_endproc
 272              	.LFE133:
 274              		.section	.text.lcd_init,"ax",%progbits
 275              		.align	1
 276              		.global	lcd_init
 277              		.syntax unified
 278              		.thumb
 279              		.thumb_func
 281              	lcd_init:
 282              	.LFB134:
  58:Core/Src/i2c-lcd.c **** 
  59:Core/Src/i2c-lcd.c **** 
  60:Core/Src/i2c-lcd.c **** void lcd_init (void)
  61:Core/Src/i2c-lcd.c **** {
ARM GAS  C:\Users\jdcox\AppData\Local\Temp\cc7QzIh8.s 			page 7


 283              		.loc 1 61 1 view -0
 284              		.cfi_startproc
 285              		@ args = 0, pretend = 0, frame = 0
 286              		@ frame_needed = 0, uses_anonymous_args = 0
 287 0000 08B5     		push	{r3, lr}
 288              	.LCFI8:
 289              		.cfi_def_cfa_offset 8
 290              		.cfi_offset 3, -8
 291              		.cfi_offset 14, -4
  62:Core/Src/i2c-lcd.c **** 	// 4 bit initialisation
  63:Core/Src/i2c-lcd.c **** 	osDelay(50);  // wait for >40ms
 292              		.loc 1 63 2 view .LVU66
 293 0002 3220     		movs	r0, #50
 294 0004 FFF7FEFF 		bl	osDelay
 295              	.LVL24:
  64:Core/Src/i2c-lcd.c **** 	lcd_send_cmd (0x30);
 296              		.loc 1 64 2 view .LVU67
 297 0008 3020     		movs	r0, #48
 298 000a FFF7FEFF 		bl	lcd_send_cmd
 299              	.LVL25:
  65:Core/Src/i2c-lcd.c **** 	osDelay(5);  // wait for >4.1ms
 300              		.loc 1 65 2 view .LVU68
 301 000e 0520     		movs	r0, #5
 302 0010 FFF7FEFF 		bl	osDelay
 303              	.LVL26:
  66:Core/Src/i2c-lcd.c **** 	lcd_send_cmd (0x30);
 304              		.loc 1 66 2 view .LVU69
 305 0014 3020     		movs	r0, #48
 306 0016 FFF7FEFF 		bl	lcd_send_cmd
 307              	.LVL27:
  67:Core/Src/i2c-lcd.c **** 	osDelay(1);  // wait for >100us
 308              		.loc 1 67 2 view .LVU70
 309 001a 0120     		movs	r0, #1
 310 001c FFF7FEFF 		bl	osDelay
 311              	.LVL28:
  68:Core/Src/i2c-lcd.c **** 	lcd_send_cmd (0x30);
 312              		.loc 1 68 2 view .LVU71
 313 0020 3020     		movs	r0, #48
 314 0022 FFF7FEFF 		bl	lcd_send_cmd
 315              	.LVL29:
  69:Core/Src/i2c-lcd.c **** 	osDelay(10);
 316              		.loc 1 69 2 view .LVU72
 317 0026 0A20     		movs	r0, #10
 318 0028 FFF7FEFF 		bl	osDelay
 319              	.LVL30:
  70:Core/Src/i2c-lcd.c **** 	lcd_send_cmd (0x20);  // 4bit mode
 320              		.loc 1 70 2 view .LVU73
 321 002c 2020     		movs	r0, #32
 322 002e FFF7FEFF 		bl	lcd_send_cmd
 323              	.LVL31:
  71:Core/Src/i2c-lcd.c **** 	osDelay(10);
 324              		.loc 1 71 2 view .LVU74
 325 0032 0A20     		movs	r0, #10
 326 0034 FFF7FEFF 		bl	osDelay
 327              	.LVL32:
  72:Core/Src/i2c-lcd.c **** 
  73:Core/Src/i2c-lcd.c ****   // dislay initialisation
ARM GAS  C:\Users\jdcox\AppData\Local\Temp\cc7QzIh8.s 			page 8


  74:Core/Src/i2c-lcd.c **** 	lcd_send_cmd (0x28); // Function set --> DL=0 (4 bit mode), N = 1 (2 line display) F = 0 (5x8 char
 328              		.loc 1 74 2 view .LVU75
 329 0038 2820     		movs	r0, #40
 330 003a FFF7FEFF 		bl	lcd_send_cmd
 331              	.LVL33:
  75:Core/Src/i2c-lcd.c **** 	osDelay(1);
 332              		.loc 1 75 2 view .LVU76
 333 003e 0120     		movs	r0, #1
 334 0040 FFF7FEFF 		bl	osDelay
 335              	.LVL34:
  76:Core/Src/i2c-lcd.c **** 	lcd_send_cmd (0x08); //Display on/off control --> D=0,C=0, B=0  ---> display off
 336              		.loc 1 76 2 view .LVU77
 337 0044 0820     		movs	r0, #8
 338 0046 FFF7FEFF 		bl	lcd_send_cmd
 339              	.LVL35:
  77:Core/Src/i2c-lcd.c **** 	osDelay(1);
 340              		.loc 1 77 2 view .LVU78
 341 004a 0120     		movs	r0, #1
 342 004c FFF7FEFF 		bl	osDelay
 343              	.LVL36:
  78:Core/Src/i2c-lcd.c **** 	lcd_send_cmd (0x01);  // clear display
 344              		.loc 1 78 2 view .LVU79
 345 0050 0120     		movs	r0, #1
 346 0052 FFF7FEFF 		bl	lcd_send_cmd
 347              	.LVL37:
  79:Core/Src/i2c-lcd.c **** 	osDelay(1);
 348              		.loc 1 79 2 view .LVU80
 349 0056 0120     		movs	r0, #1
 350 0058 FFF7FEFF 		bl	osDelay
 351              	.LVL38:
  80:Core/Src/i2c-lcd.c **** 	osDelay(1);
 352              		.loc 1 80 2 view .LVU81
 353 005c 0120     		movs	r0, #1
 354 005e FFF7FEFF 		bl	osDelay
 355              	.LVL39:
  81:Core/Src/i2c-lcd.c **** 	lcd_send_cmd (0x06); //Entry mode set --> I/D = 1 (increment cursor) & S = 0 (no shift)
 356              		.loc 1 81 2 view .LVU82
 357 0062 0620     		movs	r0, #6
 358 0064 FFF7FEFF 		bl	lcd_send_cmd
 359              	.LVL40:
  82:Core/Src/i2c-lcd.c **** 	osDelay(1);
 360              		.loc 1 82 2 view .LVU83
 361 0068 0120     		movs	r0, #1
 362 006a FFF7FEFF 		bl	osDelay
 363              	.LVL41:
  83:Core/Src/i2c-lcd.c **** 	lcd_send_cmd (0x0C); //Display on/off control --> D = 1, C and B = 0. (Cursor and blink, last two 
 364              		.loc 1 83 2 view .LVU84
 365 006e 0C20     		movs	r0, #12
 366 0070 FFF7FEFF 		bl	lcd_send_cmd
 367              	.LVL42:
  84:Core/Src/i2c-lcd.c **** }
 368              		.loc 1 84 1 is_stmt 0 view .LVU85
 369 0074 08BD     		pop	{r3, pc}
 370              		.cfi_endproc
 371              	.LFE134:
 373              		.section	.text.lcd_send_string,"ax",%progbits
 374              		.align	1
ARM GAS  C:\Users\jdcox\AppData\Local\Temp\cc7QzIh8.s 			page 9


 375              		.global	lcd_send_string
 376              		.syntax unified
 377              		.thumb
 378              		.thumb_func
 380              	lcd_send_string:
 381              	.LVL43:
 382              	.LFB135:
  85:Core/Src/i2c-lcd.c **** 
  86:Core/Src/i2c-lcd.c **** void lcd_send_string (char *str)
  87:Core/Src/i2c-lcd.c **** {
 383              		.loc 1 87 1 is_stmt 1 view -0
 384              		.cfi_startproc
 385              		@ args = 0, pretend = 0, frame = 0
 386              		@ frame_needed = 0, uses_anonymous_args = 0
 387              		.loc 1 87 1 is_stmt 0 view .LVU87
 388 0000 10B5     		push	{r4, lr}
 389              	.LCFI9:
 390              		.cfi_def_cfa_offset 8
 391              		.cfi_offset 4, -8
 392              		.cfi_offset 14, -4
 393 0002 0446     		mov	r4, r0
  88:Core/Src/i2c-lcd.c **** 	while (*str) lcd_send_data (*str++);
 394              		.loc 1 88 2 is_stmt 1 view .LVU88
 395              		.loc 1 88 8 is_stmt 0 view .LVU89
 396 0004 02E0     		b	.L21
 397              	.LVL44:
 398              	.L22:
 399              		.loc 1 88 15 is_stmt 1 discriminator 2 view .LVU90
 400              		.loc 1 88 34 is_stmt 0 discriminator 2 view .LVU91
 401 0006 0134     		adds	r4, r4, #1
 402              	.LVL45:
 403              		.loc 1 88 15 discriminator 2 view .LVU92
 404 0008 FFF7FEFF 		bl	lcd_send_data
 405              	.LVL46:
 406              	.L21:
 407              		.loc 1 88 9 is_stmt 1 discriminator 1 view .LVU93
 408 000c 2078     		ldrb	r0, [r4]	@ zero_extendqisi2
 409 000e 0028     		cmp	r0, #0
 410 0010 F9D1     		bne	.L22
  89:Core/Src/i2c-lcd.c **** }
 411              		.loc 1 89 1 is_stmt 0 view .LVU94
 412 0012 10BD     		pop	{r4, pc}
 413              		.loc 1 89 1 view .LVU95
 414              		.cfi_endproc
 415              	.LFE135:
 417              		.text
 418              	.Letext0:
 419              		.file 2 "c:\\libraries\\gcc\\11.2 2022.02\\arm-none-eabi\\include\\machine\\_default_types.h"
 420              		.file 3 "c:\\libraries\\gcc\\11.2 2022.02\\arm-none-eabi\\include\\sys\\_stdint.h"
 421              		.file 4 "Drivers/CMSIS/Device/ST/STM32F4xx/Include/stm32f401xc.h"
 422              		.file 5 "Drivers/STM32F4xx_HAL_Driver/Inc/stm32f4xx_hal_def.h"
 423              		.file 6 "Drivers/STM32F4xx_HAL_Driver/Inc/stm32f4xx_hal_dma.h"
 424              		.file 7 "Drivers/STM32F4xx_HAL_Driver/Inc/stm32f4xx_hal_i2c.h"
ARM GAS  C:\Users\jdcox\AppData\Local\Temp\cc7QzIh8.s 			page 10

