ARM GAS  C:\Users\jdcox\AppData\Local\Temp\ccPIlc66.s 			page 1


   1              		.cpu cortex-m4
   2              		.arch armv7e-m
   3              		.fpu fpv4-sp-d16
   4              		.eabi_attribute 27, 1
   5              		.eabi_attribute 28, 1
   6              		.eabi_attribute 20, 1
   7              		.eabi_attribute 21, 1
   8              		.eabi_attribute 23, 3
   9              		.eabi_attribute 24, 1
  10              		.eabi_attribute 25, 1
  11              		.eabi_attribute 26, 1
  12              		.eabi_attribute 30, 1
  13              		.eabi_attribute 34, 1
  14              		.eabi_attribute 18, 4
  15              		.file	"koth_game.c"
  16              		.text
  17              	.Ltext0:
  18              		.cfi_sections	.debug_frame
  19              		.section	.text.resetGame,"ax",%progbits
  20              		.align	1
  21              		.global	resetGame
  22              		.syntax unified
  23              		.thumb
  24              		.thumb_func
  26              	resetGame:
  27              	.LFB138:
  28              		.file 1 "Core/Src/koth_game.c"
   1:Core/Src/koth_game.c **** #include "main.h"
   2:Core/Src/koth_game.c **** #include <string.h>
   3:Core/Src/koth_game.c **** #include "define.h"
   4:Core/Src/koth_game.c **** #include "extern.h"
   5:Core/Src/koth_game.c **** #include <stdio.h>
   6:Core/Src/koth_game.c **** #include <stdlib.h>
   7:Core/Src/koth_game.c **** #include "cmsis_os.h"
   8:Core/Src/koth_game.c **** #include "lora.h"
   9:Core/Src/koth_game.c **** 
  10:Core/Src/koth_game.c **** 
  11:Core/Src/koth_game.c **** void resetGame()
  12:Core/Src/koth_game.c **** {
  29              		.loc 1 12 1 view -0
  30              		.cfi_startproc
  31              		@ args = 0, pretend = 0, frame = 0
  32              		@ frame_needed = 0, uses_anonymous_args = 0
  33              		@ link register save eliminated.
  13:Core/Src/koth_game.c ****     p1King_flag = 0;
  34              		.loc 1 13 5 view .LVU1
  35              		.loc 1 13 17 is_stmt 0 view .LVU2
  36 0000 0023     		movs	r3, #0
  37 0002 044A     		ldr	r2, .L2
  38 0004 1370     		strb	r3, [r2]
  14:Core/Src/koth_game.c ****     p2King_flag = 0;
  39              		.loc 1 14 5 is_stmt 1 view .LVU3
  40              		.loc 1 14 17 is_stmt 0 view .LVU4
  41 0006 044A     		ldr	r2, .L2+4
  42 0008 1370     		strb	r3, [r2]
  15:Core/Src/koth_game.c ****     p1King_counter = 0;
  43              		.loc 1 15 5 is_stmt 1 view .LVU5
ARM GAS  C:\Users\jdcox\AppData\Local\Temp\ccPIlc66.s 			page 2


  44              		.loc 1 15 20 is_stmt 0 view .LVU6
  45 000a 044A     		ldr	r2, .L2+8
  46 000c 1360     		str	r3, [r2]
  16:Core/Src/koth_game.c ****     p1King_counter = 0;
  47              		.loc 1 16 5 is_stmt 1 view .LVU7
  17:Core/Src/koth_game.c ****     gameState = waiting;
  48              		.loc 1 17 5 view .LVU8
  49              		.loc 1 17 15 is_stmt 0 view .LVU9
  50 000e 044A     		ldr	r2, .L2+12
  51 0010 1370     		strb	r3, [r2]
  18:Core/Src/koth_game.c **** 
  19:Core/Src/koth_game.c **** }
  52              		.loc 1 19 1 view .LVU10
  53 0012 7047     		bx	lr
  54              	.L3:
  55              		.align	2
  56              	.L2:
  57 0014 00000000 		.word	p1King_flag
  58 0018 00000000 		.word	p2King_flag
  59 001c 00000000 		.word	p1King_counter
  60 0020 00000000 		.word	gameState
  61              		.cfi_endproc
  62              	.LFE138:
  64              		.section	.rodata.sendOpcode.str1.4,"aMS",%progbits,1
  65              		.align	2
  66              	.LC0:
  67 0000 25754B4F 		.ascii	"%uKOTH\000"
  67      544800
  68              		.section	.text.sendOpcode,"ax",%progbits
  69              		.align	1
  70              		.global	sendOpcode
  71              		.syntax unified
  72              		.thumb
  73              		.thumb_func
  75              	sendOpcode:
  76              	.LVL0:
  77              	.LFB141:
  20:Core/Src/koth_game.c **** 
  21:Core/Src/koth_game.c **** void getKOTHPacket()
  22:Core/Src/koth_game.c **** {
  23:Core/Src/koth_game.c ****     // Wait for LoRa availability
  24:Core/Src/koth_game.c ****     //xSemaphoreTake(xloraMutex, portMAX_DELAY);
  25:Core/Src/koth_game.c **** 
  26:Core/Src/koth_game.c ****     // Get the packet
  27:Core/Src/koth_game.c ****     packet_size = LoRa_receive(&myLoRa, loraRXbuf, 10);
  28:Core/Src/koth_game.c **** 
  29:Core/Src/koth_game.c ****     //xSemaphoreGive(xloraMutex);
  30:Core/Src/koth_game.c ****     
  31:Core/Src/koth_game.c ****     // Parse the data
  32:Core/Src/koth_game.c ****     if(strstr((char*)loraRXbuf, "KOTH"))
  33:Core/Src/koth_game.c ****     {
  34:Core/Src/koth_game.c ****         long opcode;
  35:Core/Src/koth_game.c ****         char * trashCatcher[10]; 
  36:Core/Src/koth_game.c ****         
  37:Core/Src/koth_game.c ****         opcode = strtol((char*)loraRXbuf, trashCatcher,10);
  38:Core/Src/koth_game.c **** 
  39:Core/Src/koth_game.c ****         // Process opcode and respond if necessary
ARM GAS  C:\Users\jdcox\AppData\Local\Temp\ccPIlc66.s 			page 3


  40:Core/Src/koth_game.c ****         switch (opcode)
  41:Core/Src/koth_game.c ****         {
  42:Core/Src/koth_game.c ****             case START:
  43:Core/Src/koth_game.c ****             // Reset and start
  44:Core/Src/koth_game.c ****             resetGame();
  45:Core/Src/koth_game.c ****             // Send confirmation
  46:Core/Src/koth_game.c ****             sendOpcode(CONFIRM_START);
  47:Core/Src/koth_game.c ****             gameState = p2King;
  48:Core/Src/koth_game.c ****             P2LED_ON;
  49:Core/Src/koth_game.c ****             P1LED_OFF;
  50:Core/Src/koth_game.c ****             stateChange_flag = 1; 
  51:Core/Src/koth_game.c ****             p1King_flag = 0;
  52:Core/Src/koth_game.c ****             p2King_flag = 1;
  53:Core/Src/koth_game.c ****             break;
  54:Core/Src/koth_game.c **** 
  55:Core/Src/koth_game.c ****             case CLAIM_KING: 
  56:Core/Src/koth_game.c ****             sendOpcode(CONFIRM_KING);
  57:Core/Src/koth_game.c ****             gameState = p2King;
  58:Core/Src/koth_game.c ****             P2LED_ON;
  59:Core/Src/koth_game.c ****             P1LED_OFF;
  60:Core/Src/koth_game.c ****             stateChange_flag = 1; 
  61:Core/Src/koth_game.c ****             p1King_flag = 1;
  62:Core/Src/koth_game.c ****             p2King_flag = 0;
  63:Core/Src/koth_game.c ****             break; 
  64:Core/Src/koth_game.c **** 
  65:Core/Src/koth_game.c ****             // Confirmations received
  66:Core/Src/koth_game.c ****             case CONFIRM_START:
  67:Core/Src/koth_game.c ****             case CONFIRM_KING:
  68:Core/Src/koth_game.c ****             stateChange_flag = 1; 
  69:Core/Src/koth_game.c ****             gameState = p1King;
  70:Core/Src/koth_game.c ****             P1LED_ON;
  71:Core/Src/koth_game.c ****             P2LED_OFF;
  72:Core/Src/koth_game.c ****             p1King_flag = 1;
  73:Core/Src/koth_game.c ****             p2King_flag = 0;
  74:Core/Src/koth_game.c ****             break;
  75:Core/Src/koth_game.c ****             
  76:Core/Src/koth_game.c ****             }
  77:Core/Src/koth_game.c ****         }
  78:Core/Src/koth_game.c ****         
  79:Core/Src/koth_game.c **** }
  80:Core/Src/koth_game.c **** 
  81:Core/Src/koth_game.c **** void btnPressed()
  82:Core/Src/koth_game.c **** {
  83:Core/Src/koth_game.c ****     switch (gameState)
  84:Core/Src/koth_game.c ****     {
  85:Core/Src/koth_game.c ****         case waiting:
  86:Core/Src/koth_game.c ****             // send message to opponent, start on confirmation
  87:Core/Src/koth_game.c ****             sendOpcode(START);
  88:Core/Src/koth_game.c ****         break;
  89:Core/Src/koth_game.c ****         
  90:Core/Src/koth_game.c ****         case p1King:
  91:Core/Src/koth_game.c ****             // oops! penalty
  92:Core/Src/koth_game.c ****             stateChange_flag = 1; 
  93:Core/Src/koth_game.c ****             gameState = penalty;
  94:Core/Src/koth_game.c ****             P2LED_ON;
  95:Core/Src/koth_game.c ****             P1LED_OFF;
  96:Core/Src/koth_game.c ****             sendOpcode(CONFIRM_KING);
ARM GAS  C:\Users\jdcox\AppData\Local\Temp\ccPIlc66.s 			page 4


  97:Core/Src/koth_game.c ****         break;
  98:Core/Src/koth_game.c **** 
  99:Core/Src/koth_game.c ****         case p2King:
 100:Core/Src/koth_game.c ****             // Take the hill
 101:Core/Src/koth_game.c ****             sendOpcode(CLAIM_KING);
 102:Core/Src/koth_game.c ****         break;
 103:Core/Src/koth_game.c **** 
 104:Core/Src/koth_game.c ****         case p1Winner:
 105:Core/Src/koth_game.c ****         case p2Winner:
 106:Core/Src/koth_game.c ****             stateChange_flag = 1; 
 107:Core/Src/koth_game.c ****             gameState = waiting;
 108:Core/Src/koth_game.c ****             P1LED_OFF;
 109:Core/Src/koth_game.c ****             P2LED_OFF;
 110:Core/Src/koth_game.c ****         break;
 111:Core/Src/koth_game.c **** 
 112:Core/Src/koth_game.c ****         case penalty:
 113:Core/Src/koth_game.c ****             // nothing
 114:Core/Src/koth_game.c ****         break;
 115:Core/Src/koth_game.c ****     }
 116:Core/Src/koth_game.c **** 
 117:Core/Src/koth_game.c **** 
 118:Core/Src/koth_game.c **** }
 119:Core/Src/koth_game.c **** 
 120:Core/Src/koth_game.c **** void sendOpcode(uint8_t opcode)
 121:Core/Src/koth_game.c **** {
  78              		.loc 1 121 1 is_stmt 1 view -0
  79              		.cfi_startproc
  80              		@ args = 0, pretend = 0, frame = 0
  81              		@ frame_needed = 0, uses_anonymous_args = 0
  82              		.loc 1 121 1 is_stmt 0 view .LVU12
  83 0000 08B5     		push	{r3, lr}
  84              	.LCFI0:
  85              		.cfi_def_cfa_offset 8
  86              		.cfi_offset 3, -8
  87              		.cfi_offset 14, -4
  88 0002 0246     		mov	r2, r0
 122:Core/Src/koth_game.c ****     memset(opcodeString, 0, sizeof(opcodeString));
  89              		.loc 1 122 5 is_stmt 1 view .LVU13
  90 0004 0448     		ldr	r0, .L6
  91              	.LVL1:
  92              		.loc 1 122 5 is_stmt 0 view .LVU14
  93 0006 0021     		movs	r1, #0
  94 0008 0160     		str	r1, [r0]	@ unaligned
  95 000a 4160     		str	r1, [r0, #4]	@ unaligned
  96 000c 0181     		strh	r1, [r0, #8]	@ unaligned
 123:Core/Src/koth_game.c ****     // Create encoded string
 124:Core/Src/koth_game.c ****     sprintf(opcodeString, "%uKOTH", opcode);
  97              		.loc 1 124 5 is_stmt 1 view .LVU15
  98 000e 0349     		ldr	r1, .L6+4
  99 0010 FFF7FEFF 		bl	sprintf
 100              	.LVL2:
 125:Core/Src/koth_game.c **** 
 126:Core/Src/koth_game.c ****     // Wait for LoRa availability
 127:Core/Src/koth_game.c ****     //xSemaphoreTake(xloraMutex, portMAX_DELAY);
 128:Core/Src/koth_game.c **** 
 129:Core/Src/koth_game.c ****     // Send it via LoRa
 130:Core/Src/koth_game.c ****     //uint8_t res = lora_send_packet_dma_start(&lora, (uint8_t *)opcodeString, 10);
ARM GAS  C:\Users\jdcox\AppData\Local\Temp\ccPIlc66.s 			page 5


 131:Core/Src/koth_game.c ****     //if (res != LORA_OK) {
 132:Core/Src/koth_game.c ****     // Send failed
 133:Core/Src/koth_game.c ****     //debugBuddy = res;
 134:Core/Src/koth_game.c **** 
 135:Core/Src/koth_game.c ****    // }
 136:Core/Src/koth_game.c **** 
 137:Core/Src/koth_game.c ****     // Release LoRa availability
 138:Core/Src/koth_game.c ****     //xSemaphoreGive(xloraMutex);
 139:Core/Src/koth_game.c ****     // osMutexRelease(lora_mutexHandle);
 140:Core/Src/koth_game.c **** 
 141:Core/Src/koth_game.c ****   
 142:Core/Src/koth_game.c **** }...
 101              		.loc 1 142 1 is_stmt 0 view .LVU16
 102 0014 08BD     		pop	{r3, pc}
 103              	.L7:
 104 0016 00BF     		.align	2
 105              	.L6:
 106 0018 00000000 		.word	opcodeString
 107 001c 00000000 		.word	.LC0
 108              		.cfi_endproc
 109              	.LFE141:
 111              		.section	.rodata.getKOTHPacket.str1.4,"aMS",%progbits,1
 112              		.align	2
 113              	.LC1:
 114 0000 4B4F5448 		.ascii	"KOTH\000"
 114      00
 115              		.section	.text.getKOTHPacket,"ax",%progbits
 116              		.align	1
 117              		.global	getKOTHPacket
 118              		.syntax unified
 119              		.thumb
 120              		.thumb_func
 122              	getKOTHPacket:
 123              	.LFB139:
  22:Core/Src/koth_game.c **** {
 124              		.loc 1 22 1 is_stmt 1 view -0
 125              		.cfi_startproc
 126              		@ args = 0, pretend = 0, frame = 40
 127              		@ frame_needed = 0, uses_anonymous_args = 0
 128 0000 30B5     		push	{r4, r5, lr}
 129              	.LCFI1:
 130              		.cfi_def_cfa_offset 12
 131              		.cfi_offset 4, -12
 132              		.cfi_offset 5, -8
 133              		.cfi_offset 14, -4
 134 0002 8BB0     		sub	sp, sp, #44
 135              	.LCFI2:
 136              		.cfi_def_cfa_offset 56
  27:Core/Src/koth_game.c ****     packet_size = LoRa_receive(&myLoRa, loraRXbuf, 10);
 137              		.loc 1 27 5 view .LVU18
  27:Core/Src/koth_game.c ****     packet_size = LoRa_receive(&myLoRa, loraRXbuf, 10);
 138              		.loc 1 27 19 is_stmt 0 view .LVU19
 139 0004 324C     		ldr	r4, .L17
 140 0006 0A22     		movs	r2, #10
 141 0008 2146     		mov	r1, r4
 142 000a 3248     		ldr	r0, .L17+4
 143 000c FFF7FEFF 		bl	LoRa_receive
ARM GAS  C:\Users\jdcox\AppData\Local\Temp\ccPIlc66.s 			page 6


 144              	.LVL3:
  27:Core/Src/koth_game.c ****     packet_size = LoRa_receive(&myLoRa, loraRXbuf, 10);
 145              		.loc 1 27 17 view .LVU20
 146 0010 314B     		ldr	r3, .L17+8
 147 0012 1870     		strb	r0, [r3]
  32:Core/Src/koth_game.c ****     if(strstr((char*)loraRXbuf, "KOTH"))
 148              		.loc 1 32 5 is_stmt 1 view .LVU21
  32:Core/Src/koth_game.c ****     if(strstr((char*)loraRXbuf, "KOTH"))
 149              		.loc 1 32 8 is_stmt 0 view .LVU22
 150 0014 3149     		ldr	r1, .L17+12
 151 0016 2046     		mov	r0, r4
 152 0018 FFF7FEFF 		bl	strstr
 153              	.LVL4:
  32:Core/Src/koth_game.c ****     if(strstr((char*)loraRXbuf, "KOTH"))
 154              		.loc 1 32 7 view .LVU23
 155 001c 28B3     		cbz	r0, .L8
 156              	.LBB2:
  34:Core/Src/koth_game.c ****         long opcode;
 157              		.loc 1 34 9 is_stmt 1 view .LVU24
  35:Core/Src/koth_game.c ****         char * trashCatcher[10]; 
 158              		.loc 1 35 9 view .LVU25
  37:Core/Src/koth_game.c ****         opcode = strtol((char*)loraRXbuf, trashCatcher,10);
 159              		.loc 1 37 9 view .LVU26
  37:Core/Src/koth_game.c ****         opcode = strtol((char*)loraRXbuf, trashCatcher,10);
 160              		.loc 1 37 18 is_stmt 0 view .LVU27
 161 001e 0A22     		movs	r2, #10
 162 0020 6946     		mov	r1, sp
 163 0022 2046     		mov	r0, r4
 164 0024 FFF7FEFF 		bl	strtol
 165              	.LVL5:
  40:Core/Src/koth_game.c ****         switch (opcode)
 166              		.loc 1 40 9 is_stmt 1 view .LVU28
 167 0028 0328     		cmp	r0, #3
 168 002a 1ED8     		bhi	.L8
 169 002c DFE800F0 		tbb	[pc, r0]
 170              	.L12:
 171 0030 02       		.byte	(.L14-.L12)/2
 172 0031 39       		.byte	(.L11-.L12)/2
 173 0032 1F       		.byte	(.L13-.L12)/2
 174 0033 39       		.byte	(.L11-.L12)/2
 175              		.p2align 1
 176              	.L14:
  44:Core/Src/koth_game.c ****             resetGame();
 177              		.loc 1 44 13 view .LVU29
 178 0034 FFF7FEFF 		bl	resetGame
 179              	.LVL6:
  46:Core/Src/koth_game.c ****             sendOpcode(CONFIRM_START);
 180              		.loc 1 46 13 view .LVU30
 181 0038 0120     		movs	r0, #1
 182 003a FFF7FEFF 		bl	sendOpcode
 183              	.LVL7:
  47:Core/Src/koth_game.c ****             gameState = p2King;
 184              		.loc 1 47 13 view .LVU31
  47:Core/Src/koth_game.c ****             gameState = p2King;
 185              		.loc 1 47 23 is_stmt 0 view .LVU32
 186 003e 0225     		movs	r5, #2
 187 0040 274B     		ldr	r3, .L17+16
ARM GAS  C:\Users\jdcox\AppData\Local\Temp\ccPIlc66.s 			page 7


 188 0042 1D70     		strb	r5, [r3]
  48:Core/Src/koth_game.c ****             P2LED_ON;
 189              		.loc 1 48 13 is_stmt 1 view .LVU33
 190 0044 274C     		ldr	r4, .L17+20
 191 0046 0022     		movs	r2, #0
 192 0048 0421     		movs	r1, #4
 193 004a 2046     		mov	r0, r4
 194 004c FFF7FEFF 		bl	HAL_GPIO_WritePin
 195              	.LVL8:
  49:Core/Src/koth_game.c ****             P1LED_OFF;
 196              		.loc 1 49 13 view .LVU34
 197 0050 0122     		movs	r2, #1
 198 0052 2946     		mov	r1, r5
 199 0054 2046     		mov	r0, r4
 200 0056 FFF7FEFF 		bl	HAL_GPIO_WritePin
 201              	.LVL9:
  50:Core/Src/koth_game.c ****             stateChange_flag = 1; 
 202              		.loc 1 50 13 view .LVU35
  50:Core/Src/koth_game.c ****             stateChange_flag = 1; 
 203              		.loc 1 50 30 is_stmt 0 view .LVU36
 204 005a 0123     		movs	r3, #1
 205 005c 224A     		ldr	r2, .L17+24
 206 005e 1370     		strb	r3, [r2]
  51:Core/Src/koth_game.c ****             p1King_flag = 0;
 207              		.loc 1 51 13 is_stmt 1 view .LVU37
  51:Core/Src/koth_game.c ****             p1King_flag = 0;
 208              		.loc 1 51 25 is_stmt 0 view .LVU38
 209 0060 224A     		ldr	r2, .L17+28
 210 0062 0021     		movs	r1, #0
 211 0064 1170     		strb	r1, [r2]
  52:Core/Src/koth_game.c ****             p2King_flag = 1;
 212              		.loc 1 52 13 is_stmt 1 view .LVU39
  52:Core/Src/koth_game.c ****             p2King_flag = 1;
 213              		.loc 1 52 25 is_stmt 0 view .LVU40
 214 0066 224A     		ldr	r2, .L17+32
 215 0068 1370     		strb	r3, [r2]
  53:Core/Src/koth_game.c ****             break;
 216              		.loc 1 53 13 is_stmt 1 view .LVU41
 217              	.L8:
  53:Core/Src/koth_game.c ****             break;
 218              		.loc 1 53 13 is_stmt 0 view .LVU42
 219              	.LBE2:
  79:Core/Src/koth_game.c **** }
 220              		.loc 1 79 1 view .LVU43
 221 006a 0BB0     		add	sp, sp, #44
 222              	.LCFI3:
 223              		.cfi_remember_state
 224              		.cfi_def_cfa_offset 12
 225              		@ sp needed
 226 006c 30BD     		pop	{r4, r5, pc}
 227              	.LVL10:
 228              	.L13:
 229              	.LCFI4:
 230              		.cfi_restore_state
 231              	.LBB3:
  56:Core/Src/koth_game.c ****             sendOpcode(CONFIRM_KING);
 232              		.loc 1 56 13 is_stmt 1 view .LVU44
ARM GAS  C:\Users\jdcox\AppData\Local\Temp\ccPIlc66.s 			page 8


 233 006e 0320     		movs	r0, #3
 234              	.LVL11:
  56:Core/Src/koth_game.c ****             sendOpcode(CONFIRM_KING);
 235              		.loc 1 56 13 is_stmt 0 view .LVU45
 236 0070 FFF7FEFF 		bl	sendOpcode
 237              	.LVL12:
  57:Core/Src/koth_game.c ****             gameState = p2King;
 238              		.loc 1 57 13 is_stmt 1 view .LVU46
  57:Core/Src/koth_game.c ****             gameState = p2King;
 239              		.loc 1 57 23 is_stmt 0 view .LVU47
 240 0074 0225     		movs	r5, #2
 241 0076 1A4B     		ldr	r3, .L17+16
 242 0078 1D70     		strb	r5, [r3]
  58:Core/Src/koth_game.c ****             P2LED_ON;
 243              		.loc 1 58 13 is_stmt 1 view .LVU48
 244 007a 1A4C     		ldr	r4, .L17+20
 245 007c 0022     		movs	r2, #0
 246 007e 0421     		movs	r1, #4
 247 0080 2046     		mov	r0, r4
 248 0082 FFF7FEFF 		bl	HAL_GPIO_WritePin
 249              	.LVL13:
  59:Core/Src/koth_game.c ****             P1LED_OFF;
 250              		.loc 1 59 13 view .LVU49
 251 0086 0122     		movs	r2, #1
 252 0088 2946     		mov	r1, r5
 253 008a 2046     		mov	r0, r4
 254 008c FFF7FEFF 		bl	HAL_GPIO_WritePin
 255              	.LVL14:
  60:Core/Src/koth_game.c ****             stateChange_flag = 1; 
 256              		.loc 1 60 13 view .LVU50
  60:Core/Src/koth_game.c ****             stateChange_flag = 1; 
 257              		.loc 1 60 30 is_stmt 0 view .LVU51
 258 0090 0123     		movs	r3, #1
 259 0092 154A     		ldr	r2, .L17+24
 260 0094 1370     		strb	r3, [r2]
  61:Core/Src/koth_game.c ****             p1King_flag = 1;
 261              		.loc 1 61 13 is_stmt 1 view .LVU52
  61:Core/Src/koth_game.c ****             p1King_flag = 1;
 262              		.loc 1 61 25 is_stmt 0 view .LVU53
 263 0096 154A     		ldr	r2, .L17+28
 264 0098 1370     		strb	r3, [r2]
  62:Core/Src/koth_game.c ****             p2King_flag = 0;
 265              		.loc 1 62 13 is_stmt 1 view .LVU54
  62:Core/Src/koth_game.c ****             p2King_flag = 0;
 266              		.loc 1 62 25 is_stmt 0 view .LVU55
 267 009a 154B     		ldr	r3, .L17+32
 268 009c 0022     		movs	r2, #0
 269 009e 1A70     		strb	r2, [r3]
  63:Core/Src/koth_game.c ****             break; 
 270              		.loc 1 63 13 is_stmt 1 view .LVU56
 271 00a0 E3E7     		b	.L8
 272              	.LVL15:
 273              	.L11:
  68:Core/Src/koth_game.c ****             stateChange_flag = 1; 
 274              		.loc 1 68 13 view .LVU57
  68:Core/Src/koth_game.c ****             stateChange_flag = 1; 
 275              		.loc 1 68 30 is_stmt 0 view .LVU58
ARM GAS  C:\Users\jdcox\AppData\Local\Temp\ccPIlc66.s 			page 9


 276 00a2 0124     		movs	r4, #1
 277 00a4 104B     		ldr	r3, .L17+24
 278 00a6 1C70     		strb	r4, [r3]
  69:Core/Src/koth_game.c ****             gameState = p1King;
 279              		.loc 1 69 13 is_stmt 1 view .LVU59
  69:Core/Src/koth_game.c ****             gameState = p1King;
 280              		.loc 1 69 23 is_stmt 0 view .LVU60
 281 00a8 0D4B     		ldr	r3, .L17+16
 282 00aa 1C70     		strb	r4, [r3]
  70:Core/Src/koth_game.c ****             P1LED_ON;
 283              		.loc 1 70 13 is_stmt 1 view .LVU61
 284 00ac 0D4D     		ldr	r5, .L17+20
 285 00ae 0022     		movs	r2, #0
 286 00b0 0221     		movs	r1, #2
 287 00b2 2846     		mov	r0, r5
 288              	.LVL16:
  70:Core/Src/koth_game.c ****             P1LED_ON;
 289              		.loc 1 70 13 is_stmt 0 view .LVU62
 290 00b4 FFF7FEFF 		bl	HAL_GPIO_WritePin
 291              	.LVL17:
  71:Core/Src/koth_game.c ****             P2LED_OFF;
 292              		.loc 1 71 13 is_stmt 1 view .LVU63
 293 00b8 2246     		mov	r2, r4
 294 00ba 0421     		movs	r1, #4
 295 00bc 2846     		mov	r0, r5
 296 00be FFF7FEFF 		bl	HAL_GPIO_WritePin
 297              	.LVL18:
  72:Core/Src/koth_game.c ****             p1King_flag = 1;
 298              		.loc 1 72 13 view .LVU64
  72:Core/Src/koth_game.c ****             p1King_flag = 1;
 299              		.loc 1 72 25 is_stmt 0 view .LVU65
 300 00c2 0A4B     		ldr	r3, .L17+28
 301 00c4 1C70     		strb	r4, [r3]
  73:Core/Src/koth_game.c ****             p2King_flag = 0;
 302              		.loc 1 73 13 is_stmt 1 view .LVU66
  73:Core/Src/koth_game.c ****             p2King_flag = 0;
 303              		.loc 1 73 25 is_stmt 0 view .LVU67
 304 00c6 0A4B     		ldr	r3, .L17+32
 305 00c8 0022     		movs	r2, #0
 306 00ca 1A70     		strb	r2, [r3]
  74:Core/Src/koth_game.c ****             break;
 307              		.loc 1 74 13 is_stmt 1 view .LVU68
 308              	.LBE3:
  79:Core/Src/koth_game.c **** }
 309              		.loc 1 79 1 is_stmt 0 view .LVU69
 310 00cc CDE7     		b	.L8
 311              	.L18:
 312 00ce 00BF     		.align	2
 313              	.L17:
 314 00d0 00000000 		.word	loraRXbuf
 315 00d4 00000000 		.word	myLoRa
 316 00d8 00000000 		.word	packet_size
 317 00dc 00000000 		.word	.LC1
 318 00e0 00000000 		.word	gameState
 319 00e4 00040240 		.word	1073873920
 320 00e8 00000000 		.word	stateChange_flag
 321 00ec 00000000 		.word	p1King_flag
ARM GAS  C:\Users\jdcox\AppData\Local\Temp\ccPIlc66.s 			page 10


 322 00f0 00000000 		.word	p2King_flag
 323              		.cfi_endproc
 324              	.LFE139:
 326              		.section	.text.btnPressed,"ax",%progbits
 327              		.align	1
 328              		.global	btnPressed
 329              		.syntax unified
 330              		.thumb
 331              		.thumb_func
 333              	btnPressed:
 334              	.LFB140:
  82:Core/Src/koth_game.c **** {
 335              		.loc 1 82 1 is_stmt 1 view -0
 336              		.cfi_startproc
 337              		@ args = 0, pretend = 0, frame = 0
 338              		@ frame_needed = 0, uses_anonymous_args = 0
 339 0000 38B5     		push	{r3, r4, r5, lr}
 340              	.LCFI5:
 341              		.cfi_def_cfa_offset 16
 342              		.cfi_offset 3, -16
 343              		.cfi_offset 4, -12
 344              		.cfi_offset 5, -8
 345              		.cfi_offset 14, -4
  83:Core/Src/koth_game.c ****     switch (gameState)
 346              		.loc 1 83 5 view .LVU71
 347 0002 1C4B     		ldr	r3, .L28
 348 0004 1B78     		ldrb	r3, [r3]	@ zero_extendqisi2
 349 0006 042B     		cmp	r3, #4
 350 0008 07D8     		bhi	.L19
 351 000a DFE803F0 		tbb	[pc, r3]
 352              	.L22:
 353 000e 03       		.byte	(.L25-.L22)/2
 354 000f 07       		.byte	(.L24-.L22)/2
 355 0010 1C       		.byte	(.L23-.L22)/2
 356 0011 20       		.byte	(.L21-.L22)/2
 357 0012 20       		.byte	(.L21-.L22)/2
 358 0013 00       		.p2align 1
 359              	.L25:
  87:Core/Src/koth_game.c ****             sendOpcode(START);
 360              		.loc 1 87 13 view .LVU72
 361 0014 0020     		movs	r0, #0
 362 0016 FFF7FEFF 		bl	sendOpcode
 363              	.LVL19:
  88:Core/Src/koth_game.c ****         break;
 364              		.loc 1 88 9 view .LVU73
 365              	.L19:
 118:Core/Src/koth_game.c **** }
 366              		.loc 1 118 1 is_stmt 0 view .LVU74
 367 001a 38BD     		pop	{r3, r4, r5, pc}
 368              	.L24:
  92:Core/Src/koth_game.c ****             stateChange_flag = 1; 
 369              		.loc 1 92 13 is_stmt 1 view .LVU75
  92:Core/Src/koth_game.c ****             stateChange_flag = 1; 
 370              		.loc 1 92 30 is_stmt 0 view .LVU76
 371 001c 0125     		movs	r5, #1
 372 001e 164B     		ldr	r3, .L28+4
 373 0020 1D70     		strb	r5, [r3]
ARM GAS  C:\Users\jdcox\AppData\Local\Temp\ccPIlc66.s 			page 11


  93:Core/Src/koth_game.c ****             gameState = penalty;
 374              		.loc 1 93 13 is_stmt 1 view .LVU77
  93:Core/Src/koth_game.c ****             gameState = penalty;
 375              		.loc 1 93 23 is_stmt 0 view .LVU78
 376 0022 144B     		ldr	r3, .L28
 377 0024 0522     		movs	r2, #5
 378 0026 1A70     		strb	r2, [r3]
  94:Core/Src/koth_game.c ****             P2LED_ON;
 379              		.loc 1 94 13 is_stmt 1 view .LVU79
 380 0028 144C     		ldr	r4, .L28+8
 381 002a 0022     		movs	r2, #0
 382 002c 0421     		movs	r1, #4
 383 002e 2046     		mov	r0, r4
 384 0030 FFF7FEFF 		bl	HAL_GPIO_WritePin
 385              	.LVL20:
  95:Core/Src/koth_game.c ****             P1LED_OFF;
 386              		.loc 1 95 13 view .LVU80
 387 0034 2A46     		mov	r2, r5
 388 0036 0221     		movs	r1, #2
 389 0038 2046     		mov	r0, r4
 390 003a FFF7FEFF 		bl	HAL_GPIO_WritePin
 391              	.LVL21:
  96:Core/Src/koth_game.c ****             sendOpcode(CONFIRM_KING);
 392              		.loc 1 96 13 view .LVU81
 393 003e 0320     		movs	r0, #3
 394 0040 FFF7FEFF 		bl	sendOpcode
 395              	.LVL22:
  97:Core/Src/koth_game.c ****         break;
 396              		.loc 1 97 9 view .LVU82
 397 0044 E9E7     		b	.L19
 398              	.L23:
 101:Core/Src/koth_game.c ****             sendOpcode(CLAIM_KING);
 399              		.loc 1 101 13 view .LVU83
 400 0046 0220     		movs	r0, #2
 401 0048 FFF7FEFF 		bl	sendOpcode
 402              	.LVL23:
 102:Core/Src/koth_game.c ****         break;
 403              		.loc 1 102 9 view .LVU84
 404 004c E5E7     		b	.L19
 405              	.L21:
 106:Core/Src/koth_game.c ****             stateChange_flag = 1; 
 406              		.loc 1 106 13 view .LVU85
 106:Core/Src/koth_game.c ****             stateChange_flag = 1; 
 407              		.loc 1 106 30 is_stmt 0 view .LVU86
 408 004e 0124     		movs	r4, #1
 409 0050 094B     		ldr	r3, .L28+4
 410 0052 1C70     		strb	r4, [r3]
 107:Core/Src/koth_game.c ****             gameState = waiting;
 411              		.loc 1 107 13 is_stmt 1 view .LVU87
 107:Core/Src/koth_game.c ****             gameState = waiting;
 412              		.loc 1 107 23 is_stmt 0 view .LVU88
 413 0054 074B     		ldr	r3, .L28
 414 0056 0022     		movs	r2, #0
 415 0058 1A70     		strb	r2, [r3]
 108:Core/Src/koth_game.c ****             P1LED_OFF;
 416              		.loc 1 108 13 is_stmt 1 view .LVU89
 417 005a 084D     		ldr	r5, .L28+8
ARM GAS  C:\Users\jdcox\AppData\Local\Temp\ccPIlc66.s 			page 12


 418 005c 2246     		mov	r2, r4
 419 005e 0221     		movs	r1, #2
 420 0060 2846     		mov	r0, r5
 421 0062 FFF7FEFF 		bl	HAL_GPIO_WritePin
 422              	.LVL24:
 109:Core/Src/koth_game.c ****             P2LED_OFF;
 423              		.loc 1 109 13 view .LVU90
 424 0066 2246     		mov	r2, r4
 425 0068 0421     		movs	r1, #4
 426 006a 2846     		mov	r0, r5
 427 006c FFF7FEFF 		bl	HAL_GPIO_WritePin
 428              	.LVL25:
 110:Core/Src/koth_game.c ****         break;
 429              		.loc 1 110 9 view .LVU91
 118:Core/Src/koth_game.c **** }
 430              		.loc 1 118 1 is_stmt 0 view .LVU92
 431 0070 D3E7     		b	.L19
 432              	.L29:
 433 0072 00BF     		.align	2
 434              	.L28:
 435 0074 00000000 		.word	gameState
 436 0078 00000000 		.word	stateChange_flag
 437 007c 00040240 		.word	1073873920
 438              		.cfi_endproc
 439              	.LFE140:
 441              		.text
 442              	.Letext0:
 443              		.file 2 "c:\\libraries\\gcc\\11.2 2022.02\\arm-none-eabi\\include\\machine\\_default_types.h"
 444              		.file 3 "c:\\libraries\\gcc\\11.2 2022.02\\arm-none-eabi\\include\\sys\\_stdint.h"
 445              		.file 4 "Drivers/CMSIS/Device/ST/STM32F4xx/Include/stm32f401xc.h"
 446              		.file 5 "c:\\libraries\\gcc\\11.2 2022.02\\lib\\gcc\\arm-none-eabi\\11.2.1\\include\\stddef.h"
 447              		.file 6 "Drivers/CMSIS/Device/ST/STM32F4xx/Include/stm32f4xx.h"
 448              		.file 7 "Drivers/STM32F4xx_HAL_Driver/Inc/stm32f4xx_hal_def.h"
 449              		.file 8 "Drivers/STM32F4xx_HAL_Driver/Inc/stm32f4xx_hal_gpio.h"
 450              		.file 9 "Drivers/STM32F4xx_HAL_Driver/Inc/stm32f4xx_hal_dma.h"
 451              		.file 10 "Drivers/STM32F4xx_HAL_Driver/Inc/stm32f4xx_hal_spi.h"
 452              		.file 11 "Core/Inc/lora.h"
 453              		.file 12 "Core/Inc/extern.h"
 454              		.file 13 "c:\\libraries\\gcc\\11.2 2022.02\\arm-none-eabi\\include\\stdio.h"
 455              		.file 14 "c:\\libraries\\gcc\\11.2 2022.02\\arm-none-eabi\\include\\string.h"
 456              		.file 15 "c:\\libraries\\gcc\\11.2 2022.02\\arm-none-eabi\\include\\stdlib.h"
ARM GAS  C:\Users\jdcox\AppData\Local\Temp\ccPIlc66.s 			page 13


DEFINED SYMBOLS
                            *ABS*:00000000 koth_game.c
C:\Users\jdcox\AppData\Local\Temp\ccPIlc66.s:20     .text.resetGame:00000000 $t
C:\Users\jdcox\AppData\Local\Temp\ccPIlc66.s:26     .text.resetGame:00000000 resetGame
C:\Users\jdcox\AppData\Local\Temp\ccPIlc66.s:57     .text.resetGame:00000014 $d
C:\Users\jdcox\AppData\Local\Temp\ccPIlc66.s:65     .rodata.sendOpcode.str1.4:00000000 $d
C:\Users\jdcox\AppData\Local\Temp\ccPIlc66.s:69     .text.sendOpcode:00000000 $t
C:\Users\jdcox\AppData\Local\Temp\ccPIlc66.s:75     .text.sendOpcode:00000000 sendOpcode
C:\Users\jdcox\AppData\Local\Temp\ccPIlc66.s:106    .text.sendOpcode:00000018 $d
C:\Users\jdcox\AppData\Local\Temp\ccPIlc66.s:112    .rodata.getKOTHPacket.str1.4:00000000 $d
C:\Users\jdcox\AppData\Local\Temp\ccPIlc66.s:116    .text.getKOTHPacket:00000000 $t
C:\Users\jdcox\AppData\Local\Temp\ccPIlc66.s:122    .text.getKOTHPacket:00000000 getKOTHPacket
C:\Users\jdcox\AppData\Local\Temp\ccPIlc66.s:171    .text.getKOTHPacket:00000030 $d
C:\Users\jdcox\AppData\Local\Temp\ccPIlc66.s:175    .text.getKOTHPacket:00000034 $t
C:\Users\jdcox\AppData\Local\Temp\ccPIlc66.s:314    .text.getKOTHPacket:000000d0 $d
C:\Users\jdcox\AppData\Local\Temp\ccPIlc66.s:327    .text.btnPressed:00000000 $t
C:\Users\jdcox\AppData\Local\Temp\ccPIlc66.s:333    .text.btnPressed:00000000 btnPressed
C:\Users\jdcox\AppData\Local\Temp\ccPIlc66.s:353    .text.btnPressed:0000000e $d
C:\Users\jdcox\AppData\Local\Temp\ccPIlc66.s:435    .text.btnPressed:00000074 $d
C:\Users\jdcox\AppData\Local\Temp\ccPIlc66.s:358    .text.btnPressed:00000013 $d
C:\Users\jdcox\AppData\Local\Temp\ccPIlc66.s:358    .text.btnPressed:00000014 $t

UNDEFINED SYMBOLS
p1King_flag
p2King_flag
p1King_counter
gameState
sprintf
opcodeString
LoRa_receive
strstr
strtol
HAL_GPIO_WritePin
loraRXbuf
myLoRa
packet_size
stateChange_flag
