ARM GAS  C:\Users\jdcox\AppData\Local\Temp\ccaN91Zf.s 			page 1


   1              		.cpu cortex-m4
   2              		.arch armv7e-m
   3              		.fpu fpv4-sp-d16
   4              		.eabi_attribute 27, 1
   5              		.eabi_attribute 28, 1
   6              		.eabi_attribute 20, 1
   7              		.eabi_attribute 21, 1
   8              		.eabi_attribute 23, 3
   9              		.eabi_attribute 24, 1
  10              		.eabi_attribute 25, 1
  11              		.eabi_attribute 26, 1
  12              		.eabi_attribute 30, 1
  13              		.eabi_attribute 34, 1
  14              		.eabi_attribute 18, 4
  15              		.file	"koth_game.c"
  16              		.text
  17              	.Ltext0:
  18              		.cfi_sections	.debug_frame
  19              		.section	.text.resetGame,"ax",%progbits
  20              		.align	1
  21              		.global	resetGame
  22              		.syntax unified
  23              		.thumb
  24              		.thumb_func
  26              	resetGame:
  27              	.LFB138:
  28              		.file 1 "Core/Src/koth_game.c"
   1:Core/Src/koth_game.c **** #include "main.h"
   2:Core/Src/koth_game.c **** #include <string.h>
   3:Core/Src/koth_game.c **** #include "define.h"
   4:Core/Src/koth_game.c **** #include "extern.h"
   5:Core/Src/koth_game.c **** #include <stdio.h>
   6:Core/Src/koth_game.c **** #include <stdlib.h>
   7:Core/Src/koth_game.c **** #include "lora.h"
   8:Core/Src/koth_game.c **** #include "ssd1306.h"
   9:Core/Src/koth_game.c **** 
  10:Core/Src/koth_game.c **** 
  11:Core/Src/koth_game.c **** void resetGame()
  12:Core/Src/koth_game.c **** {
  29              		.loc 1 12 1 view -0
  30              		.cfi_startproc
  31              		@ args = 0, pretend = 0, frame = 0
  32              		@ frame_needed = 0, uses_anonymous_args = 0
  33 0000 10B5     		push	{r4, lr}
  34              	.LCFI0:
  35              		.cfi_def_cfa_offset 8
  36              		.cfi_offset 4, -8
  37              		.cfi_offset 14, -4
  13:Core/Src/koth_game.c ****     REDLED_OFF;
  38              		.loc 1 13 5 view .LVU1
  39 0002 0D4C     		ldr	r4, .L3
  40 0004 0122     		movs	r2, #1
  41 0006 0421     		movs	r1, #4
  42 0008 2046     		mov	r0, r4
  43 000a FFF7FEFF 		bl	HAL_GPIO_WritePin
  44              	.LVL0:
  14:Core/Src/koth_game.c ****     BLUELED_OFF;
ARM GAS  C:\Users\jdcox\AppData\Local\Temp\ccaN91Zf.s 			page 2


  45              		.loc 1 14 5 view .LVU2
  46 000e 0122     		movs	r2, #1
  47 0010 0221     		movs	r1, #2
  48 0012 2046     		mov	r0, r4
  49 0014 FFF7FEFF 		bl	HAL_GPIO_WritePin
  50              	.LVL1:
  15:Core/Src/koth_game.c ****     red_flag = 0;
  51              		.loc 1 15 5 view .LVU3
  52              		.loc 1 15 14 is_stmt 0 view .LVU4
  53 0018 0023     		movs	r3, #0
  54 001a 084A     		ldr	r2, .L3+4
  55 001c 1370     		strb	r3, [r2]
  16:Core/Src/koth_game.c ****     blue_flag = 0;
  56              		.loc 1 16 5 is_stmt 1 view .LVU5
  57              		.loc 1 16 15 is_stmt 0 view .LVU6
  58 001e 084A     		ldr	r2, .L3+8
  59 0020 1370     		strb	r3, [r2]
  17:Core/Src/koth_game.c ****     red_counter = 0;
  60              		.loc 1 17 5 is_stmt 1 view .LVU7
  61              		.loc 1 17 17 is_stmt 0 view .LVU8
  62 0022 084A     		ldr	r2, .L3+12
  63 0024 1360     		str	r3, [r2]
  18:Core/Src/koth_game.c ****     blue_counter = 0;
  64              		.loc 1 18 5 is_stmt 1 view .LVU9
  65              		.loc 1 18 18 is_stmt 0 view .LVU10
  66 0026 084A     		ldr	r2, .L3+16
  67 0028 1360     		str	r3, [r2]
  19:Core/Src/koth_game.c ****     gameState = WAITING;
  68              		.loc 1 19 5 is_stmt 1 view .LVU11
  69              		.loc 1 19 15 is_stmt 0 view .LVU12
  70 002a 084B     		ldr	r3, .L3+20
  71 002c 0822     		movs	r2, #8
  72 002e 1A70     		strb	r2, [r3]
  20:Core/Src/koth_game.c ****     stateChange_flag = 1;
  73              		.loc 1 20 5 is_stmt 1 view .LVU13
  74              		.loc 1 20 22 is_stmt 0 view .LVU14
  75 0030 074B     		ldr	r3, .L3+24
  76 0032 0122     		movs	r2, #1
  77 0034 1A70     		strb	r2, [r3]
  21:Core/Src/koth_game.c **** 
  22:Core/Src/koth_game.c **** }
  78              		.loc 1 22 1 view .LVU15
  79 0036 10BD     		pop	{r4, pc}
  80              	.L4:
  81              		.align	2
  82              	.L3:
  83 0038 00040240 		.word	1073873920
  84 003c 00000000 		.word	red_flag
  85 0040 00000000 		.word	blue_flag
  86 0044 00000000 		.word	red_counter
  87 0048 00000000 		.word	blue_counter
  88 004c 00000000 		.word	gameState
  89 0050 00000000 		.word	stateChange_flag
  90              		.cfi_endproc
  91              	.LFE138:
  93              		.section	.rodata.decodeKOTHPacket.str1.4,"aMS",%progbits,1
  94              		.align	2
ARM GAS  C:\Users\jdcox\AppData\Local\Temp\ccaN91Zf.s 			page 3


  95              	.LC0:
  96 0000 4B4F5448 		.ascii	"KOTH\000"
  96      00
  97              		.section	.text.decodeKOTHPacket,"ax",%progbits
  98              		.align	1
  99              		.global	decodeKOTHPacket
 100              		.syntax unified
 101              		.thumb
 102              		.thumb_func
 104              	decodeKOTHPacket:
 105              	.LFB140:
  23:Core/Src/koth_game.c **** 
  24:Core/Src/koth_game.c **** void doGameState()
  25:Core/Src/koth_game.c **** {
  26:Core/Src/koth_game.c ****     // New opcode rx
  27:Core/Src/koth_game.c ****     if(newRX_flag)
  28:Core/Src/koth_game.c ****     {
  29:Core/Src/koth_game.c **** 
  30:Core/Src/koth_game.c ****         switch (loraRXopcode)
  31:Core/Src/koth_game.c ****             {
  32:Core/Src/koth_game.c **** 
  33:Core/Src/koth_game.c ****                 case goSTART: // other player started game
  34:Core/Src/koth_game.c ****                     if(THIS_PLAYER == RED) 
  35:Core/Src/koth_game.c ****                     {
  36:Core/Src/koth_game.c ****                         gameState = goBLUE;
  37:Core/Src/koth_game.c ****                     }
  38:Core/Src/koth_game.c ****                     else 
  39:Core/Src/koth_game.c ****                     {
  40:Core/Src/koth_game.c ****                         gameState = goRED;
  41:Core/Src/koth_game.c ****                     }
  42:Core/Src/koth_game.c ****                     stateChange_flag = 1; 
  43:Core/Src/koth_game.c ****                 break;
  44:Core/Src/koth_game.c **** 
  45:Core/Src/koth_game.c ****                 case goBLUE: 
  46:Core/Src/koth_game.c ****                     gameState = BLUE;
  47:Core/Src/koth_game.c ****                     stateChange_flag = 1; 
  48:Core/Src/koth_game.c ****                 break; 
  49:Core/Src/koth_game.c ****                 
  50:Core/Src/koth_game.c ****                 case goRED:
  51:Core/Src/koth_game.c ****                     gameState = RED;
  52:Core/Src/koth_game.c ****                     stateChange_flag = 1; 
  53:Core/Src/koth_game.c ****                 break; 
  54:Core/Src/koth_game.c **** 
  55:Core/Src/koth_game.c ****                 case RED:
  56:Core/Src/koth_game.c ****                 case BLUE:
  57:Core/Src/koth_game.c ****                     gameState = loraRXopcode;
  58:Core/Src/koth_game.c ****                     stateChange_flag = 0; 
  59:Core/Src/koth_game.c ****                 break;
  60:Core/Src/koth_game.c **** 
  61:Core/Src/koth_game.c **** 
  62:Core/Src/koth_game.c ****                 case REDWINS:
  63:Core/Src/koth_game.c ****                 case BLUEWINS:
  64:Core/Src/koth_game.c ****                     gameState = loraRXopcode;
  65:Core/Src/koth_game.c ****                     stateChange_flag = 1; 
  66:Core/Src/koth_game.c ****                 
  67:Core/Src/koth_game.c ****                 break;
  68:Core/Src/koth_game.c ****                 
ARM GAS  C:\Users\jdcox\AppData\Local\Temp\ccaN91Zf.s 			page 4


  69:Core/Src/koth_game.c ****         }
  70:Core/Src/koth_game.c **** 
  71:Core/Src/koth_game.c ****         newRX_flag = 0;
  72:Core/Src/koth_game.c ****     }
  73:Core/Src/koth_game.c ****     
  74:Core/Src/koth_game.c ****     switch (gameState)
  75:Core/Src/koth_game.c ****     {
  76:Core/Src/koth_game.c ****         case WAITING:
  77:Core/Src/koth_game.c ****             if(stateChange_flag) // do once
  78:Core/Src/koth_game.c ****             { 
  79:Core/Src/koth_game.c ****                 stateChange_flag = 0;
  80:Core/Src/koth_game.c ****                 ssd1306_Fill(0); 
  81:Core/Src/koth_game.c ****                 ssd1306_SetCursor(0,0);
  82:Core/Src/koth_game.c ****                 if (THIS_PLAYER == RED) 
  83:Core/Src/koth_game.c ****                 { 
  84:Core/Src/koth_game.c ****                     ssd1306_WriteString("RED",Font_11x18,1);
  85:Core/Src/koth_game.c ****                 }
  86:Core/Src/koth_game.c ****                 else    
  87:Core/Src/koth_game.c ****                 {
  88:Core/Src/koth_game.c ****                     ssd1306_WriteString("BLUE",Font_11x18,1);
  89:Core/Src/koth_game.c ****                 }
  90:Core/Src/koth_game.c ****                 ssd1306_SetCursor(25,21);
  91:Core/Src/koth_game.c ****                 ssd1306_WriteString("Push to play!",Font_7x10,1);
  92:Core/Src/koth_game.c ****                 ssd1306_UpdateScreen();
  93:Core/Src/koth_game.c ****             }
  94:Core/Src/koth_game.c ****         break;
  95:Core/Src/koth_game.c **** 
  96:Core/Src/koth_game.c **** 
  97:Core/Src/koth_game.c ****         case goSTART:
  98:Core/Src/koth_game.c ****         case goRED:
  99:Core/Src/koth_game.c ****         case goBLUE:
 100:Core/Src/koth_game.c **** 
 101:Core/Src/koth_game.c ****             // Limbo state, don't increment stuff until other player syncs
 102:Core/Src/koth_game.c ****             stateChange_flag = 0;
 103:Core/Src/koth_game.c ****             red_flag = 0;
 104:Core/Src/koth_game.c ****             blue_flag = 0;
 105:Core/Src/koth_game.c **** 
 106:Core/Src/koth_game.c ****             setOpcode(gameState);
 107:Core/Src/koth_game.c ****             newTX_flag = 1;
 108:Core/Src/koth_game.c **** 
 109:Core/Src/koth_game.c ****             osDelay(100);
 110:Core/Src/koth_game.c **** 
 111:Core/Src/koth_game.c ****         break;
 112:Core/Src/koth_game.c **** 
 113:Core/Src/koth_game.c **** 
 114:Core/Src/koth_game.c ****         case RED:
 115:Core/Src/koth_game.c ****             if(stateChange_flag)
 116:Core/Src/koth_game.c ****             {
 117:Core/Src/koth_game.c ****                 setOpcode(RED);
 118:Core/Src/koth_game.c ****                 newTX_flag = 1;
 119:Core/Src/koth_game.c ****                 stateChange_flag = 0;
 120:Core/Src/koth_game.c ****                 red_flag = 1;
 121:Core/Src/koth_game.c ****                 blue_flag = 0;
 122:Core/Src/koth_game.c ****                 REDLED_ON;
 123:Core/Src/koth_game.c ****                 BLUELED_OFF;
 124:Core/Src/koth_game.c ****                 ssd1306_Fill(0);
 125:Core/Src/koth_game.c ****                 ssd1306_SetCursor(0,0);
ARM GAS  C:\Users\jdcox\AppData\Local\Temp\ccaN91Zf.s 			page 5


 126:Core/Src/koth_game.c ****                 ssd1306_WriteString("RED is king",Font_7x10,1);
 127:Core/Src/koth_game.c ****                 ssd1306_SetCursor(0,10);
 128:Core/Src/koth_game.c ****                 ssd1306_WriteString("of the hill!",Font_7x10,1);
 129:Core/Src/koth_game.c ****                 ssd1306_UpdateScreen();
 130:Core/Src/koth_game.c ****                 
 131:Core/Src/koth_game.c ****             }
 132:Core/Src/koth_game.c **** 
 133:Core/Src/koth_game.c **** 
 134:Core/Src/koth_game.c ****         break;
 135:Core/Src/koth_game.c **** 
 136:Core/Src/koth_game.c ****         case BLUE:
 137:Core/Src/koth_game.c ****             if(stateChange_flag)
 138:Core/Src/koth_game.c ****             {
 139:Core/Src/koth_game.c ****                 setOpcode(BLUE);
 140:Core/Src/koth_game.c ****                 newTX_flag = 1;
 141:Core/Src/koth_game.c ****                 stateChange_flag = 0;
 142:Core/Src/koth_game.c ****                 red_flag = 0;
 143:Core/Src/koth_game.c ****                 blue_flag = 1;
 144:Core/Src/koth_game.c ****                 REDLED_OFF;
 145:Core/Src/koth_game.c ****                 BLUELED_ON;
 146:Core/Src/koth_game.c ****                 ssd1306_Fill(0);
 147:Core/Src/koth_game.c ****                 ssd1306_SetCursor(0,0);
 148:Core/Src/koth_game.c ****                 ssd1306_WriteString("BLUE is king",Font_7x10,1);
 149:Core/Src/koth_game.c ****                 ssd1306_SetCursor(0,10);
 150:Core/Src/koth_game.c ****                 ssd1306_WriteString("of the hill!",Font_7x10,1);
 151:Core/Src/koth_game.c ****                 ssd1306_UpdateScreen();
 152:Core/Src/koth_game.c ****             }
 153:Core/Src/koth_game.c ****         break;
 154:Core/Src/koth_game.c **** 
 155:Core/Src/koth_game.c ****         case REDWINS:
 156:Core/Src/koth_game.c ****             if(stateChange_flag)
 157:Core/Src/koth_game.c ****             {
 158:Core/Src/koth_game.c ****                 setOpcode(REDWINS);
 159:Core/Src/koth_game.c ****                 newTX_flag = 1;
 160:Core/Src/koth_game.c ****                 stateChange_flag = 0;
 161:Core/Src/koth_game.c ****                 REDLED_ON;
 162:Core/Src/koth_game.c ****                 BLUELED_OFF;
 163:Core/Src/koth_game.c ****                 ssd1306_Fill(0);
 164:Core/Src/koth_game.c ****                 ssd1306_SetCursor(0,0);
 165:Core/Src/koth_game.c ****                 ssd1306_WriteString("Red wins!",Font_7x10,1);
 166:Core/Src/koth_game.c ****                 char score [16];
 167:Core/Src/koth_game.c ****                 uint16_t difference = red_counter - blue_counter;
 168:Core/Src/koth_game.c ****                 sprintf(score, "Won by %ums", difference);
 169:Core/Src/koth_game.c ****                 lcd_put_cur(1,0);
 170:Core/Src/koth_game.c ****                 ssd1306_WriteString(score,Font_7x10,1);
 171:Core/Src/koth_game.c ****                 ssd1306_UpdateScreen();
 172:Core/Src/koth_game.c ****             }
 173:Core/Src/koth_game.c ****         break;
 174:Core/Src/koth_game.c **** 
 175:Core/Src/koth_game.c ****         case BLUEWINS:
 176:Core/Src/koth_game.c ****             if(stateChange_flag)
 177:Core/Src/koth_game.c ****             {
 178:Core/Src/koth_game.c ****                 setOpcode(BLUEWINS);
 179:Core/Src/koth_game.c ****                 newTX_flag = 1;
 180:Core/Src/koth_game.c ****                 stateChange_flag = 0;
 181:Core/Src/koth_game.c ****                 REDLED_OFF;
 182:Core/Src/koth_game.c ****                 BLUELED_ON;
ARM GAS  C:\Users\jdcox\AppData\Local\Temp\ccaN91Zf.s 			page 6


 183:Core/Src/koth_game.c ****                 ssd1306_Fill(0);
 184:Core/Src/koth_game.c ****                 ssd1306_SetCursor(0,0);
 185:Core/Src/koth_game.c ****                 ssd1306_WriteString("Blue wins!",Font_7x10,1);
 186:Core/Src/koth_game.c ****                 char score [16];
 187:Core/Src/koth_game.c ****                 uint16_t difference = blue_counter - red_counter;
 188:Core/Src/koth_game.c ****                 sprintf(score, "Won by %ums", difference);
 189:Core/Src/koth_game.c ****                 lcd_put_cur(1,0);
 190:Core/Src/koth_game.c ****                 ssd1306_WriteString(score,Font_7x10,1);
 191:Core/Src/koth_game.c ****                 ssd1306_UpdateScreen();
 192:Core/Src/koth_game.c ****             }
 193:Core/Src/koth_game.c ****         break;
 194:Core/Src/koth_game.c **** 
 195:Core/Src/koth_game.c **** /*
 196:Core/Src/koth_game.c ****             case penalty:
 197:Core/Src/koth_game.c ****             if(stateChange_flag)
 198:Core/Src/koth_game.c ****             {
 199:Core/Src/koth_game.c ****             stateChange_flag = 0;
 200:Core/Src/koth_game.c ****             REDLED_OFF;
 201:Core/Src/koth_game.c ****             ssd1306_Fill(0); 
 202:Core/Src/koth_game.c ****             ssd1306_SetCursor(0,0);
 203:Core/Src/koth_game.c ****             ssd1306_WriteString("Penalty!",Font_7x10,1);
 204:Core/Src/koth_game.c ****             ssd1306_UpdateScreen();
 205:Core/Src/koth_game.c ****             }
 206:Core/Src/koth_game.c **** 
 207:Core/Src/koth_game.c ****         break;
 208:Core/Src/koth_game.c **** */
 209:Core/Src/koth_game.c ****       
 210:Core/Src/koth_game.c ****     }
 211:Core/Src/koth_game.c **** }
 212:Core/Src/koth_game.c **** 
 213:Core/Src/koth_game.c **** void decodeKOTHPacket()
 214:Core/Src/koth_game.c **** {
 106              		.loc 1 214 1 is_stmt 1 view -0
 107              		.cfi_startproc
 108              		@ args = 0, pretend = 0, frame = 40
 109              		@ frame_needed = 0, uses_anonymous_args = 0
 110 0000 00B5     		push	{lr}
 111              	.LCFI1:
 112              		.cfi_def_cfa_offset 4
 113              		.cfi_offset 14, -4
 114 0002 8BB0     		sub	sp, sp, #44
 115              	.LCFI2:
 116              		.cfi_def_cfa_offset 48
 215:Core/Src/koth_game.c **** 
 216:Core/Src/koth_game.c ****     // Parse the data
 217:Core/Src/koth_game.c ****     if(strstr((char*)receivedPacket, "KOTH"))
 117              		.loc 1 217 5 view .LVU17
 118              		.loc 1 217 8 is_stmt 0 view .LVU18
 119 0004 0C49     		ldr	r1, .L9
 120 0006 0D48     		ldr	r0, .L9+4
 121 0008 FFF7FEFF 		bl	strstr
 122              	.LVL2:
 123              		.loc 1 217 7 view .LVU19
 124 000c 80B1     		cbz	r0, .L5
 125              	.LBB2:
 218:Core/Src/koth_game.c ****     {
 219:Core/Src/koth_game.c ****         long opcodeRX;
ARM GAS  C:\Users\jdcox\AppData\Local\Temp\ccaN91Zf.s 			page 7


 126              		.loc 1 219 9 is_stmt 1 view .LVU20
 220:Core/Src/koth_game.c ****         char * trashCatcher[10]; 
 127              		.loc 1 220 9 view .LVU21
 221:Core/Src/koth_game.c ****         
 222:Core/Src/koth_game.c ****         opcodeRX = strtol((char*)receivedPacket, trashCatcher,10);
 128              		.loc 1 222 9 view .LVU22
 129              		.loc 1 222 20 is_stmt 0 view .LVU23
 130 000e 0A22     		movs	r2, #10
 131 0010 6946     		mov	r1, sp
 132 0012 0A48     		ldr	r0, .L9+4
 133 0014 FFF7FEFF 		bl	strtol
 134              	.LVL3:
 223:Core/Src/koth_game.c **** 
 224:Core/Src/koth_game.c ****         // process
 225:Core/Src/koth_game.c ****         if(gameState != opcodeRX) 
 135              		.loc 1 225 9 is_stmt 1 view .LVU24
 136              		.loc 1 225 22 is_stmt 0 view .LVU25
 137 0018 094B     		ldr	r3, .L9+8
 138 001a 1B78     		ldrb	r3, [r3]	@ zero_extendqisi2
 139              		.loc 1 225 11 view .LVU26
 140 001c 8342     		cmp	r3, r0
 141 001e 07D0     		beq	.L5
 226:Core/Src/koth_game.c ****         {
 227:Core/Src/koth_game.c ****             loraRXopcode = opcodeRX;
 142              		.loc 1 227 13 is_stmt 1 view .LVU27
 143              		.loc 1 227 26 is_stmt 0 view .LVU28
 144 0020 C0B2     		uxtb	r0, r0
 145              	.LVL4:
 146              		.loc 1 227 26 view .LVU29
 147 0022 084B     		ldr	r3, .L9+12
 148 0024 1870     		strb	r0, [r3]
 228:Core/Src/koth_game.c ****             gameState = opcodeRX;
 149              		.loc 1 228 13 is_stmt 1 view .LVU30
 150              		.loc 1 228 23 is_stmt 0 view .LVU31
 151 0026 064B     		ldr	r3, .L9+8
 152 0028 1870     		strb	r0, [r3]
 229:Core/Src/koth_game.c ****             stateChange_flag = 1;
 153              		.loc 1 229 13 is_stmt 1 view .LVU32
 154              		.loc 1 229 30 is_stmt 0 view .LVU33
 155 002a 074B     		ldr	r3, .L9+16
 156 002c 0122     		movs	r2, #1
 157 002e 1A70     		strb	r2, [r3]
 158              	.L5:
 159              		.loc 1 229 30 view .LVU34
 160              	.LBE2:
 230:Core/Src/koth_game.c ****         }
 231:Core/Src/koth_game.c **** 
 232:Core/Src/koth_game.c ****     }
 233:Core/Src/koth_game.c ****         
 234:Core/Src/koth_game.c **** }
 161              		.loc 1 234 1 view .LVU35
 162 0030 0BB0     		add	sp, sp, #44
 163              	.LCFI3:
 164              		.cfi_def_cfa_offset 4
 165              		@ sp needed
 166 0032 5DF804FB 		ldr	pc, [sp], #4
 167              	.L10:
ARM GAS  C:\Users\jdcox\AppData\Local\Temp\ccaN91Zf.s 			page 8


 168 0036 00BF     		.align	2
 169              	.L9:
 170 0038 00000000 		.word	.LC0
 171 003c 00000000 		.word	receivedPacket
 172 0040 00000000 		.word	gameState
 173 0044 00000000 		.word	loraRXopcode
 174 0048 00000000 		.word	stateChange_flag
 175              		.cfi_endproc
 176              	.LFE140:
 178              		.section	.text.btnPressed,"ax",%progbits
 179              		.align	1
 180              		.global	btnPressed
 181              		.syntax unified
 182              		.thumb
 183              		.thumb_func
 185              	btnPressed:
 186              	.LFB141:
 235:Core/Src/koth_game.c **** 
 236:Core/Src/koth_game.c **** void btnPressed()
 237:Core/Src/koth_game.c **** {
 187              		.loc 1 237 1 is_stmt 1 view -0
 188              		.cfi_startproc
 189              		@ args = 0, pretend = 0, frame = 0
 190              		@ frame_needed = 0, uses_anonymous_args = 0
 191              		@ link register save eliminated.
 238:Core/Src/koth_game.c ****     switch (gameState)
 192              		.loc 1 238 5 view .LVU37
 193 0000 124B     		ldr	r3, .L20
 194 0002 1A78     		ldrb	r2, [r3]	@ zero_extendqisi2
 195 0004 931E     		subs	r3, r2, #2
 196 0006 062B     		cmp	r3, #6
 197 0008 1ED8     		bhi	.L11
 198 000a DFE803F0 		tbb	[pc, r3]
 199              	.L14:
 200 000e 0A       		.byte	(.L16-.L14)/2
 201 000f 1D       		.byte	(.L11-.L14)/2
 202 0010 0A       		.byte	(.L16-.L14)/2
 203 0011 1D       		.byte	(.L11-.L14)/2
 204 0012 17       		.byte	(.L15-.L14)/2
 205 0013 17       		.byte	(.L15-.L14)/2
 206 0014 04       		.byte	(.L13-.L14)/2
 207 0015 00       		.p2align 1
 208              	.L13:
 239:Core/Src/koth_game.c ****     {
 240:Core/Src/koth_game.c ****         case WAITING:
 241:Core/Src/koth_game.c ****             stateChange_flag = 1; 
 209              		.loc 1 241 13 view .LVU38
 210              		.loc 1 241 30 is_stmt 0 view .LVU39
 211 0016 0123     		movs	r3, #1
 212 0018 0D4A     		ldr	r2, .L20+4
 213 001a 1370     		strb	r3, [r2]
 242:Core/Src/koth_game.c ****             gameState = goSTART;    
 214              		.loc 1 242 13 is_stmt 1 view .LVU40
 215              		.loc 1 242 23 is_stmt 0 view .LVU41
 216 001c 0B4A     		ldr	r2, .L20
 217 001e 1370     		strb	r3, [r2]
 243:Core/Src/koth_game.c ****             
ARM GAS  C:\Users\jdcox\AppData\Local\Temp\ccaN91Zf.s 			page 9


 244:Core/Src/koth_game.c ****         break;
 218              		.loc 1 244 9 is_stmt 1 view .LVU42
 219 0020 7047     		bx	lr
 220              	.L16:
 245:Core/Src/koth_game.c ****         
 246:Core/Src/koth_game.c ****         case RED:
 247:Core/Src/koth_game.c ****         case BLUE:
 248:Core/Src/koth_game.c **** 
 249:Core/Src/koth_game.c ****             stateChange_flag = 1; 
 221              		.loc 1 249 13 view .LVU43
 222              		.loc 1 249 30 is_stmt 0 view .LVU44
 223 0022 0B4B     		ldr	r3, .L20+4
 224 0024 0121     		movs	r1, #1
 225 0026 1970     		strb	r1, [r3]
 250:Core/Src/koth_game.c ****             
 251:Core/Src/koth_game.c ****             if(THIS_PLAYER == gameState) // oops! button masher penalty!
 226              		.loc 1 251 13 is_stmt 1 view .LVU45
 227              		.loc 1 251 15 is_stmt 0 view .LVU46
 228 0028 042A     		cmp	r2, #4
 229 002a 03D0     		beq	.L19
 252:Core/Src/koth_game.c ****             {
 253:Core/Src/koth_game.c ****                 if(THIS_PLAYER == RED) 
 254:Core/Src/koth_game.c ****                 {
 255:Core/Src/koth_game.c ****                     gameState = goBLUE;
 256:Core/Src/koth_game.c ****                 }
 257:Core/Src/koth_game.c ****                 else 
 258:Core/Src/koth_game.c ****                 {
 259:Core/Src/koth_game.c ****                     gameState = goRED;
 260:Core/Src/koth_game.c ****                 }
 261:Core/Src/koth_game.c **** 
 262:Core/Src/koth_game.c ****                 // TBD: disable button for a bit, penalty
 263:Core/Src/koth_game.c ****             }
 264:Core/Src/koth_game.c ****             
 265:Core/Src/koth_game.c ****             else // Took the hill!
 266:Core/Src/koth_game.c ****             {
 267:Core/Src/koth_game.c ****                 if(THIS_PLAYER == RED) 
 230              		.loc 1 267 17 is_stmt 1 view .LVU47
 268:Core/Src/koth_game.c ****                 {
 269:Core/Src/koth_game.c ****                     gameState = goRED;
 270:Core/Src/koth_game.c ****                 }
 271:Core/Src/koth_game.c ****                 else 
 272:Core/Src/koth_game.c ****                 {
 273:Core/Src/koth_game.c ****                     gameState = goBLUE;
 231              		.loc 1 273 21 view .LVU48
 232              		.loc 1 273 31 is_stmt 0 view .LVU49
 233 002c 074B     		ldr	r3, .L20
 234 002e 0522     		movs	r2, #5
 235 0030 1A70     		strb	r2, [r3]
 236 0032 7047     		bx	lr
 237              	.L19:
 253:Core/Src/koth_game.c ****                 {
 238              		.loc 1 253 17 is_stmt 1 view .LVU50
 259:Core/Src/koth_game.c ****                 }
 239              		.loc 1 259 21 view .LVU51
 259:Core/Src/koth_game.c ****                 }
 240              		.loc 1 259 31 is_stmt 0 view .LVU52
 241 0034 054B     		ldr	r3, .L20
ARM GAS  C:\Users\jdcox\AppData\Local\Temp\ccaN91Zf.s 			page 10


 242 0036 0322     		movs	r2, #3
 243 0038 1A70     		strb	r2, [r3]
 244 003a 7047     		bx	lr
 245              	.L15:
 274:Core/Src/koth_game.c ****                 }
 275:Core/Src/koth_game.c ****                 
 276:Core/Src/koth_game.c ****             }
 277:Core/Src/koth_game.c **** 
 278:Core/Src/koth_game.c ****         break;
 279:Core/Src/koth_game.c **** 
 280:Core/Src/koth_game.c ****         
 281:Core/Src/koth_game.c ****         case REDWINS:
 282:Core/Src/koth_game.c ****         case BLUEWINS:
 283:Core/Src/koth_game.c ****             stateChange_flag = 1; 
 246              		.loc 1 283 13 is_stmt 1 view .LVU53
 247              		.loc 1 283 30 is_stmt 0 view .LVU54
 248 003c 044B     		ldr	r3, .L20+4
 249 003e 0122     		movs	r2, #1
 250 0040 1A70     		strb	r2, [r3]
 284:Core/Src/koth_game.c ****             gameState = WAITING;
 251              		.loc 1 284 13 is_stmt 1 view .LVU55
 252              		.loc 1 284 23 is_stmt 0 view .LVU56
 253 0042 024B     		ldr	r3, .L20
 254 0044 0822     		movs	r2, #8
 255 0046 1A70     		strb	r2, [r3]
 285:Core/Src/koth_game.c ****             
 286:Core/Src/koth_game.c ****         break;
 256              		.loc 1 286 9 is_stmt 1 view .LVU57
 257              	.L11:
 287:Core/Src/koth_game.c **** 
 288:Core/Src/koth_game.c ****     }
 289:Core/Src/koth_game.c **** 
 290:Core/Src/koth_game.c **** 
 291:Core/Src/koth_game.c **** }
 258              		.loc 1 291 1 is_stmt 0 view .LVU58
 259 0048 7047     		bx	lr
 260              	.L21:
 261 004a 00BF     		.align	2
 262              	.L20:
 263 004c 00000000 		.word	gameState
 264 0050 00000000 		.word	stateChange_flag
 265              		.cfi_endproc
 266              	.LFE141:
 268              		.section	.rodata.setOpcode.str1.4,"aMS",%progbits,1
 269              		.align	2
 270              	.LC1:
 271 0000 25754B4F 		.ascii	"%uKOTH\000"
 271      544800
 272              		.section	.text.setOpcode,"ax",%progbits
 273              		.align	1
 274              		.global	setOpcode
 275              		.syntax unified
 276              		.thumb
 277              		.thumb_func
 279              	setOpcode:
 280              	.LVL5:
 281              	.LFB142:
ARM GAS  C:\Users\jdcox\AppData\Local\Temp\ccaN91Zf.s 			page 11


 292:Core/Src/koth_game.c **** 
 293:Core/Src/koth_game.c **** void setOpcode(uint8_t opcodeTX)
 294:Core/Src/koth_game.c **** {
 282              		.loc 1 294 1 is_stmt 1 view -0
 283              		.cfi_startproc
 284              		@ args = 0, pretend = 0, frame = 0
 285              		@ frame_needed = 0, uses_anonymous_args = 0
 286              		.loc 1 294 1 is_stmt 0 view .LVU60
 287 0000 10B5     		push	{r4, lr}
 288              	.LCFI4:
 289              		.cfi_def_cfa_offset 8
 290              		.cfi_offset 4, -8
 291              		.cfi_offset 14, -4
 292 0002 0446     		mov	r4, r0
 295:Core/Src/koth_game.c ****     memset(opcodeString, 0, sizeof(opcodeString));
 293              		.loc 1 295 5 is_stmt 1 view .LVU61
 294 0004 0748     		ldr	r0, .L24
 295              	.LVL6:
 296              		.loc 1 295 5 is_stmt 0 view .LVU62
 297 0006 0023     		movs	r3, #0
 298 0008 0360     		str	r3, [r0]	@ unaligned
 299 000a 4360     		str	r3, [r0, #4]	@ unaligned
 300 000c 0381     		strh	r3, [r0, #8]	@ unaligned
 296:Core/Src/koth_game.c **** 
 297:Core/Src/koth_game.c ****     // Create encoded string
 298:Core/Src/koth_game.c ****     sprintf(opcodeString, "%uKOTH", opcodeTX);
 301              		.loc 1 298 5 is_stmt 1 view .LVU63
 302 000e 2246     		mov	r2, r4
 303 0010 0549     		ldr	r1, .L24+4
 304 0012 FFF7FEFF 		bl	sprintf
 305              	.LVL7:
 299:Core/Src/koth_game.c **** 
 300:Core/Src/koth_game.c ****     // Wait for LoRa availability
 301:Core/Src/koth_game.c ****     //xSemaphoreTake(xloraMutex, portMAX_DELAY);
 302:Core/Src/koth_game.c **** 
 303:Core/Src/koth_game.c ****     memcpy(txReadable, &gameStateNames[opcodeTX], sizeof(&gameStateNames[opcodeTX]));
 306              		.loc 1 303 5 view .LVU64
 307 0016 054B     		ldr	r3, .L24+8
 308 0018 1B68     		ldr	r3, [r3]
 309 001a 1A59     		ldr	r2, [r3, r4]	@ unaligned
 310 001c 044B     		ldr	r3, .L24+12
 311 001e 1A60     		str	r2, [r3]	@ unaligned
 304:Core/Src/koth_game.c **** 
 305:Core/Src/koth_game.c ****     // Send it via LoRa
 306:Core/Src/koth_game.c ****     // LoRa_transmit(&myLoRa, (uint8_t*)opcodeString, 10, 100);
 307:Core/Src/koth_game.c **** 
 308:Core/Src/koth_game.c ****     // LoRa_startReceiving(&myLoRa);
 309:Core/Src/koth_game.c **** 
 310:Core/Src/koth_game.c ****     // Release LoRa availability
 311:Core/Src/koth_game.c ****     //xSemaphoreGive(xloraMutex);
 312:Core/Src/koth_game.c ****     // osMutexRelease(lora_mutexHandle);
 313:Core/Src/koth_game.c **** 
 314:Core/Src/koth_game.c ****   
 315:Core/Src/koth_game.c **** }
 312              		.loc 1 315 1 is_stmt 0 view .LVU65
 313 0020 10BD     		pop	{r4, pc}
 314              	.L25:
ARM GAS  C:\Users\jdcox\AppData\Local\Temp\ccaN91Zf.s 			page 12


 315 0022 00BF     		.align	2
 316              	.L24:
 317 0024 00000000 		.word	opcodeString
 318 0028 00000000 		.word	.LC1
 319 002c 00000000 		.word	gameStateNames
 320 0030 00000000 		.word	txReadable
 321              		.cfi_endproc
 322              	.LFE142:
 324              		.section	.rodata.doGameState.str1.4,"aMS",%progbits,1
 325              		.align	2
 326              	.LC2:
 327 0000 424C5545 		.ascii	"BLUE\000"
 327      00
 328 0005 000000   		.align	2
 329              	.LC3:
 330 0008 50757368 		.ascii	"Push to play!\000"
 330      20746F20 
 330      706C6179 
 330      2100
 331 0016 0000     		.align	2
 332              	.LC4:
 333 0018 52454420 		.ascii	"RED is king\000"
 333      6973206B 
 333      696E6700 
 334              		.align	2
 335              	.LC5:
 336 0024 6F662074 		.ascii	"of the hill!\000"
 336      68652068 
 336      696C6C21 
 336      00
 337 0031 000000   		.align	2
 338              	.LC6:
 339 0034 424C5545 		.ascii	"BLUE is king\000"
 339      20697320 
 339      6B696E67 
 339      00
 340 0041 000000   		.align	2
 341              	.LC7:
 342 0044 52656420 		.ascii	"Red wins!\000"
 342      77696E73 
 342      2100
 343 004e 0000     		.align	2
 344              	.LC8:
 345 0050 576F6E20 		.ascii	"Won by %ums\000"
 345      62792025 
 345      756D7300 
 346              		.align	2
 347              	.LC9:
 348 005c 426C7565 		.ascii	"Blue wins!\000"
 348      2077696E 
 348      732100
 349              		.section	.text.doGameState,"ax",%progbits
 350              		.align	1
 351              		.global	doGameState
 352              		.syntax unified
 353              		.thumb
 354              		.thumb_func
ARM GAS  C:\Users\jdcox\AppData\Local\Temp\ccaN91Zf.s 			page 13


 356              	doGameState:
 357              	.LFB139:
  25:Core/Src/koth_game.c ****     // New opcode rx
 358              		.loc 1 25 1 is_stmt 1 view -0
 359              		.cfi_startproc
 360              		@ args = 0, pretend = 0, frame = 16
 361              		@ frame_needed = 0, uses_anonymous_args = 0
 362 0000 70B5     		push	{r4, r5, r6, lr}
 363              	.LCFI5:
 364              		.cfi_def_cfa_offset 16
 365              		.cfi_offset 4, -16
 366              		.cfi_offset 5, -12
 367              		.cfi_offset 6, -8
 368              		.cfi_offset 14, -4
 369 0002 84B0     		sub	sp, sp, #16
 370              	.LCFI6:
 371              		.cfi_def_cfa_offset 32
  27:Core/Src/koth_game.c ****     {
 372              		.loc 1 27 5 view .LVU67
  27:Core/Src/koth_game.c ****     {
 373              		.loc 1 27 8 is_stmt 0 view .LVU68
 374 0004 AC4B     		ldr	r3, .L46
 375 0006 1B78     		ldrb	r3, [r3]	@ zero_extendqisi2
  27:Core/Src/koth_game.c ****     {
 376              		.loc 1 27 7 view .LVU69
 377 0008 9BB1     		cbz	r3, .L27
  30:Core/Src/koth_game.c ****             {
 378              		.loc 1 30 9 is_stmt 1 view .LVU70
 379 000a AC4B     		ldr	r3, .L46+4
 380 000c 1A78     		ldrb	r2, [r3]	@ zero_extendqisi2
 381 000e 531E     		subs	r3, r2, #1
 382 0010 062B     		cmp	r3, #6
 383 0012 0BD8     		bhi	.L28
 384 0014 DFE803F0 		tbb	[pc, r3]
 385              	.L30:
 386 0018 04       		.byte	(.L34-.L30)/2
 387 0019 2A       		.byte	(.L32-.L30)/2
 388 001a 23       		.byte	(.L33-.L30)/2
 389 001b 2A       		.byte	(.L32-.L30)/2
 390 001c 1C       		.byte	(.L31-.L30)/2
 391 001d 30       		.byte	(.L29-.L30)/2
 392 001e 30       		.byte	(.L29-.L30)/2
 393 001f 00       		.p2align 1
 394              	.L34:
  34:Core/Src/koth_game.c ****                     {
 395              		.loc 1 34 21 view .LVU71
  40:Core/Src/koth_game.c ****                     }
 396              		.loc 1 40 25 view .LVU72
  40:Core/Src/koth_game.c ****                     }
 397              		.loc 1 40 35 is_stmt 0 view .LVU73
 398 0020 A74B     		ldr	r3, .L46+8
 399 0022 0322     		movs	r2, #3
 400 0024 1A70     		strb	r2, [r3]
  42:Core/Src/koth_game.c ****                 break;
 401              		.loc 1 42 21 is_stmt 1 view .LVU74
  42:Core/Src/koth_game.c ****                 break;
 402              		.loc 1 42 38 is_stmt 0 view .LVU75
ARM GAS  C:\Users\jdcox\AppData\Local\Temp\ccaN91Zf.s 			page 14


 403 0026 A74B     		ldr	r3, .L46+12
 404 0028 0122     		movs	r2, #1
 405 002a 1A70     		strb	r2, [r3]
  43:Core/Src/koth_game.c **** 
 406              		.loc 1 43 17 is_stmt 1 view .LVU76
 407              	.L28:
  71:Core/Src/koth_game.c ****     }
 408              		.loc 1 71 9 view .LVU77
  71:Core/Src/koth_game.c ****     }
 409              		.loc 1 71 20 is_stmt 0 view .LVU78
 410 002c A24B     		ldr	r3, .L46
 411 002e 0022     		movs	r2, #0
 412 0030 1A70     		strb	r2, [r3]
 413              	.L27:
  74:Core/Src/koth_game.c ****     {
 414              		.loc 1 74 5 is_stmt 1 view .LVU79
 415 0032 A34B     		ldr	r3, .L46+8
 416 0034 1878     		ldrb	r0, [r3]	@ zero_extendqisi2
 417 0036 431E     		subs	r3, r0, #1
 418 0038 072B     		cmp	r3, #7
 419 003a 52D8     		bhi	.L26
 420 003c DFE813F0 		tbh	[pc, r3, lsl #1]
 421              	.L37:
 422 0040 4200     		.2byte	(.L40-.L37)/2
 423 0042 5300     		.2byte	(.L42-.L37)/2
 424 0044 4200     		.2byte	(.L40-.L37)/2
 425 0046 8A00     		.2byte	(.L41-.L37)/2
 426 0048 4200     		.2byte	(.L40-.L37)/2
 427 004a FE00     		.2byte	(.L39-.L37)/2
 428 004c C100     		.2byte	(.L38-.L37)/2
 429 004e 2200     		.2byte	(.L36-.L37)/2
 430              		.p2align 1
 431              	.L31:
  46:Core/Src/koth_game.c ****                     stateChange_flag = 1; 
 432              		.loc 1 46 21 view .LVU80
  46:Core/Src/koth_game.c ****                     stateChange_flag = 1; 
 433              		.loc 1 46 31 is_stmt 0 view .LVU81
 434 0050 9B4B     		ldr	r3, .L46+8
 435 0052 0422     		movs	r2, #4
 436 0054 1A70     		strb	r2, [r3]
  47:Core/Src/koth_game.c ****                 break; 
 437              		.loc 1 47 21 is_stmt 1 view .LVU82
  47:Core/Src/koth_game.c ****                 break; 
 438              		.loc 1 47 38 is_stmt 0 view .LVU83
 439 0056 9B4B     		ldr	r3, .L46+12
 440 0058 0122     		movs	r2, #1
 441 005a 1A70     		strb	r2, [r3]
  48:Core/Src/koth_game.c ****                 
 442              		.loc 1 48 17 is_stmt 1 view .LVU84
 443 005c E6E7     		b	.L28
 444              	.L33:
  51:Core/Src/koth_game.c ****                     stateChange_flag = 1; 
 445              		.loc 1 51 21 view .LVU85
  51:Core/Src/koth_game.c ****                     stateChange_flag = 1; 
 446              		.loc 1 51 31 is_stmt 0 view .LVU86
 447 005e 984B     		ldr	r3, .L46+8
 448 0060 0222     		movs	r2, #2
ARM GAS  C:\Users\jdcox\AppData\Local\Temp\ccaN91Zf.s 			page 15


 449 0062 1A70     		strb	r2, [r3]
  52:Core/Src/koth_game.c ****                 break; 
 450              		.loc 1 52 21 is_stmt 1 view .LVU87
  52:Core/Src/koth_game.c ****                 break; 
 451              		.loc 1 52 38 is_stmt 0 view .LVU88
 452 0064 974B     		ldr	r3, .L46+12
 453 0066 0122     		movs	r2, #1
 454 0068 1A70     		strb	r2, [r3]
  53:Core/Src/koth_game.c **** 
 455              		.loc 1 53 17 is_stmt 1 view .LVU89
 456 006a DFE7     		b	.L28
 457              	.L32:
  57:Core/Src/koth_game.c ****                     stateChange_flag = 0; 
 458              		.loc 1 57 21 view .LVU90
  57:Core/Src/koth_game.c ****                     stateChange_flag = 0; 
 459              		.loc 1 57 31 is_stmt 0 view .LVU91
 460 006c 944B     		ldr	r3, .L46+8
 461 006e 1A70     		strb	r2, [r3]
  58:Core/Src/koth_game.c ****                 break;
 462              		.loc 1 58 21 is_stmt 1 view .LVU92
  58:Core/Src/koth_game.c ****                 break;
 463              		.loc 1 58 38 is_stmt 0 view .LVU93
 464 0070 944B     		ldr	r3, .L46+12
 465 0072 0022     		movs	r2, #0
 466 0074 1A70     		strb	r2, [r3]
  59:Core/Src/koth_game.c **** 
 467              		.loc 1 59 17 is_stmt 1 view .LVU94
 468 0076 D9E7     		b	.L28
 469              	.L29:
  64:Core/Src/koth_game.c ****                     stateChange_flag = 1; 
 470              		.loc 1 64 21 view .LVU95
  64:Core/Src/koth_game.c ****                     stateChange_flag = 1; 
 471              		.loc 1 64 31 is_stmt 0 view .LVU96
 472 0078 914B     		ldr	r3, .L46+8
 473 007a 1A70     		strb	r2, [r3]
  65:Core/Src/koth_game.c ****                 
 474              		.loc 1 65 21 is_stmt 1 view .LVU97
  65:Core/Src/koth_game.c ****                 
 475              		.loc 1 65 38 is_stmt 0 view .LVU98
 476 007c 914B     		ldr	r3, .L46+12
 477 007e 0122     		movs	r2, #1
 478 0080 1A70     		strb	r2, [r3]
  67:Core/Src/koth_game.c ****                 
 479              		.loc 1 67 17 is_stmt 1 view .LVU99
 480 0082 D3E7     		b	.L28
 481              	.L36:
  77:Core/Src/koth_game.c ****             { 
 482              		.loc 1 77 13 view .LVU100
  77:Core/Src/koth_game.c ****             { 
 483              		.loc 1 77 16 is_stmt 0 view .LVU101
 484 0084 8F4B     		ldr	r3, .L46+12
 485 0086 1B78     		ldrb	r3, [r3]	@ zero_extendqisi2
  77:Core/Src/koth_game.c ****             { 
 486              		.loc 1 77 15 view .LVU102
 487 0088 5BB3     		cbz	r3, .L26
  79:Core/Src/koth_game.c ****                 ssd1306_Fill(0); 
 488              		.loc 1 79 17 is_stmt 1 view .LVU103
ARM GAS  C:\Users\jdcox\AppData\Local\Temp\ccaN91Zf.s 			page 16


  79:Core/Src/koth_game.c ****                 ssd1306_Fill(0); 
 489              		.loc 1 79 34 is_stmt 0 view .LVU104
 490 008a 0024     		movs	r4, #0
 491 008c 8D4B     		ldr	r3, .L46+12
 492 008e 1C70     		strb	r4, [r3]
  80:Core/Src/koth_game.c ****                 ssd1306_SetCursor(0,0);
 493              		.loc 1 80 17 is_stmt 1 view .LVU105
 494 0090 2046     		mov	r0, r4
 495 0092 FFF7FEFF 		bl	ssd1306_Fill
 496              	.LVL8:
  81:Core/Src/koth_game.c ****                 if (THIS_PLAYER == RED) 
 497              		.loc 1 81 17 view .LVU106
 498 0096 2146     		mov	r1, r4
 499 0098 2046     		mov	r0, r4
 500 009a FFF7FEFF 		bl	ssd1306_SetCursor
 501              	.LVL9:
  82:Core/Src/koth_game.c ****                 { 
 502              		.loc 1 82 17 view .LVU107
  88:Core/Src/koth_game.c ****                 }
 503              		.loc 1 88 21 view .LVU108
 504 009e 8A4A     		ldr	r2, .L46+16
 505 00a0 0123     		movs	r3, #1
 506 00a2 06CA     		ldm	r2, {r1, r2}
 507 00a4 8948     		ldr	r0, .L46+20
 508 00a6 FFF7FEFF 		bl	ssd1306_WriteString
 509              	.LVL10:
  90:Core/Src/koth_game.c ****                 ssd1306_WriteString("Push to play!",Font_7x10,1);
 510              		.loc 1 90 17 view .LVU109
 511 00aa 1521     		movs	r1, #21
 512 00ac 1920     		movs	r0, #25
 513 00ae FFF7FEFF 		bl	ssd1306_SetCursor
 514              	.LVL11:
  91:Core/Src/koth_game.c ****                 ssd1306_UpdateScreen();
 515              		.loc 1 91 17 view .LVU110
 516 00b2 874A     		ldr	r2, .L46+24
 517 00b4 0123     		movs	r3, #1
 518 00b6 06CA     		ldm	r2, {r1, r2}
 519 00b8 8648     		ldr	r0, .L46+28
 520 00ba FFF7FEFF 		bl	ssd1306_WriteString
 521              	.LVL12:
  92:Core/Src/koth_game.c ****             }
 522              		.loc 1 92 17 view .LVU111
 523 00be FFF7FEFF 		bl	ssd1306_UpdateScreen
 524              	.LVL13:
 525 00c2 0EE0     		b	.L26
 526              	.L40:
 102:Core/Src/koth_game.c ****             red_flag = 0;
 527              		.loc 1 102 13 view .LVU112
 102:Core/Src/koth_game.c ****             red_flag = 0;
 528              		.loc 1 102 30 is_stmt 0 view .LVU113
 529 00c4 0023     		movs	r3, #0
 530 00c6 7F4A     		ldr	r2, .L46+12
 531 00c8 1370     		strb	r3, [r2]
 103:Core/Src/koth_game.c ****             blue_flag = 0;
 532              		.loc 1 103 13 is_stmt 1 view .LVU114
 103:Core/Src/koth_game.c ****             blue_flag = 0;
 533              		.loc 1 103 22 is_stmt 0 view .LVU115
ARM GAS  C:\Users\jdcox\AppData\Local\Temp\ccaN91Zf.s 			page 17


 534 00ca 834A     		ldr	r2, .L46+32
 535 00cc 1370     		strb	r3, [r2]
 104:Core/Src/koth_game.c **** 
 536              		.loc 1 104 13 is_stmt 1 view .LVU116
 104:Core/Src/koth_game.c **** 
 537              		.loc 1 104 23 is_stmt 0 view .LVU117
 538 00ce 834A     		ldr	r2, .L46+36
 539 00d0 1370     		strb	r3, [r2]
 106:Core/Src/koth_game.c ****             newTX_flag = 1;
 540              		.loc 1 106 13 is_stmt 1 view .LVU118
 541 00d2 FFF7FEFF 		bl	setOpcode
 542              	.LVL14:
 107:Core/Src/koth_game.c **** 
 543              		.loc 1 107 13 view .LVU119
 107:Core/Src/koth_game.c **** 
 544              		.loc 1 107 24 is_stmt 0 view .LVU120
 545 00d6 824B     		ldr	r3, .L46+40
 546 00d8 0122     		movs	r2, #1
 547 00da 1A70     		strb	r2, [r3]
 109:Core/Src/koth_game.c **** 
 548              		.loc 1 109 13 is_stmt 1 view .LVU121
 549 00dc 6420     		movs	r0, #100
 550 00de FFF7FEFF 		bl	osDelay
 551              	.LVL15:
 111:Core/Src/koth_game.c **** 
 552              		.loc 1 111 9 view .LVU122
 553              	.L26:
 211:Core/Src/koth_game.c **** 
 554              		.loc 1 211 1 is_stmt 0 view .LVU123
 555 00e2 04B0     		add	sp, sp, #16
 556              	.LCFI7:
 557              		.cfi_remember_state
 558              		.cfi_def_cfa_offset 16
 559              		@ sp needed
 560 00e4 70BD     		pop	{r4, r5, r6, pc}
 561              	.L42:
 562              	.LCFI8:
 563              		.cfi_restore_state
 115:Core/Src/koth_game.c ****             {
 564              		.loc 1 115 13 is_stmt 1 view .LVU124
 115:Core/Src/koth_game.c ****             {
 565              		.loc 1 115 16 is_stmt 0 view .LVU125
 566 00e6 774B     		ldr	r3, .L46+12
 567 00e8 1B78     		ldrb	r3, [r3]	@ zero_extendqisi2
 115:Core/Src/koth_game.c ****             {
 568              		.loc 1 115 15 view .LVU126
 569 00ea 002B     		cmp	r3, #0
 570 00ec F9D0     		beq	.L26
 117:Core/Src/koth_game.c ****                 newTX_flag = 1;
 571              		.loc 1 117 17 is_stmt 1 view .LVU127
 572 00ee 0220     		movs	r0, #2
 573 00f0 FFF7FEFF 		bl	setOpcode
 574              	.LVL16:
 118:Core/Src/koth_game.c ****                 stateChange_flag = 0;
 575              		.loc 1 118 17 view .LVU128
 118:Core/Src/koth_game.c ****                 stateChange_flag = 0;
 576              		.loc 1 118 28 is_stmt 0 view .LVU129
ARM GAS  C:\Users\jdcox\AppData\Local\Temp\ccaN91Zf.s 			page 18


 577 00f4 0125     		movs	r5, #1
 578 00f6 7A4B     		ldr	r3, .L46+40
 579 00f8 1D70     		strb	r5, [r3]
 119:Core/Src/koth_game.c ****                 red_flag = 1;
 580              		.loc 1 119 17 is_stmt 1 view .LVU130
 119:Core/Src/koth_game.c ****                 red_flag = 1;
 581              		.loc 1 119 34 is_stmt 0 view .LVU131
 582 00fa 0024     		movs	r4, #0
 583 00fc 714B     		ldr	r3, .L46+12
 584 00fe 1C70     		strb	r4, [r3]
 120:Core/Src/koth_game.c ****                 blue_flag = 0;
 585              		.loc 1 120 17 is_stmt 1 view .LVU132
 120:Core/Src/koth_game.c ****                 blue_flag = 0;
 586              		.loc 1 120 26 is_stmt 0 view .LVU133
 587 0100 754B     		ldr	r3, .L46+32
 588 0102 1D70     		strb	r5, [r3]
 121:Core/Src/koth_game.c ****                 REDLED_ON;
 589              		.loc 1 121 17 is_stmt 1 view .LVU134
 121:Core/Src/koth_game.c ****                 REDLED_ON;
 590              		.loc 1 121 27 is_stmt 0 view .LVU135
 591 0104 754B     		ldr	r3, .L46+36
 592 0106 1C70     		strb	r4, [r3]
 122:Core/Src/koth_game.c ****                 BLUELED_OFF;
 593              		.loc 1 122 17 is_stmt 1 view .LVU136
 594 0108 764E     		ldr	r6, .L46+44
 595 010a 2246     		mov	r2, r4
 596 010c 0421     		movs	r1, #4
 597 010e 3046     		mov	r0, r6
 598 0110 FFF7FEFF 		bl	HAL_GPIO_WritePin
 599              	.LVL17:
 123:Core/Src/koth_game.c ****                 ssd1306_Fill(0);
 600              		.loc 1 123 17 view .LVU137
 601 0114 2A46     		mov	r2, r5
 602 0116 0221     		movs	r1, #2
 603 0118 3046     		mov	r0, r6
 604 011a FFF7FEFF 		bl	HAL_GPIO_WritePin
 605              	.LVL18:
 124:Core/Src/koth_game.c ****                 ssd1306_SetCursor(0,0);
 606              		.loc 1 124 17 view .LVU138
 607 011e 2046     		mov	r0, r4
 608 0120 FFF7FEFF 		bl	ssd1306_Fill
 609              	.LVL19:
 125:Core/Src/koth_game.c ****                 ssd1306_WriteString("RED is king",Font_7x10,1);
 610              		.loc 1 125 17 view .LVU139
 611 0124 2146     		mov	r1, r4
 612 0126 2046     		mov	r0, r4
 613 0128 FFF7FEFF 		bl	ssd1306_SetCursor
 614              	.LVL20:
 126:Core/Src/koth_game.c ****                 ssd1306_SetCursor(0,10);
 615              		.loc 1 126 17 view .LVU140
 616 012c 684E     		ldr	r6, .L46+24
 617 012e 2B46     		mov	r3, r5
 618 0130 96E80600 		ldm	r6, {r1, r2}
 619 0134 6C48     		ldr	r0, .L46+48
 620 0136 FFF7FEFF 		bl	ssd1306_WriteString
 621              	.LVL21:
 127:Core/Src/koth_game.c ****                 ssd1306_WriteString("of the hill!",Font_7x10,1);
ARM GAS  C:\Users\jdcox\AppData\Local\Temp\ccaN91Zf.s 			page 19


 622              		.loc 1 127 17 view .LVU141
 623 013a 0A21     		movs	r1, #10
 624 013c 2046     		mov	r0, r4
 625 013e FFF7FEFF 		bl	ssd1306_SetCursor
 626              	.LVL22:
 128:Core/Src/koth_game.c ****                 ssd1306_UpdateScreen();
 627              		.loc 1 128 17 view .LVU142
 628 0142 2B46     		mov	r3, r5
 629 0144 96E80600 		ldm	r6, {r1, r2}
 630 0148 6848     		ldr	r0, .L46+52
 631 014a FFF7FEFF 		bl	ssd1306_WriteString
 632              	.LVL23:
 129:Core/Src/koth_game.c ****                 
 633              		.loc 1 129 17 view .LVU143
 634 014e FFF7FEFF 		bl	ssd1306_UpdateScreen
 635              	.LVL24:
 636 0152 C6E7     		b	.L26
 637              	.L41:
 137:Core/Src/koth_game.c ****             {
 638              		.loc 1 137 13 view .LVU144
 137:Core/Src/koth_game.c ****             {
 639              		.loc 1 137 16 is_stmt 0 view .LVU145
 640 0154 5B4B     		ldr	r3, .L46+12
 641 0156 1B78     		ldrb	r3, [r3]	@ zero_extendqisi2
 137:Core/Src/koth_game.c ****             {
 642              		.loc 1 137 15 view .LVU146
 643 0158 002B     		cmp	r3, #0
 644 015a C2D0     		beq	.L26
 139:Core/Src/koth_game.c ****                 newTX_flag = 1;
 645              		.loc 1 139 17 is_stmt 1 view .LVU147
 646 015c 0420     		movs	r0, #4
 647 015e FFF7FEFF 		bl	setOpcode
 648              	.LVL25:
 140:Core/Src/koth_game.c ****                 stateChange_flag = 0;
 649              		.loc 1 140 17 view .LVU148
 140:Core/Src/koth_game.c ****                 stateChange_flag = 0;
 650              		.loc 1 140 28 is_stmt 0 view .LVU149
 651 0162 0125     		movs	r5, #1
 652 0164 5E4B     		ldr	r3, .L46+40
 653 0166 1D70     		strb	r5, [r3]
 141:Core/Src/koth_game.c ****                 red_flag = 0;
 654              		.loc 1 141 17 is_stmt 1 view .LVU150
 141:Core/Src/koth_game.c ****                 red_flag = 0;
 655              		.loc 1 141 34 is_stmt 0 view .LVU151
 656 0168 0024     		movs	r4, #0
 657 016a 564B     		ldr	r3, .L46+12
 658 016c 1C70     		strb	r4, [r3]
 142:Core/Src/koth_game.c ****                 blue_flag = 1;
 659              		.loc 1 142 17 is_stmt 1 view .LVU152
 142:Core/Src/koth_game.c ****                 blue_flag = 1;
 660              		.loc 1 142 26 is_stmt 0 view .LVU153
 661 016e 5A4B     		ldr	r3, .L46+32
 662 0170 1C70     		strb	r4, [r3]
 143:Core/Src/koth_game.c ****                 REDLED_OFF;
 663              		.loc 1 143 17 is_stmt 1 view .LVU154
 143:Core/Src/koth_game.c ****                 REDLED_OFF;
 664              		.loc 1 143 27 is_stmt 0 view .LVU155
ARM GAS  C:\Users\jdcox\AppData\Local\Temp\ccaN91Zf.s 			page 20


 665 0172 5A4B     		ldr	r3, .L46+36
 666 0174 1D70     		strb	r5, [r3]
 144:Core/Src/koth_game.c ****                 BLUELED_ON;
 667              		.loc 1 144 17 is_stmt 1 view .LVU156
 668 0176 5B4E     		ldr	r6, .L46+44
 669 0178 2A46     		mov	r2, r5
 670 017a 0421     		movs	r1, #4
 671 017c 3046     		mov	r0, r6
 672 017e FFF7FEFF 		bl	HAL_GPIO_WritePin
 673              	.LVL26:
 145:Core/Src/koth_game.c ****                 ssd1306_Fill(0);
 674              		.loc 1 145 17 view .LVU157
 675 0182 2246     		mov	r2, r4
 676 0184 0221     		movs	r1, #2
 677 0186 3046     		mov	r0, r6
 678 0188 FFF7FEFF 		bl	HAL_GPIO_WritePin
 679              	.LVL27:
 146:Core/Src/koth_game.c ****                 ssd1306_SetCursor(0,0);
 680              		.loc 1 146 17 view .LVU158
 681 018c 2046     		mov	r0, r4
 682 018e FFF7FEFF 		bl	ssd1306_Fill
 683              	.LVL28:
 147:Core/Src/koth_game.c ****                 ssd1306_WriteString("BLUE is king",Font_7x10,1);
 684              		.loc 1 147 17 view .LVU159
 685 0192 2146     		mov	r1, r4
 686 0194 2046     		mov	r0, r4
 687 0196 FFF7FEFF 		bl	ssd1306_SetCursor
 688              	.LVL29:
 148:Core/Src/koth_game.c ****                 ssd1306_SetCursor(0,10);
 689              		.loc 1 148 17 view .LVU160
 690 019a 4D4E     		ldr	r6, .L46+24
 691 019c 2B46     		mov	r3, r5
 692 019e 96E80600 		ldm	r6, {r1, r2}
 693 01a2 5348     		ldr	r0, .L46+56
 694 01a4 FFF7FEFF 		bl	ssd1306_WriteString
 695              	.LVL30:
 149:Core/Src/koth_game.c ****                 ssd1306_WriteString("of the hill!",Font_7x10,1);
 696              		.loc 1 149 17 view .LVU161
 697 01a8 0A21     		movs	r1, #10
 698 01aa 2046     		mov	r0, r4
 699 01ac FFF7FEFF 		bl	ssd1306_SetCursor
 700              	.LVL31:
 150:Core/Src/koth_game.c ****                 ssd1306_UpdateScreen();
 701              		.loc 1 150 17 view .LVU162
 702 01b0 2B46     		mov	r3, r5
 703 01b2 96E80600 		ldm	r6, {r1, r2}
 704 01b6 4D48     		ldr	r0, .L46+52
 705 01b8 FFF7FEFF 		bl	ssd1306_WriteString
 706              	.LVL32:
 151:Core/Src/koth_game.c ****             }
 707              		.loc 1 151 17 view .LVU163
 708 01bc FFF7FEFF 		bl	ssd1306_UpdateScreen
 709              	.LVL33:
 710 01c0 8FE7     		b	.L26
 711              	.L38:
 156:Core/Src/koth_game.c ****             {
 712              		.loc 1 156 13 view .LVU164
ARM GAS  C:\Users\jdcox\AppData\Local\Temp\ccaN91Zf.s 			page 21


 156:Core/Src/koth_game.c ****             {
 713              		.loc 1 156 16 is_stmt 0 view .LVU165
 714 01c2 404B     		ldr	r3, .L46+12
 715 01c4 1B78     		ldrb	r3, [r3]	@ zero_extendqisi2
 156:Core/Src/koth_game.c ****             {
 716              		.loc 1 156 15 view .LVU166
 717 01c6 002B     		cmp	r3, #0
 718 01c8 8BD0     		beq	.L26
 719              	.LBB3:
 158:Core/Src/koth_game.c ****                 newTX_flag = 1;
 720              		.loc 1 158 17 is_stmt 1 view .LVU167
 721 01ca 0720     		movs	r0, #7
 722 01cc FFF7FEFF 		bl	setOpcode
 723              	.LVL34:
 159:Core/Src/koth_game.c ****                 stateChange_flag = 0;
 724              		.loc 1 159 17 view .LVU168
 159:Core/Src/koth_game.c ****                 stateChange_flag = 0;
 725              		.loc 1 159 28 is_stmt 0 view .LVU169
 726 01d0 0125     		movs	r5, #1
 727 01d2 434B     		ldr	r3, .L46+40
 728 01d4 1D70     		strb	r5, [r3]
 160:Core/Src/koth_game.c ****                 REDLED_ON;
 729              		.loc 1 160 17 is_stmt 1 view .LVU170
 160:Core/Src/koth_game.c ****                 REDLED_ON;
 730              		.loc 1 160 34 is_stmt 0 view .LVU171
 731 01d6 0024     		movs	r4, #0
 732 01d8 3A4B     		ldr	r3, .L46+12
 733 01da 1C70     		strb	r4, [r3]
 161:Core/Src/koth_game.c ****                 BLUELED_OFF;
 734              		.loc 1 161 17 is_stmt 1 view .LVU172
 735 01dc 414E     		ldr	r6, .L46+44
 736 01de 2246     		mov	r2, r4
 737 01e0 0421     		movs	r1, #4
 738 01e2 3046     		mov	r0, r6
 739 01e4 FFF7FEFF 		bl	HAL_GPIO_WritePin
 740              	.LVL35:
 162:Core/Src/koth_game.c ****                 ssd1306_Fill(0);
 741              		.loc 1 162 17 view .LVU173
 742 01e8 2A46     		mov	r2, r5
 743 01ea 0221     		movs	r1, #2
 744 01ec 3046     		mov	r0, r6
 745 01ee FFF7FEFF 		bl	HAL_GPIO_WritePin
 746              	.LVL36:
 163:Core/Src/koth_game.c ****                 ssd1306_SetCursor(0,0);
 747              		.loc 1 163 17 view .LVU174
 748 01f2 2046     		mov	r0, r4
 749 01f4 FFF7FEFF 		bl	ssd1306_Fill
 750              	.LVL37:
 164:Core/Src/koth_game.c ****                 ssd1306_WriteString("Red wins!",Font_7x10,1);
 751              		.loc 1 164 17 view .LVU175
 752 01f8 2146     		mov	r1, r4
 753 01fa 2046     		mov	r0, r4
 754 01fc FFF7FEFF 		bl	ssd1306_SetCursor
 755              	.LVL38:
 165:Core/Src/koth_game.c ****                 char score [16];
 756              		.loc 1 165 17 view .LVU176
 757 0200 334E     		ldr	r6, .L46+24
ARM GAS  C:\Users\jdcox\AppData\Local\Temp\ccaN91Zf.s 			page 22


 758 0202 2B46     		mov	r3, r5
 759 0204 96E80600 		ldm	r6, {r1, r2}
 760 0208 3A48     		ldr	r0, .L46+60
 761 020a FFF7FEFF 		bl	ssd1306_WriteString
 762              	.LVL39:
 166:Core/Src/koth_game.c ****                 uint16_t difference = red_counter - blue_counter;
 763              		.loc 1 166 17 view .LVU177
 167:Core/Src/koth_game.c ****                 sprintf(score, "Won by %ums", difference);
 764              		.loc 1 167 17 view .LVU178
 167:Core/Src/koth_game.c ****                 sprintf(score, "Won by %ums", difference);
 765              		.loc 1 167 51 is_stmt 0 view .LVU179
 766 020e 3A4B     		ldr	r3, .L46+64
 767 0210 1A88     		ldrh	r2, [r3]
 768 0212 3A4B     		ldr	r3, .L46+68
 769 0214 1B88     		ldrh	r3, [r3]
 167:Core/Src/koth_game.c ****                 sprintf(score, "Won by %ums", difference);
 770              		.loc 1 167 26 view .LVU180
 771 0216 D21A     		subs	r2, r2, r3
 772              	.LVL40:
 168:Core/Src/koth_game.c ****                 lcd_put_cur(1,0);
 773              		.loc 1 168 17 is_stmt 1 view .LVU181
 774 0218 92B2     		uxth	r2, r2
 168:Core/Src/koth_game.c ****                 lcd_put_cur(1,0);
 775              		.loc 1 168 17 is_stmt 0 view .LVU182
 776 021a 3949     		ldr	r1, .L46+72
 777 021c 6846     		mov	r0, sp
 778 021e FFF7FEFF 		bl	sprintf
 779              	.LVL41:
 169:Core/Src/koth_game.c ****                 ssd1306_WriteString(score,Font_7x10,1);
 780              		.loc 1 169 17 is_stmt 1 view .LVU183
 781 0222 2146     		mov	r1, r4
 782 0224 2846     		mov	r0, r5
 783 0226 FFF7FEFF 		bl	lcd_put_cur
 784              	.LVL42:
 170:Core/Src/koth_game.c ****                 ssd1306_UpdateScreen();
 785              		.loc 1 170 17 view .LVU184
 786 022a 2B46     		mov	r3, r5
 787 022c 96E80600 		ldm	r6, {r1, r2}
 788 0230 6846     		mov	r0, sp
 789 0232 FFF7FEFF 		bl	ssd1306_WriteString
 790              	.LVL43:
 171:Core/Src/koth_game.c ****             }
 791              		.loc 1 171 17 view .LVU185
 792 0236 FFF7FEFF 		bl	ssd1306_UpdateScreen
 793              	.LVL44:
 794 023a 52E7     		b	.L26
 795              	.L39:
 171:Core/Src/koth_game.c ****             }
 796              		.loc 1 171 17 is_stmt 0 view .LVU186
 797              	.LBE3:
 176:Core/Src/koth_game.c ****             {
 798              		.loc 1 176 13 is_stmt 1 view .LVU187
 176:Core/Src/koth_game.c ****             {
 799              		.loc 1 176 16 is_stmt 0 view .LVU188
 800 023c 214B     		ldr	r3, .L46+12
 801 023e 1B78     		ldrb	r3, [r3]	@ zero_extendqisi2
 176:Core/Src/koth_game.c ****             {
ARM GAS  C:\Users\jdcox\AppData\Local\Temp\ccaN91Zf.s 			page 23


 802              		.loc 1 176 15 view .LVU189
 803 0240 002B     		cmp	r3, #0
 804 0242 3FF44EAF 		beq	.L26
 805              	.LBB4:
 178:Core/Src/koth_game.c ****                 newTX_flag = 1;
 806              		.loc 1 178 17 is_stmt 1 view .LVU190
 807 0246 0620     		movs	r0, #6
 808 0248 FFF7FEFF 		bl	setOpcode
 809              	.LVL45:
 179:Core/Src/koth_game.c ****                 stateChange_flag = 0;
 810              		.loc 1 179 17 view .LVU191
 179:Core/Src/koth_game.c ****                 stateChange_flag = 0;
 811              		.loc 1 179 28 is_stmt 0 view .LVU192
 812 024c 0125     		movs	r5, #1
 813 024e 244B     		ldr	r3, .L46+40
 814 0250 1D70     		strb	r5, [r3]
 180:Core/Src/koth_game.c ****                 REDLED_OFF;
 815              		.loc 1 180 17 is_stmt 1 view .LVU193
 180:Core/Src/koth_game.c ****                 REDLED_OFF;
 816              		.loc 1 180 34 is_stmt 0 view .LVU194
 817 0252 0024     		movs	r4, #0
 818 0254 1B4B     		ldr	r3, .L46+12
 819 0256 1C70     		strb	r4, [r3]
 181:Core/Src/koth_game.c ****                 BLUELED_ON;
 820              		.loc 1 181 17 is_stmt 1 view .LVU195
 821 0258 224E     		ldr	r6, .L46+44
 822 025a 2A46     		mov	r2, r5
 823 025c 0421     		movs	r1, #4
 824 025e 3046     		mov	r0, r6
 825 0260 FFF7FEFF 		bl	HAL_GPIO_WritePin
 826              	.LVL46:
 182:Core/Src/koth_game.c ****                 ssd1306_Fill(0);
 827              		.loc 1 182 17 view .LVU196
 828 0264 2246     		mov	r2, r4
 829 0266 0221     		movs	r1, #2
 830 0268 3046     		mov	r0, r6
 831 026a FFF7FEFF 		bl	HAL_GPIO_WritePin
 832              	.LVL47:
 183:Core/Src/koth_game.c ****                 ssd1306_SetCursor(0,0);
 833              		.loc 1 183 17 view .LVU197
 834 026e 2046     		mov	r0, r4
 835 0270 FFF7FEFF 		bl	ssd1306_Fill
 836              	.LVL48:
 184:Core/Src/koth_game.c ****                 ssd1306_WriteString("Blue wins!",Font_7x10,1);
 837              		.loc 1 184 17 view .LVU198
 838 0274 2146     		mov	r1, r4
 839 0276 2046     		mov	r0, r4
 840 0278 FFF7FEFF 		bl	ssd1306_SetCursor
 841              	.LVL49:
 185:Core/Src/koth_game.c ****                 char score [16];
 842              		.loc 1 185 17 view .LVU199
 843 027c 144E     		ldr	r6, .L46+24
 844 027e 2B46     		mov	r3, r5
 845 0280 96E80600 		ldm	r6, {r1, r2}
 846 0284 1F48     		ldr	r0, .L46+76
 847 0286 FFF7FEFF 		bl	ssd1306_WriteString
 848              	.LVL50:
ARM GAS  C:\Users\jdcox\AppData\Local\Temp\ccaN91Zf.s 			page 24


 186:Core/Src/koth_game.c ****                 uint16_t difference = blue_counter - red_counter;
 849              		.loc 1 186 17 view .LVU200
 187:Core/Src/koth_game.c ****                 sprintf(score, "Won by %ums", difference);
 850              		.loc 1 187 17 view .LVU201
 187:Core/Src/koth_game.c ****                 sprintf(score, "Won by %ums", difference);
 851              		.loc 1 187 52 is_stmt 0 view .LVU202
 852 028a 1C4B     		ldr	r3, .L46+68
 853 028c 1A88     		ldrh	r2, [r3]
 854 028e 1A4B     		ldr	r3, .L46+64
 855 0290 1B88     		ldrh	r3, [r3]
 187:Core/Src/koth_game.c ****                 sprintf(score, "Won by %ums", difference);
 856              		.loc 1 187 26 view .LVU203
 857 0292 D21A     		subs	r2, r2, r3
 858              	.LVL51:
 188:Core/Src/koth_game.c ****                 lcd_put_cur(1,0);
 859              		.loc 1 188 17 is_stmt 1 view .LVU204
 860 0294 92B2     		uxth	r2, r2
 188:Core/Src/koth_game.c ****                 lcd_put_cur(1,0);
 861              		.loc 1 188 17 is_stmt 0 view .LVU205
 862 0296 1A49     		ldr	r1, .L46+72
 863 0298 6846     		mov	r0, sp
 864 029a FFF7FEFF 		bl	sprintf
 865              	.LVL52:
 189:Core/Src/koth_game.c ****                 ssd1306_WriteString(score,Font_7x10,1);
 866              		.loc 1 189 17 is_stmt 1 view .LVU206
 867 029e 2146     		mov	r1, r4
 868 02a0 2846     		mov	r0, r5
 869 02a2 FFF7FEFF 		bl	lcd_put_cur
 870              	.LVL53:
 190:Core/Src/koth_game.c ****                 ssd1306_UpdateScreen();
 871              		.loc 1 190 17 view .LVU207
 872 02a6 2B46     		mov	r3, r5
 873 02a8 96E80600 		ldm	r6, {r1, r2}
 874 02ac 6846     		mov	r0, sp
 875 02ae FFF7FEFF 		bl	ssd1306_WriteString
 876              	.LVL54:
 191:Core/Src/koth_game.c ****             }
 877              		.loc 1 191 17 view .LVU208
 878 02b2 FFF7FEFF 		bl	ssd1306_UpdateScreen
 879              	.LVL55:
 880              	.LBE4:
 211:Core/Src/koth_game.c **** 
 881              		.loc 1 211 1 is_stmt 0 view .LVU209
 882 02b6 14E7     		b	.L26
 883              	.L47:
 884              		.align	2
 885              	.L46:
 886 02b8 00000000 		.word	newRX_flag
 887 02bc 00000000 		.word	loraRXopcode
 888 02c0 00000000 		.word	gameState
 889 02c4 00000000 		.word	stateChange_flag
 890 02c8 00000000 		.word	Font_11x18
 891 02cc 00000000 		.word	.LC2
 892 02d0 00000000 		.word	Font_7x10
 893 02d4 08000000 		.word	.LC3
 894 02d8 00000000 		.word	red_flag
 895 02dc 00000000 		.word	blue_flag
ARM GAS  C:\Users\jdcox\AppData\Local\Temp\ccaN91Zf.s 			page 25


 896 02e0 00000000 		.word	newTX_flag
 897 02e4 00040240 		.word	1073873920
 898 02e8 18000000 		.word	.LC4
 899 02ec 24000000 		.word	.LC5
 900 02f0 34000000 		.word	.LC6
 901 02f4 44000000 		.word	.LC7
 902 02f8 00000000 		.word	red_counter
 903 02fc 00000000 		.word	blue_counter
 904 0300 50000000 		.word	.LC8
 905 0304 5C000000 		.word	.LC9
 906              		.cfi_endproc
 907              	.LFE139:
 909              		.section	.text.btnPressedSimple,"ax",%progbits
 910              		.align	1
 911              		.global	btnPressedSimple
 912              		.syntax unified
 913              		.thumb
 914              		.thumb_func
 916              	btnPressedSimple:
 917              	.LFB143:
 316:Core/Src/koth_game.c **** 
 317:Core/Src/koth_game.c **** void btnPressedSimple()
 318:Core/Src/koth_game.c **** {
 918              		.loc 1 318 1 is_stmt 1 view -0
 919              		.cfi_startproc
 920              		@ args = 0, pretend = 0, frame = 0
 921              		@ frame_needed = 0, uses_anonymous_args = 0
 922              		@ link register save eliminated.
 319:Core/Src/koth_game.c **** 
 320:Core/Src/koth_game.c ****     //newTX_flag = 1;
 321:Core/Src/koth_game.c **** 
 322:Core/Src/koth_game.c ****     /*
 323:Core/Src/koth_game.c ****     sprintf(opcodeString, "%uKOTH", THIS_PLAYER);
 324:Core/Src/koth_game.c **** 
 325:Core/Src/koth_game.c ****     gameState = THIS_PLAYER;
 326:Core/Src/koth_game.c ****     stateChange_flag = 1;
 327:Core/Src/koth_game.c **** 
 328:Core/Src/koth_game.c ****     // Send it via LoRa
 329:Core/Src/koth_game.c ****     LoRa_transmit(&myLoRa, (uint8_t*)opcodeString, 10, 100);
 330:Core/Src/koth_game.c **** 
 331:Core/Src/koth_game.c ****     LoRa_startReceiving(&myLoRa);
 332:Core/Src/koth_game.c ****     */
 333:Core/Src/koth_game.c **** 
 334:Core/Src/koth_game.c **** }
 923              		.loc 1 334 1 view .LVU211
 924 0000 7047     		bx	lr
 925              		.cfi_endproc
 926              	.LFE143:
 928              		.section	.text.doGameStateSimple,"ax",%progbits
 929              		.align	1
 930              		.global	doGameStateSimple
 931              		.syntax unified
 932              		.thumb
 933              		.thumb_func
 935              	doGameStateSimple:
 936              	.LFB144:
 335:Core/Src/koth_game.c **** 
ARM GAS  C:\Users\jdcox\AppData\Local\Temp\ccaN91Zf.s 			page 26


 336:Core/Src/koth_game.c **** void doGameStateSimple()
 337:Core/Src/koth_game.c **** {
 937              		.loc 1 337 1 view -0
 938              		.cfi_startproc
 939              		@ args = 0, pretend = 0, frame = 16
 940              		@ frame_needed = 0, uses_anonymous_args = 0
 941 0000 70B5     		push	{r4, r5, r6, lr}
 942              	.LCFI9:
 943              		.cfi_def_cfa_offset 16
 944              		.cfi_offset 4, -16
 945              		.cfi_offset 5, -12
 946              		.cfi_offset 6, -8
 947              		.cfi_offset 14, -4
 948 0002 84B0     		sub	sp, sp, #16
 949              	.LCFI10:
 950              		.cfi_def_cfa_offset 32
 338:Core/Src/koth_game.c **** 
 339:Core/Src/koth_game.c ****     switch (gameState)
 951              		.loc 1 339 5 view .LVU213
 952 0004 8C4B     		ldr	r3, .L60
 953 0006 1B78     		ldrb	r3, [r3]	@ zero_extendqisi2
 954 0008 023B     		subs	r3, r3, #2
 955 000a 062B     		cmp	r3, #6
 956 000c 0BD8     		bhi	.L49
 957 000e DFE813F0 		tbh	[pc, r3, lsl #1]
 958              	.L52:
 959 0012 2900     		.2byte	(.L56-.L52)/2
 960 0014 0A00     		.2byte	(.L49-.L52)/2
 961 0016 6000     		.2byte	(.L55-.L52)/2
 962 0018 0A00     		.2byte	(.L49-.L52)/2
 963 001a D500     		.2byte	(.L54-.L52)/2
 964 001c 9700     		.2byte	(.L53-.L52)/2
 965 001e 0700     		.2byte	(.L51-.L52)/2
 966              		.p2align 1
 967              	.L51:
 340:Core/Src/koth_game.c ****         {
 341:Core/Src/koth_game.c ****             case WAITING:
 342:Core/Src/koth_game.c ****                 if(stateChange_flag) // do once
 968              		.loc 1 342 17 view .LVU214
 969              		.loc 1 342 20 is_stmt 0 view .LVU215
 970 0020 864B     		ldr	r3, .L60+4
 971 0022 1B78     		ldrb	r3, [r3]	@ zero_extendqisi2
 972              		.loc 1 342 19 view .LVU216
 973 0024 0BB9     		cbnz	r3, .L59
 974              	.L49:
 343:Core/Src/koth_game.c ****                 { 
 344:Core/Src/koth_game.c ****                     stateChange_flag = 0;
 345:Core/Src/koth_game.c ****                     ssd1306_Fill(0); 
 346:Core/Src/koth_game.c ****                     ssd1306_SetCursor(0,0);
 347:Core/Src/koth_game.c ****                     if (THIS_PLAYER == RED) 
 348:Core/Src/koth_game.c ****                     {
 349:Core/Src/koth_game.c ****                         ssd1306_WriteString("RED",Font_11x18,1);
 350:Core/Src/koth_game.c ****                     }
 351:Core/Src/koth_game.c ****                     else 
 352:Core/Src/koth_game.c ****                     {
 353:Core/Src/koth_game.c ****                         ssd1306_WriteString("BLUE",Font_11x18,1);
 354:Core/Src/koth_game.c ****                     }
ARM GAS  C:\Users\jdcox\AppData\Local\Temp\ccaN91Zf.s 			page 27


 355:Core/Src/koth_game.c ****                     ssd1306_SetCursor(25,21);
 356:Core/Src/koth_game.c ****                     ssd1306_WriteString("Push to play!",Font_7x10,1);
 357:Core/Src/koth_game.c ****                     ssd1306_UpdateScreen();
 358:Core/Src/koth_game.c ****                 }
 359:Core/Src/koth_game.c ****             break;
 360:Core/Src/koth_game.c **** 
 361:Core/Src/koth_game.c **** 
 362:Core/Src/koth_game.c ****             case RED:
 363:Core/Src/koth_game.c ****                 if(stateChange_flag)
 364:Core/Src/koth_game.c ****                 {
 365:Core/Src/koth_game.c ****                     setOpcode(RED);
 366:Core/Src/koth_game.c ****                     newTX_flag = 1;
 367:Core/Src/koth_game.c ****                     stateChange_flag = 0;
 368:Core/Src/koth_game.c ****                     red_flag = 1;
 369:Core/Src/koth_game.c ****                     blue_flag = 0;
 370:Core/Src/koth_game.c ****                     REDLED_ON;
 371:Core/Src/koth_game.c ****                     BLUELED_OFF;
 372:Core/Src/koth_game.c ****                     ssd1306_Fill(0);
 373:Core/Src/koth_game.c ****                     ssd1306_SetCursor(0,0);
 374:Core/Src/koth_game.c ****                     ssd1306_WriteString("RED is king",Font_7x10,1);
 375:Core/Src/koth_game.c ****                     ssd1306_SetCursor(0,10);
 376:Core/Src/koth_game.c ****                     ssd1306_WriteString("of the hill!",Font_7x10,1);
 377:Core/Src/koth_game.c ****                     ssd1306_UpdateScreen();
 378:Core/Src/koth_game.c ****                 }
 379:Core/Src/koth_game.c ****             break;
 380:Core/Src/koth_game.c **** 
 381:Core/Src/koth_game.c ****             case BLUE:
 382:Core/Src/koth_game.c ****                 if(stateChange_flag)
 383:Core/Src/koth_game.c ****                 {
 384:Core/Src/koth_game.c ****                     setOpcode(BLUE);
 385:Core/Src/koth_game.c ****                     newTX_flag = 1;
 386:Core/Src/koth_game.c ****                     stateChange_flag = 0;
 387:Core/Src/koth_game.c ****                     red_flag = 0;
 388:Core/Src/koth_game.c ****                     blue_flag = 1;
 389:Core/Src/koth_game.c ****                     REDLED_OFF;
 390:Core/Src/koth_game.c ****                     BLUELED_ON;
 391:Core/Src/koth_game.c ****                     ssd1306_Fill(0);
 392:Core/Src/koth_game.c ****                     ssd1306_SetCursor(0,0);
 393:Core/Src/koth_game.c ****                     ssd1306_WriteString("BLUE is king",Font_7x10,1);
 394:Core/Src/koth_game.c ****                     ssd1306_SetCursor(0,10);
 395:Core/Src/koth_game.c ****                     ssd1306_WriteString("of the hill!",Font_7x10,1);
 396:Core/Src/koth_game.c ****                     ssd1306_UpdateScreen();
 397:Core/Src/koth_game.c ****                 }
 398:Core/Src/koth_game.c ****             break;
 399:Core/Src/koth_game.c **** 
 400:Core/Src/koth_game.c ****             case REDWINS:
 401:Core/Src/koth_game.c ****                 if(stateChange_flag)
 402:Core/Src/koth_game.c ****                 {
 403:Core/Src/koth_game.c ****                     setOpcode(REDWINS);
 404:Core/Src/koth_game.c ****                     newTX_flag = 1;
 405:Core/Src/koth_game.c ****                     stateChange_flag = 0;
 406:Core/Src/koth_game.c ****                     REDLED_ON;
 407:Core/Src/koth_game.c ****                     BLUELED_OFF;
 408:Core/Src/koth_game.c ****                     ssd1306_Fill(0);
 409:Core/Src/koth_game.c ****                     ssd1306_SetCursor(0,0);
 410:Core/Src/koth_game.c ****                     ssd1306_WriteString("Red wins!",Font_7x10,1);
 411:Core/Src/koth_game.c ****                     char score [16];
ARM GAS  C:\Users\jdcox\AppData\Local\Temp\ccaN91Zf.s 			page 28


 412:Core/Src/koth_game.c ****                     uint16_t difference = red_counter - blue_counter;
 413:Core/Src/koth_game.c ****                     sprintf(score, "Won by %ums", difference);
 414:Core/Src/koth_game.c ****                     lcd_put_cur(1,0);
 415:Core/Src/koth_game.c ****                     ssd1306_WriteString(score,Font_7x10,1);
 416:Core/Src/koth_game.c ****                     ssd1306_UpdateScreen();
 417:Core/Src/koth_game.c ****                 }
 418:Core/Src/koth_game.c ****             break;
 419:Core/Src/koth_game.c **** 
 420:Core/Src/koth_game.c ****             case BLUEWINS:
 421:Core/Src/koth_game.c ****                 if(stateChange_flag)
 422:Core/Src/koth_game.c ****                 {
 423:Core/Src/koth_game.c ****                     setOpcode(BLUEWINS);
 424:Core/Src/koth_game.c ****                     newTX_flag = 1;
 425:Core/Src/koth_game.c ****                     stateChange_flag = 0;
 426:Core/Src/koth_game.c ****                     REDLED_OFF;
 427:Core/Src/koth_game.c ****                     BLUELED_ON;
 428:Core/Src/koth_game.c ****                     ssd1306_Fill(0);
 429:Core/Src/koth_game.c ****                     ssd1306_SetCursor(0,0);
 430:Core/Src/koth_game.c ****                     ssd1306_WriteString("Blue wins!",Font_7x10,1);
 431:Core/Src/koth_game.c ****                     char score [16];
 432:Core/Src/koth_game.c ****                     uint16_t difference = blue_counter - red_counter;
 433:Core/Src/koth_game.c ****                     sprintf(score, "Won by %ums", difference);
 434:Core/Src/koth_game.c ****                     lcd_put_cur(1,0);
 435:Core/Src/koth_game.c ****                     ssd1306_WriteString(score,Font_7x10,1);
 436:Core/Src/koth_game.c ****                     ssd1306_UpdateScreen();
 437:Core/Src/koth_game.c ****                 }
 438:Core/Src/koth_game.c ****             break;
 439:Core/Src/koth_game.c ****     }
 440:Core/Src/koth_game.c ****     
 441:Core/Src/koth_game.c **** 
 442:Core/Src/koth_game.c **** }
 975              		.loc 1 442 1 view .LVU217
 976 0026 04B0     		add	sp, sp, #16
 977              	.LCFI11:
 978              		.cfi_remember_state
 979              		.cfi_def_cfa_offset 16
 980              		@ sp needed
 981 0028 70BD     		pop	{r4, r5, r6, pc}
 982              	.L59:
 983              	.LCFI12:
 984              		.cfi_restore_state
 344:Core/Src/koth_game.c ****                     ssd1306_Fill(0); 
 985              		.loc 1 344 21 is_stmt 1 view .LVU218
 344:Core/Src/koth_game.c ****                     ssd1306_Fill(0); 
 986              		.loc 1 344 38 is_stmt 0 view .LVU219
 987 002a 0024     		movs	r4, #0
 988 002c 834B     		ldr	r3, .L60+4
 989 002e 1C70     		strb	r4, [r3]
 345:Core/Src/koth_game.c ****                     ssd1306_SetCursor(0,0);
 990              		.loc 1 345 21 is_stmt 1 view .LVU220
 991 0030 2046     		mov	r0, r4
 992 0032 FFF7FEFF 		bl	ssd1306_Fill
 993              	.LVL56:
 346:Core/Src/koth_game.c ****                     if (THIS_PLAYER == RED) 
 994              		.loc 1 346 21 view .LVU221
 995 0036 2146     		mov	r1, r4
 996 0038 2046     		mov	r0, r4
ARM GAS  C:\Users\jdcox\AppData\Local\Temp\ccaN91Zf.s 			page 29


 997 003a FFF7FEFF 		bl	ssd1306_SetCursor
 998              	.LVL57:
 347:Core/Src/koth_game.c ****                     {
 999              		.loc 1 347 21 view .LVU222
 353:Core/Src/koth_game.c ****                     }
 1000              		.loc 1 353 25 view .LVU223
 1001 003e 804A     		ldr	r2, .L60+8
 1002 0040 0123     		movs	r3, #1
 1003 0042 06CA     		ldm	r2, {r1, r2}
 1004 0044 7F48     		ldr	r0, .L60+12
 1005 0046 FFF7FEFF 		bl	ssd1306_WriteString
 1006              	.LVL58:
 355:Core/Src/koth_game.c ****                     ssd1306_WriteString("Push to play!",Font_7x10,1);
 1007              		.loc 1 355 21 view .LVU224
 1008 004a 1521     		movs	r1, #21
 1009 004c 1920     		movs	r0, #25
 1010 004e FFF7FEFF 		bl	ssd1306_SetCursor
 1011              	.LVL59:
 356:Core/Src/koth_game.c ****                     ssd1306_UpdateScreen();
 1012              		.loc 1 356 21 view .LVU225
 1013 0052 7D4A     		ldr	r2, .L60+16
 1014 0054 0123     		movs	r3, #1
 1015 0056 06CA     		ldm	r2, {r1, r2}
 1016 0058 7C48     		ldr	r0, .L60+20
 1017 005a FFF7FEFF 		bl	ssd1306_WriteString
 1018              	.LVL60:
 357:Core/Src/koth_game.c ****                 }
 1019              		.loc 1 357 21 view .LVU226
 1020 005e FFF7FEFF 		bl	ssd1306_UpdateScreen
 1021              	.LVL61:
 1022 0062 E0E7     		b	.L49
 1023              	.L56:
 363:Core/Src/koth_game.c ****                 {
 1024              		.loc 1 363 17 view .LVU227
 363:Core/Src/koth_game.c ****                 {
 1025              		.loc 1 363 20 is_stmt 0 view .LVU228
 1026 0064 754B     		ldr	r3, .L60+4
 1027 0066 1B78     		ldrb	r3, [r3]	@ zero_extendqisi2
 363:Core/Src/koth_game.c ****                 {
 1028              		.loc 1 363 19 view .LVU229
 1029 0068 002B     		cmp	r3, #0
 1030 006a DCD0     		beq	.L49
 365:Core/Src/koth_game.c ****                     newTX_flag = 1;
 1031              		.loc 1 365 21 is_stmt 1 view .LVU230
 1032 006c 0220     		movs	r0, #2
 1033 006e FFF7FEFF 		bl	setOpcode
 1034              	.LVL62:
 366:Core/Src/koth_game.c ****                     stateChange_flag = 0;
 1035              		.loc 1 366 21 view .LVU231
 366:Core/Src/koth_game.c ****                     stateChange_flag = 0;
 1036              		.loc 1 366 32 is_stmt 0 view .LVU232
 1037 0072 0125     		movs	r5, #1
 1038 0074 764B     		ldr	r3, .L60+24
 1039 0076 1D70     		strb	r5, [r3]
 367:Core/Src/koth_game.c ****                     red_flag = 1;
 1040              		.loc 1 367 21 is_stmt 1 view .LVU233
 367:Core/Src/koth_game.c ****                     red_flag = 1;
ARM GAS  C:\Users\jdcox\AppData\Local\Temp\ccaN91Zf.s 			page 30


 1041              		.loc 1 367 38 is_stmt 0 view .LVU234
 1042 0078 0024     		movs	r4, #0
 1043 007a 704B     		ldr	r3, .L60+4
 1044 007c 1C70     		strb	r4, [r3]
 368:Core/Src/koth_game.c ****                     blue_flag = 0;
 1045              		.loc 1 368 21 is_stmt 1 view .LVU235
 368:Core/Src/koth_game.c ****                     blue_flag = 0;
 1046              		.loc 1 368 30 is_stmt 0 view .LVU236
 1047 007e 754B     		ldr	r3, .L60+28
 1048 0080 1D70     		strb	r5, [r3]
 369:Core/Src/koth_game.c ****                     REDLED_ON;
 1049              		.loc 1 369 21 is_stmt 1 view .LVU237
 369:Core/Src/koth_game.c ****                     REDLED_ON;
 1050              		.loc 1 369 31 is_stmt 0 view .LVU238
 1051 0082 754B     		ldr	r3, .L60+32
 1052 0084 1C70     		strb	r4, [r3]
 370:Core/Src/koth_game.c ****                     BLUELED_OFF;
 1053              		.loc 1 370 21 is_stmt 1 view .LVU239
 1054 0086 754E     		ldr	r6, .L60+36
 1055 0088 2246     		mov	r2, r4
 1056 008a 0421     		movs	r1, #4
 1057 008c 3046     		mov	r0, r6
 1058 008e FFF7FEFF 		bl	HAL_GPIO_WritePin
 1059              	.LVL63:
 371:Core/Src/koth_game.c ****                     ssd1306_Fill(0);
 1060              		.loc 1 371 21 view .LVU240
 1061 0092 2A46     		mov	r2, r5
 1062 0094 0221     		movs	r1, #2
 1063 0096 3046     		mov	r0, r6
 1064 0098 FFF7FEFF 		bl	HAL_GPIO_WritePin
 1065              	.LVL64:
 372:Core/Src/koth_game.c ****                     ssd1306_SetCursor(0,0);
 1066              		.loc 1 372 21 view .LVU241
 1067 009c 2046     		mov	r0, r4
 1068 009e FFF7FEFF 		bl	ssd1306_Fill
 1069              	.LVL65:
 373:Core/Src/koth_game.c ****                     ssd1306_WriteString("RED is king",Font_7x10,1);
 1070              		.loc 1 373 21 view .LVU242
 1071 00a2 2146     		mov	r1, r4
 1072 00a4 2046     		mov	r0, r4
 1073 00a6 FFF7FEFF 		bl	ssd1306_SetCursor
 1074              	.LVL66:
 374:Core/Src/koth_game.c ****                     ssd1306_SetCursor(0,10);
 1075              		.loc 1 374 21 view .LVU243
 1076 00aa 674E     		ldr	r6, .L60+16
 1077 00ac 2B46     		mov	r3, r5
 1078 00ae 96E80600 		ldm	r6, {r1, r2}
 1079 00b2 6B48     		ldr	r0, .L60+40
 1080 00b4 FFF7FEFF 		bl	ssd1306_WriteString
 1081              	.LVL67:
 375:Core/Src/koth_game.c ****                     ssd1306_WriteString("of the hill!",Font_7x10,1);
 1082              		.loc 1 375 21 view .LVU244
 1083 00b8 0A21     		movs	r1, #10
 1084 00ba 2046     		mov	r0, r4
 1085 00bc FFF7FEFF 		bl	ssd1306_SetCursor
 1086              	.LVL68:
 376:Core/Src/koth_game.c ****                     ssd1306_UpdateScreen();
ARM GAS  C:\Users\jdcox\AppData\Local\Temp\ccaN91Zf.s 			page 31


 1087              		.loc 1 376 21 view .LVU245
 1088 00c0 2B46     		mov	r3, r5
 1089 00c2 96E80600 		ldm	r6, {r1, r2}
 1090 00c6 6748     		ldr	r0, .L60+44
 1091 00c8 FFF7FEFF 		bl	ssd1306_WriteString
 1092              	.LVL69:
 377:Core/Src/koth_game.c ****                 }
 1093              		.loc 1 377 21 view .LVU246
 1094 00cc FFF7FEFF 		bl	ssd1306_UpdateScreen
 1095              	.LVL70:
 1096 00d0 A9E7     		b	.L49
 1097              	.L55:
 382:Core/Src/koth_game.c ****                 {
 1098              		.loc 1 382 17 view .LVU247
 382:Core/Src/koth_game.c ****                 {
 1099              		.loc 1 382 20 is_stmt 0 view .LVU248
 1100 00d2 5A4B     		ldr	r3, .L60+4
 1101 00d4 1B78     		ldrb	r3, [r3]	@ zero_extendqisi2
 382:Core/Src/koth_game.c ****                 {
 1102              		.loc 1 382 19 view .LVU249
 1103 00d6 002B     		cmp	r3, #0
 1104 00d8 A5D0     		beq	.L49
 384:Core/Src/koth_game.c ****                     newTX_flag = 1;
 1105              		.loc 1 384 21 is_stmt 1 view .LVU250
 1106 00da 0420     		movs	r0, #4
 1107 00dc FFF7FEFF 		bl	setOpcode
 1108              	.LVL71:
 385:Core/Src/koth_game.c ****                     stateChange_flag = 0;
 1109              		.loc 1 385 21 view .LVU251
 385:Core/Src/koth_game.c ****                     stateChange_flag = 0;
 1110              		.loc 1 385 32 is_stmt 0 view .LVU252
 1111 00e0 0125     		movs	r5, #1
 1112 00e2 5B4B     		ldr	r3, .L60+24
 1113 00e4 1D70     		strb	r5, [r3]
 386:Core/Src/koth_game.c ****                     red_flag = 0;
 1114              		.loc 1 386 21 is_stmt 1 view .LVU253
 386:Core/Src/koth_game.c ****                     red_flag = 0;
 1115              		.loc 1 386 38 is_stmt 0 view .LVU254
 1116 00e6 0024     		movs	r4, #0
 1117 00e8 544B     		ldr	r3, .L60+4
 1118 00ea 1C70     		strb	r4, [r3]
 387:Core/Src/koth_game.c ****                     blue_flag = 1;
 1119              		.loc 1 387 21 is_stmt 1 view .LVU255
 387:Core/Src/koth_game.c ****                     blue_flag = 1;
 1120              		.loc 1 387 30 is_stmt 0 view .LVU256
 1121 00ec 594B     		ldr	r3, .L60+28
 1122 00ee 1C70     		strb	r4, [r3]
 388:Core/Src/koth_game.c ****                     REDLED_OFF;
 1123              		.loc 1 388 21 is_stmt 1 view .LVU257
 388:Core/Src/koth_game.c ****                     REDLED_OFF;
 1124              		.loc 1 388 31 is_stmt 0 view .LVU258
 1125 00f0 594B     		ldr	r3, .L60+32
 1126 00f2 1D70     		strb	r5, [r3]
 389:Core/Src/koth_game.c ****                     BLUELED_ON;
 1127              		.loc 1 389 21 is_stmt 1 view .LVU259
 1128 00f4 594E     		ldr	r6, .L60+36
 1129 00f6 2A46     		mov	r2, r5
ARM GAS  C:\Users\jdcox\AppData\Local\Temp\ccaN91Zf.s 			page 32


 1130 00f8 0421     		movs	r1, #4
 1131 00fa 3046     		mov	r0, r6
 1132 00fc FFF7FEFF 		bl	HAL_GPIO_WritePin
 1133              	.LVL72:
 390:Core/Src/koth_game.c ****                     ssd1306_Fill(0);
 1134              		.loc 1 390 21 view .LVU260
 1135 0100 2246     		mov	r2, r4
 1136 0102 0221     		movs	r1, #2
 1137 0104 3046     		mov	r0, r6
 1138 0106 FFF7FEFF 		bl	HAL_GPIO_WritePin
 1139              	.LVL73:
 391:Core/Src/koth_game.c ****                     ssd1306_SetCursor(0,0);
 1140              		.loc 1 391 21 view .LVU261
 1141 010a 2046     		mov	r0, r4
 1142 010c FFF7FEFF 		bl	ssd1306_Fill
 1143              	.LVL74:
 392:Core/Src/koth_game.c ****                     ssd1306_WriteString("BLUE is king",Font_7x10,1);
 1144              		.loc 1 392 21 view .LVU262
 1145 0110 2146     		mov	r1, r4
 1146 0112 2046     		mov	r0, r4
 1147 0114 FFF7FEFF 		bl	ssd1306_SetCursor
 1148              	.LVL75:
 393:Core/Src/koth_game.c ****                     ssd1306_SetCursor(0,10);
 1149              		.loc 1 393 21 view .LVU263
 1150 0118 4B4E     		ldr	r6, .L60+16
 1151 011a 2B46     		mov	r3, r5
 1152 011c 96E80600 		ldm	r6, {r1, r2}
 1153 0120 5148     		ldr	r0, .L60+48
 1154 0122 FFF7FEFF 		bl	ssd1306_WriteString
 1155              	.LVL76:
 394:Core/Src/koth_game.c ****                     ssd1306_WriteString("of the hill!",Font_7x10,1);
 1156              		.loc 1 394 21 view .LVU264
 1157 0126 0A21     		movs	r1, #10
 1158 0128 2046     		mov	r0, r4
 1159 012a FFF7FEFF 		bl	ssd1306_SetCursor
 1160              	.LVL77:
 395:Core/Src/koth_game.c ****                     ssd1306_UpdateScreen();
 1161              		.loc 1 395 21 view .LVU265
 1162 012e 2B46     		mov	r3, r5
 1163 0130 96E80600 		ldm	r6, {r1, r2}
 1164 0134 4B48     		ldr	r0, .L60+44
 1165 0136 FFF7FEFF 		bl	ssd1306_WriteString
 1166              	.LVL78:
 396:Core/Src/koth_game.c ****                 }
 1167              		.loc 1 396 21 view .LVU266
 1168 013a FFF7FEFF 		bl	ssd1306_UpdateScreen
 1169              	.LVL79:
 1170 013e 72E7     		b	.L49
 1171              	.L53:
 401:Core/Src/koth_game.c ****                 {
 1172              		.loc 1 401 17 view .LVU267
 401:Core/Src/koth_game.c ****                 {
 1173              		.loc 1 401 20 is_stmt 0 view .LVU268
 1174 0140 3E4B     		ldr	r3, .L60+4
 1175 0142 1B78     		ldrb	r3, [r3]	@ zero_extendqisi2
 401:Core/Src/koth_game.c ****                 {
 1176              		.loc 1 401 19 view .LVU269
ARM GAS  C:\Users\jdcox\AppData\Local\Temp\ccaN91Zf.s 			page 33


 1177 0144 002B     		cmp	r3, #0
 1178 0146 3FF46EAF 		beq	.L49
 1179              	.LBB5:
 403:Core/Src/koth_game.c ****                     newTX_flag = 1;
 1180              		.loc 1 403 21 is_stmt 1 view .LVU270
 1181 014a 0720     		movs	r0, #7
 1182 014c FFF7FEFF 		bl	setOpcode
 1183              	.LVL80:
 404:Core/Src/koth_game.c ****                     stateChange_flag = 0;
 1184              		.loc 1 404 21 view .LVU271
 404:Core/Src/koth_game.c ****                     stateChange_flag = 0;
 1185              		.loc 1 404 32 is_stmt 0 view .LVU272
 1186 0150 0125     		movs	r5, #1
 1187 0152 3F4B     		ldr	r3, .L60+24
 1188 0154 1D70     		strb	r5, [r3]
 405:Core/Src/koth_game.c ****                     REDLED_ON;
 1189              		.loc 1 405 21 is_stmt 1 view .LVU273
 405:Core/Src/koth_game.c ****                     REDLED_ON;
 1190              		.loc 1 405 38 is_stmt 0 view .LVU274
 1191 0156 0024     		movs	r4, #0
 1192 0158 384B     		ldr	r3, .L60+4
 1193 015a 1C70     		strb	r4, [r3]
 406:Core/Src/koth_game.c ****                     BLUELED_OFF;
 1194              		.loc 1 406 21 is_stmt 1 view .LVU275
 1195 015c 3F4E     		ldr	r6, .L60+36
 1196 015e 2246     		mov	r2, r4
 1197 0160 0421     		movs	r1, #4
 1198 0162 3046     		mov	r0, r6
 1199 0164 FFF7FEFF 		bl	HAL_GPIO_WritePin
 1200              	.LVL81:
 407:Core/Src/koth_game.c ****                     ssd1306_Fill(0);
 1201              		.loc 1 407 21 view .LVU276
 1202 0168 2A46     		mov	r2, r5
 1203 016a 0221     		movs	r1, #2
 1204 016c 3046     		mov	r0, r6
 1205 016e FFF7FEFF 		bl	HAL_GPIO_WritePin
 1206              	.LVL82:
 408:Core/Src/koth_game.c ****                     ssd1306_SetCursor(0,0);
 1207              		.loc 1 408 21 view .LVU277
 1208 0172 2046     		mov	r0, r4
 1209 0174 FFF7FEFF 		bl	ssd1306_Fill
 1210              	.LVL83:
 409:Core/Src/koth_game.c ****                     ssd1306_WriteString("Red wins!",Font_7x10,1);
 1211              		.loc 1 409 21 view .LVU278
 1212 0178 2146     		mov	r1, r4
 1213 017a 2046     		mov	r0, r4
 1214 017c FFF7FEFF 		bl	ssd1306_SetCursor
 1215              	.LVL84:
 410:Core/Src/koth_game.c ****                     char score [16];
 1216              		.loc 1 410 21 view .LVU279
 1217 0180 314E     		ldr	r6, .L60+16
 1218 0182 2B46     		mov	r3, r5
 1219 0184 96E80600 		ldm	r6, {r1, r2}
 1220 0188 3848     		ldr	r0, .L60+52
 1221 018a FFF7FEFF 		bl	ssd1306_WriteString
 1222              	.LVL85:
 411:Core/Src/koth_game.c ****                     uint16_t difference = red_counter - blue_counter;
ARM GAS  C:\Users\jdcox\AppData\Local\Temp\ccaN91Zf.s 			page 34


 1223              		.loc 1 411 21 view .LVU280
 412:Core/Src/koth_game.c ****                     sprintf(score, "Won by %ums", difference);
 1224              		.loc 1 412 21 view .LVU281
 412:Core/Src/koth_game.c ****                     sprintf(score, "Won by %ums", difference);
 1225              		.loc 1 412 55 is_stmt 0 view .LVU282
 1226 018e 384B     		ldr	r3, .L60+56
 1227 0190 1A88     		ldrh	r2, [r3]
 1228 0192 384B     		ldr	r3, .L60+60
 1229 0194 1B88     		ldrh	r3, [r3]
 412:Core/Src/koth_game.c ****                     sprintf(score, "Won by %ums", difference);
 1230              		.loc 1 412 30 view .LVU283
 1231 0196 D21A     		subs	r2, r2, r3
 1232              	.LVL86:
 413:Core/Src/koth_game.c ****                     lcd_put_cur(1,0);
 1233              		.loc 1 413 21 is_stmt 1 view .LVU284
 1234 0198 92B2     		uxth	r2, r2
 413:Core/Src/koth_game.c ****                     lcd_put_cur(1,0);
 1235              		.loc 1 413 21 is_stmt 0 view .LVU285
 1236 019a 3749     		ldr	r1, .L60+64
 1237 019c 6846     		mov	r0, sp
 1238 019e FFF7FEFF 		bl	sprintf
 1239              	.LVL87:
 414:Core/Src/koth_game.c ****                     ssd1306_WriteString(score,Font_7x10,1);
 1240              		.loc 1 414 21 is_stmt 1 view .LVU286
 1241 01a2 2146     		mov	r1, r4
 1242 01a4 2846     		mov	r0, r5
 1243 01a6 FFF7FEFF 		bl	lcd_put_cur
 1244              	.LVL88:
 415:Core/Src/koth_game.c ****                     ssd1306_UpdateScreen();
 1245              		.loc 1 415 21 view .LVU287
 1246 01aa 2B46     		mov	r3, r5
 1247 01ac 96E80600 		ldm	r6, {r1, r2}
 1248 01b0 6846     		mov	r0, sp
 1249 01b2 FFF7FEFF 		bl	ssd1306_WriteString
 1250              	.LVL89:
 416:Core/Src/koth_game.c ****                 }
 1251              		.loc 1 416 21 view .LVU288
 1252 01b6 FFF7FEFF 		bl	ssd1306_UpdateScreen
 1253              	.LVL90:
 1254 01ba 34E7     		b	.L49
 1255              	.L54:
 416:Core/Src/koth_game.c ****                 }
 1256              		.loc 1 416 21 is_stmt 0 view .LVU289
 1257              	.LBE5:
 421:Core/Src/koth_game.c ****                 {
 1258              		.loc 1 421 17 is_stmt 1 view .LVU290
 421:Core/Src/koth_game.c ****                 {
 1259              		.loc 1 421 20 is_stmt 0 view .LVU291
 1260 01bc 1F4B     		ldr	r3, .L60+4
 1261 01be 1B78     		ldrb	r3, [r3]	@ zero_extendqisi2
 421:Core/Src/koth_game.c ****                 {
 1262              		.loc 1 421 19 view .LVU292
 1263 01c0 002B     		cmp	r3, #0
 1264 01c2 3FF430AF 		beq	.L49
 1265              	.LBB6:
 423:Core/Src/koth_game.c ****                     newTX_flag = 1;
 1266              		.loc 1 423 21 is_stmt 1 view .LVU293
ARM GAS  C:\Users\jdcox\AppData\Local\Temp\ccaN91Zf.s 			page 35


 1267 01c6 0620     		movs	r0, #6
 1268 01c8 FFF7FEFF 		bl	setOpcode
 1269              	.LVL91:
 424:Core/Src/koth_game.c ****                     stateChange_flag = 0;
 1270              		.loc 1 424 21 view .LVU294
 424:Core/Src/koth_game.c ****                     stateChange_flag = 0;
 1271              		.loc 1 424 32 is_stmt 0 view .LVU295
 1272 01cc 0125     		movs	r5, #1
 1273 01ce 204B     		ldr	r3, .L60+24
 1274 01d0 1D70     		strb	r5, [r3]
 425:Core/Src/koth_game.c ****                     REDLED_OFF;
 1275              		.loc 1 425 21 is_stmt 1 view .LVU296
 425:Core/Src/koth_game.c ****                     REDLED_OFF;
 1276              		.loc 1 425 38 is_stmt 0 view .LVU297
 1277 01d2 0024     		movs	r4, #0
 1278 01d4 194B     		ldr	r3, .L60+4
 1279 01d6 1C70     		strb	r4, [r3]
 426:Core/Src/koth_game.c ****                     BLUELED_ON;
 1280              		.loc 1 426 21 is_stmt 1 view .LVU298
 1281 01d8 204E     		ldr	r6, .L60+36
 1282 01da 2A46     		mov	r2, r5
 1283 01dc 0421     		movs	r1, #4
 1284 01de 3046     		mov	r0, r6
 1285 01e0 FFF7FEFF 		bl	HAL_GPIO_WritePin
 1286              	.LVL92:
 427:Core/Src/koth_game.c ****                     ssd1306_Fill(0);
 1287              		.loc 1 427 21 view .LVU299
 1288 01e4 2246     		mov	r2, r4
 1289 01e6 0221     		movs	r1, #2
 1290 01e8 3046     		mov	r0, r6
 1291 01ea FFF7FEFF 		bl	HAL_GPIO_WritePin
 1292              	.LVL93:
 428:Core/Src/koth_game.c ****                     ssd1306_SetCursor(0,0);
 1293              		.loc 1 428 21 view .LVU300
 1294 01ee 2046     		mov	r0, r4
 1295 01f0 FFF7FEFF 		bl	ssd1306_Fill
 1296              	.LVL94:
 429:Core/Src/koth_game.c ****                     ssd1306_WriteString("Blue wins!",Font_7x10,1);
 1297              		.loc 1 429 21 view .LVU301
 1298 01f4 2146     		mov	r1, r4
 1299 01f6 2046     		mov	r0, r4
 1300 01f8 FFF7FEFF 		bl	ssd1306_SetCursor
 1301              	.LVL95:
 430:Core/Src/koth_game.c ****                     char score [16];
 1302              		.loc 1 430 21 view .LVU302
 1303 01fc 124E     		ldr	r6, .L60+16
 1304 01fe 2B46     		mov	r3, r5
 1305 0200 96E80600 		ldm	r6, {r1, r2}
 1306 0204 1D48     		ldr	r0, .L60+68
 1307 0206 FFF7FEFF 		bl	ssd1306_WriteString
 1308              	.LVL96:
 431:Core/Src/koth_game.c ****                     uint16_t difference = blue_counter - red_counter;
 1309              		.loc 1 431 21 view .LVU303
 432:Core/Src/koth_game.c ****                     sprintf(score, "Won by %ums", difference);
 1310              		.loc 1 432 21 view .LVU304
 432:Core/Src/koth_game.c ****                     sprintf(score, "Won by %ums", difference);
 1311              		.loc 1 432 56 is_stmt 0 view .LVU305
ARM GAS  C:\Users\jdcox\AppData\Local\Temp\ccaN91Zf.s 			page 36


 1312 020a 1A4B     		ldr	r3, .L60+60
 1313 020c 1A88     		ldrh	r2, [r3]
 1314 020e 184B     		ldr	r3, .L60+56
 1315 0210 1B88     		ldrh	r3, [r3]
 432:Core/Src/koth_game.c ****                     sprintf(score, "Won by %ums", difference);
 1316              		.loc 1 432 30 view .LVU306
 1317 0212 D21A     		subs	r2, r2, r3
 1318              	.LVL97:
 433:Core/Src/koth_game.c ****                     lcd_put_cur(1,0);
 1319              		.loc 1 433 21 is_stmt 1 view .LVU307
 1320 0214 92B2     		uxth	r2, r2
 433:Core/Src/koth_game.c ****                     lcd_put_cur(1,0);
 1321              		.loc 1 433 21 is_stmt 0 view .LVU308
 1322 0216 1849     		ldr	r1, .L60+64
 1323 0218 6846     		mov	r0, sp
 1324 021a FFF7FEFF 		bl	sprintf
 1325              	.LVL98:
 434:Core/Src/koth_game.c ****                     ssd1306_WriteString(score,Font_7x10,1);
 1326              		.loc 1 434 21 is_stmt 1 view .LVU309
 1327 021e 2146     		mov	r1, r4
 1328 0220 2846     		mov	r0, r5
 1329 0222 FFF7FEFF 		bl	lcd_put_cur
 1330              	.LVL99:
 435:Core/Src/koth_game.c ****                     ssd1306_UpdateScreen();
 1331              		.loc 1 435 21 view .LVU310
 1332 0226 2B46     		mov	r3, r5
 1333 0228 96E80600 		ldm	r6, {r1, r2}
 1334 022c 6846     		mov	r0, sp
 1335 022e FFF7FEFF 		bl	ssd1306_WriteString
 1336              	.LVL100:
 436:Core/Src/koth_game.c ****                 }
 1337              		.loc 1 436 21 view .LVU311
 1338 0232 FFF7FEFF 		bl	ssd1306_UpdateScreen
 1339              	.LVL101:
 1340              	.LBE6:
 1341              		.loc 1 442 1 is_stmt 0 view .LVU312
 1342 0236 F6E6     		b	.L49
 1343              	.L61:
 1344              		.align	2
 1345              	.L60:
 1346 0238 00000000 		.word	gameState
 1347 023c 00000000 		.word	stateChange_flag
 1348 0240 00000000 		.word	Font_11x18
 1349 0244 00000000 		.word	.LC2
 1350 0248 00000000 		.word	Font_7x10
 1351 024c 08000000 		.word	.LC3
 1352 0250 00000000 		.word	newTX_flag
 1353 0254 00000000 		.word	red_flag
 1354 0258 00000000 		.word	blue_flag
 1355 025c 00040240 		.word	1073873920
 1356 0260 18000000 		.word	.LC4
 1357 0264 24000000 		.word	.LC5
 1358 0268 34000000 		.word	.LC6
 1359 026c 44000000 		.word	.LC7
 1360 0270 00000000 		.word	red_counter
 1361 0274 00000000 		.word	blue_counter
 1362 0278 50000000 		.word	.LC8
ARM GAS  C:\Users\jdcox\AppData\Local\Temp\ccaN91Zf.s 			page 37


 1363 027c 5C000000 		.word	.LC9
 1364              		.cfi_endproc
 1365              	.LFE144:
 1367              		.text
 1368              	.Letext0:
 1369              		.file 2 "c:\\libraries\\gcc\\11.2 2022.02\\arm-none-eabi\\include\\machine\\_default_types.h"
 1370              		.file 3 "c:\\libraries\\gcc\\11.2 2022.02\\arm-none-eabi\\include\\sys\\_stdint.h"
 1371              		.file 4 "Drivers/CMSIS/Device/ST/STM32F4xx/Include/stm32f401xc.h"
 1372              		.file 5 "c:\\libraries\\gcc\\11.2 2022.02\\lib\\gcc\\arm-none-eabi\\11.2.1\\include\\stddef.h"
 1373              		.file 6 "Drivers/CMSIS/Device/ST/STM32F4xx/Include/stm32f4xx.h"
 1374              		.file 7 "Drivers/STM32F4xx_HAL_Driver/Inc/stm32f4xx_hal_gpio.h"
 1375              		.file 8 "Middlewares/Third_Party/FreeRTOS/Source/CMSIS_RTOS/cmsis_os.h"
 1376              		.file 9 "Core/Inc/extern.h"
 1377              		.file 10 "Core/Inc/ssd1306_fonts.h"
 1378              		.file 11 "Core/Inc/ssd1306.h"
 1379              		.file 12 "c:\\libraries\\gcc\\11.2 2022.02\\arm-none-eabi\\include\\string.h"
 1380              		.file 13 "c:\\libraries\\gcc\\11.2 2022.02\\arm-none-eabi\\include\\stdlib.h"
 1381              		.file 14 "c:\\libraries\\gcc\\11.2 2022.02\\arm-none-eabi\\include\\stdio.h"
ARM GAS  C:\Users\jdcox\AppData\Local\Temp\ccaN91Zf.s 			page 38


DEFINED SYMBOLS
                            *ABS*:00000000 koth_game.c
C:\Users\jdcox\AppData\Local\Temp\ccaN91Zf.s:20     .text.resetGame:00000000 $t
C:\Users\jdcox\AppData\Local\Temp\ccaN91Zf.s:26     .text.resetGame:00000000 resetGame
C:\Users\jdcox\AppData\Local\Temp\ccaN91Zf.s:83     .text.resetGame:00000038 $d
C:\Users\jdcox\AppData\Local\Temp\ccaN91Zf.s:94     .rodata.decodeKOTHPacket.str1.4:00000000 $d
C:\Users\jdcox\AppData\Local\Temp\ccaN91Zf.s:98     .text.decodeKOTHPacket:00000000 $t
C:\Users\jdcox\AppData\Local\Temp\ccaN91Zf.s:104    .text.decodeKOTHPacket:00000000 decodeKOTHPacket
C:\Users\jdcox\AppData\Local\Temp\ccaN91Zf.s:170    .text.decodeKOTHPacket:00000038 $d
C:\Users\jdcox\AppData\Local\Temp\ccaN91Zf.s:179    .text.btnPressed:00000000 $t
C:\Users\jdcox\AppData\Local\Temp\ccaN91Zf.s:185    .text.btnPressed:00000000 btnPressed
C:\Users\jdcox\AppData\Local\Temp\ccaN91Zf.s:200    .text.btnPressed:0000000e $d
C:\Users\jdcox\AppData\Local\Temp\ccaN91Zf.s:263    .text.btnPressed:0000004c $d
C:\Users\jdcox\AppData\Local\Temp\ccaN91Zf.s:269    .rodata.setOpcode.str1.4:00000000 $d
C:\Users\jdcox\AppData\Local\Temp\ccaN91Zf.s:273    .text.setOpcode:00000000 $t
C:\Users\jdcox\AppData\Local\Temp\ccaN91Zf.s:279    .text.setOpcode:00000000 setOpcode
C:\Users\jdcox\AppData\Local\Temp\ccaN91Zf.s:317    .text.setOpcode:00000024 $d
C:\Users\jdcox\AppData\Local\Temp\ccaN91Zf.s:325    .rodata.doGameState.str1.4:00000000 $d
C:\Users\jdcox\AppData\Local\Temp\ccaN91Zf.s:350    .text.doGameState:00000000 $t
C:\Users\jdcox\AppData\Local\Temp\ccaN91Zf.s:356    .text.doGameState:00000000 doGameState
C:\Users\jdcox\AppData\Local\Temp\ccaN91Zf.s:386    .text.doGameState:00000018 $d
C:\Users\jdcox\AppData\Local\Temp\ccaN91Zf.s:422    .text.doGameState:00000040 $d
C:\Users\jdcox\AppData\Local\Temp\ccaN91Zf.s:430    .text.doGameState:00000050 $t
C:\Users\jdcox\AppData\Local\Temp\ccaN91Zf.s:886    .text.doGameState:000002b8 $d
C:\Users\jdcox\AppData\Local\Temp\ccaN91Zf.s:910    .text.btnPressedSimple:00000000 $t
C:\Users\jdcox\AppData\Local\Temp\ccaN91Zf.s:916    .text.btnPressedSimple:00000000 btnPressedSimple
C:\Users\jdcox\AppData\Local\Temp\ccaN91Zf.s:929    .text.doGameStateSimple:00000000 $t
C:\Users\jdcox\AppData\Local\Temp\ccaN91Zf.s:935    .text.doGameStateSimple:00000000 doGameStateSimple
C:\Users\jdcox\AppData\Local\Temp\ccaN91Zf.s:959    .text.doGameStateSimple:00000012 $d
C:\Users\jdcox\AppData\Local\Temp\ccaN91Zf.s:966    .text.doGameStateSimple:00000020 $t
C:\Users\jdcox\AppData\Local\Temp\ccaN91Zf.s:1346   .text.doGameStateSimple:00000238 $d
C:\Users\jdcox\AppData\Local\Temp\ccaN91Zf.s:207    .text.btnPressed:00000015 $d
C:\Users\jdcox\AppData\Local\Temp\ccaN91Zf.s:207    .text.btnPressed:00000016 $t
C:\Users\jdcox\AppData\Local\Temp\ccaN91Zf.s:393    .text.doGameState:0000001f $d
C:\Users\jdcox\AppData\Local\Temp\ccaN91Zf.s:393    .text.doGameState:00000020 $t

UNDEFINED SYMBOLS
HAL_GPIO_WritePin
red_flag
blue_flag
red_counter
blue_counter
gameState
stateChange_flag
strstr
strtol
receivedPacket
loraRXopcode
sprintf
opcodeString
gameStateNames
txReadable
ssd1306_Fill
ssd1306_SetCursor
ssd1306_WriteString
ssd1306_UpdateScreen
osDelay
ARM GAS  C:\Users\jdcox\AppData\Local\Temp\ccaN91Zf.s 			page 39


lcd_put_cur
newRX_flag
Font_11x18
Font_7x10
newTX_flag
