ARM GAS  C:\Users\jdcox\AppData\Local\Temp\ccqAZpOk.s 			page 1


   1              		.cpu cortex-m4
   2              		.arch armv7e-m
   3              		.fpu fpv4-sp-d16
   4              		.eabi_attribute 27, 1
   5              		.eabi_attribute 28, 1
   6              		.eabi_attribute 20, 1
   7              		.eabi_attribute 21, 1
   8              		.eabi_attribute 23, 3
   9              		.eabi_attribute 24, 1
  10              		.eabi_attribute 25, 1
  11              		.eabi_attribute 26, 1
  12              		.eabi_attribute 30, 1
  13              		.eabi_attribute 34, 1
  14              		.eabi_attribute 18, 4
  15              		.file	"lora.c"
  16              		.text
  17              	.Ltext0:
  18              		.cfi_sections	.debug_frame
  19              		.section	.text.newLoRa,"ax",%progbits
  20              		.align	1
  21              		.global	newLoRa
  22              		.syntax unified
  23              		.thumb
  24              		.thumb_func
  26              	newLoRa:
  27              	.LVL0:
  28              	.LFB130:
  29              		.file 1 "Core/Src/lora.c"
   1:Core/Src/lora.c **** #include "LoRa.h"
   2:Core/Src/lora.c **** 
   3:Core/Src/lora.c **** /* ----------------------------------------------------------------------------- *\
   4:Core/Src/lora.c **** 		name        : newLoRa
   5:Core/Src/lora.c **** 
   6:Core/Src/lora.c **** 		description : it's a constructor for LoRa structure that assign default values
   7:Core/Src/lora.c **** 									and pass created object (LoRa struct instanse)
   8:Core/Src/lora.c **** 
   9:Core/Src/lora.c **** 		arguments   : Nothing
  10:Core/Src/lora.c **** 
  11:Core/Src/lora.c **** 		returns     : A LoRa object whith these default values:
  12:Core/Src/lora.c **** 											----------------------------------------
  13:Core/Src/lora.c **** 										  |   carrier frequency = 433 MHz        |
  14:Core/Src/lora.c **** 										  |    spreading factor = 7				       |
  15:Core/Src/lora.c **** 											|           bandwidth = 125 KHz        |
  16:Core/Src/lora.c **** 											| 		    coding rate = 4/5            |
  17:Core/Src/lora.c **** 											----------------------------------------
  18:Core/Src/lora.c **** \* ----------------------------------------------------------------------------- */
  19:Core/Src/lora.c **** LoRa newLoRa(){
  30              		.loc 1 19 15 view -0
  31              		.cfi_startproc
  32              		@ args = 0, pretend = 0, frame = 0
  33              		@ frame_needed = 0, uses_anonymous_args = 0
  34              		@ link register save eliminated.
  20:Core/Src/lora.c **** 	LoRa new_LoRa;
  35              		.loc 1 20 2 view .LVU1
  21:Core/Src/lora.c **** 
  22:Core/Src/lora.c **** 	new_LoRa.frequency             = 433       ;
  36              		.loc 1 22 2 view .LVU2
ARM GAS  C:\Users\jdcox\AppData\Local\Temp\ccqAZpOk.s 			page 2


  37              		.loc 1 22 33 is_stmt 0 view .LVU3
  38 0000 40F2B112 		movw	r2, #433
  39 0004 0262     		str	r2, [r0, #32]
  23:Core/Src/lora.c **** 	new_LoRa.spredingFactor        = SF_7      ;
  40              		.loc 1 23 2 is_stmt 1 view .LVU4
  41              		.loc 1 23 33 is_stmt 0 view .LVU5
  42 0006 0722     		movs	r2, #7
  43 0008 80F82420 		strb	r2, [r0, #36]
  24:Core/Src/lora.c **** 	new_LoRa.bandWidth			   = BW_125KHz ;
  44              		.loc 1 24 2 is_stmt 1 view .LVU6
  45              		.loc 1 24 26 is_stmt 0 view .LVU7
  46 000c 80F82520 		strb	r2, [r0, #37]
  25:Core/Src/lora.c **** 	new_LoRa.crcRate               = CR_4_5    ;
  47              		.loc 1 25 2 is_stmt 1 view .LVU8
  48              		.loc 1 25 33 is_stmt 0 view .LVU9
  49 0010 0122     		movs	r2, #1
  50 0012 80F82620 		strb	r2, [r0, #38]
  26:Core/Src/lora.c **** 	new_LoRa.power				   = POWER_20db;
  51              		.loc 1 26 2 is_stmt 1 view .LVU10
  52              		.loc 1 26 23 is_stmt 0 view .LVU11
  53 0016 FF22     		movs	r2, #255
  54 0018 80F82A20 		strb	r2, [r0, #42]
  27:Core/Src/lora.c **** 	new_LoRa.overCurrentProtection = 100       ;
  55              		.loc 1 27 2 is_stmt 1 view .LVU12
  56              		.loc 1 27 33 is_stmt 0 view .LVU13
  57 001c 6422     		movs	r2, #100
  58 001e 80F82B20 		strb	r2, [r0, #43]
  28:Core/Src/lora.c **** 	new_LoRa.preamble			   = 8         ;
  59              		.loc 1 28 2 is_stmt 1 view .LVU14
  60              		.loc 1 28 25 is_stmt 0 view .LVU15
  61 0022 0822     		movs	r2, #8
  62 0024 0285     		strh	r2, [r0, #40]	@ movhi
  29:Core/Src/lora.c **** 
  30:Core/Src/lora.c **** 	return new_LoRa;
  63              		.loc 1 30 2 is_stmt 1 view .LVU16
  31:Core/Src/lora.c **** }
  64              		.loc 1 31 1 is_stmt 0 view .LVU17
  65 0026 7047     		bx	lr
  66              		.cfi_endproc
  67              	.LFE130:
  69              		.section	.text.LoRa_reset,"ax",%progbits
  70              		.align	1
  71              		.global	LoRa_reset
  72              		.syntax unified
  73              		.thumb
  74              		.thumb_func
  76              	LoRa_reset:
  77              	.LVL1:
  78              	.LFB131:
  32:Core/Src/lora.c **** /* ----------------------------------------------------------------------------- *\
  33:Core/Src/lora.c **** 		name        : LoRa_reset
  34:Core/Src/lora.c **** 
  35:Core/Src/lora.c **** 		description : reset module
  36:Core/Src/lora.c **** 
  37:Core/Src/lora.c **** 		arguments   :
  38:Core/Src/lora.c **** 			LoRa* LoRa --> LoRa object handler
  39:Core/Src/lora.c **** 
ARM GAS  C:\Users\jdcox\AppData\Local\Temp\ccqAZpOk.s 			page 3


  40:Core/Src/lora.c **** 		returns     : Nothing
  41:Core/Src/lora.c **** \* ----------------------------------------------------------------------------- */
  42:Core/Src/lora.c **** void LoRa_reset(LoRa* _LoRa){
  79              		.loc 1 42 29 is_stmt 1 view -0
  80              		.cfi_startproc
  81              		@ args = 0, pretend = 0, frame = 0
  82              		@ frame_needed = 0, uses_anonymous_args = 0
  83              		.loc 1 42 29 is_stmt 0 view .LVU19
  84 0000 10B5     		push	{r4, lr}
  85              	.LCFI0:
  86              		.cfi_def_cfa_offset 8
  87              		.cfi_offset 4, -8
  88              		.cfi_offset 14, -4
  89 0002 0446     		mov	r4, r0
  43:Core/Src/lora.c **** 	HAL_GPIO_WritePin(_LoRa->reset_port, _LoRa->reset_pin, GPIO_PIN_RESET);
  90              		.loc 1 43 2 is_stmt 1 view .LVU20
  91 0004 0022     		movs	r2, #0
  92 0006 8189     		ldrh	r1, [r0, #12]
  93 0008 8068     		ldr	r0, [r0, #8]
  94              	.LVL2:
  95              		.loc 1 43 2 is_stmt 0 view .LVU21
  96 000a FFF7FEFF 		bl	HAL_GPIO_WritePin
  97              	.LVL3:
  44:Core/Src/lora.c **** 	HAL_Delay(1);
  98              		.loc 1 44 2 is_stmt 1 view .LVU22
  99 000e 0120     		movs	r0, #1
 100 0010 FFF7FEFF 		bl	HAL_Delay
 101              	.LVL4:
  45:Core/Src/lora.c **** 	HAL_GPIO_WritePin(_LoRa->reset_port, _LoRa->reset_pin, GPIO_PIN_SET);
 102              		.loc 1 45 2 view .LVU23
 103 0014 0122     		movs	r2, #1
 104 0016 A189     		ldrh	r1, [r4, #12]
 105 0018 A068     		ldr	r0, [r4, #8]
 106 001a FFF7FEFF 		bl	HAL_GPIO_WritePin
 107              	.LVL5:
  46:Core/Src/lora.c **** 	HAL_Delay(100);
 108              		.loc 1 46 2 view .LVU24
 109 001e 6420     		movs	r0, #100
 110 0020 FFF7FEFF 		bl	HAL_Delay
 111              	.LVL6:
  47:Core/Src/lora.c **** }
 112              		.loc 1 47 1 is_stmt 0 view .LVU25
 113 0024 10BD     		pop	{r4, pc}
 114              		.loc 1 47 1 view .LVU26
 115              		.cfi_endproc
 116              	.LFE131:
 118              		.section	.text.LoRa_readReg,"ax",%progbits
 119              		.align	1
 120              		.global	LoRa_readReg
 121              		.syntax unified
 122              		.thumb
 123              		.thumb_func
 125              	LoRa_readReg:
 126              	.LVL7:
 127              	.LFB133:
  48:Core/Src/lora.c **** 
  49:Core/Src/lora.c **** /* ----------------------------------------------------------------------------- *\
ARM GAS  C:\Users\jdcox\AppData\Local\Temp\ccqAZpOk.s 			page 4


  50:Core/Src/lora.c **** 		name        : LoRa_gotoMode
  51:Core/Src/lora.c **** 
  52:Core/Src/lora.c **** 		description : set LoRa Op mode
  53:Core/Src/lora.c **** 
  54:Core/Src/lora.c **** 		arguments   :
  55:Core/Src/lora.c **** 			LoRa* LoRa    --> LoRa object handler
  56:Core/Src/lora.c **** 			mode	        --> select from defined modes
  57:Core/Src/lora.c **** 
  58:Core/Src/lora.c **** 		returns     : Nothing
  59:Core/Src/lora.c **** \* ----------------------------------------------------------------------------- */
  60:Core/Src/lora.c **** void LoRa_gotoMode(LoRa* _LoRa, int mode){
  61:Core/Src/lora.c **** 	uint8_t    read;
  62:Core/Src/lora.c **** 	uint8_t    data;
  63:Core/Src/lora.c **** 
  64:Core/Src/lora.c **** 	read = LoRa_read(_LoRa, RegOpMode);
  65:Core/Src/lora.c **** 	data = read;
  66:Core/Src/lora.c **** 
  67:Core/Src/lora.c **** 	if(mode == SLEEP_MODE){
  68:Core/Src/lora.c **** 		data = (read & 0xF8) | 0x00;
  69:Core/Src/lora.c **** 		_LoRa->current_mode = SLEEP_MODE;
  70:Core/Src/lora.c **** 	}else if (mode == STNBY_MODE){
  71:Core/Src/lora.c **** 		data = (read & 0xF8) | 0x01;
  72:Core/Src/lora.c **** 		_LoRa->current_mode = STNBY_MODE;
  73:Core/Src/lora.c **** 	}else if (mode == TRANSMIT_MODE){
  74:Core/Src/lora.c **** 		data = (read & 0xF8) | 0x03;
  75:Core/Src/lora.c **** 		_LoRa->current_mode = TRANSMIT_MODE;
  76:Core/Src/lora.c **** 	}else if (mode == RXCONTIN_MODE){
  77:Core/Src/lora.c **** 		data = (read & 0xF8) | 0x05;
  78:Core/Src/lora.c **** 		_LoRa->current_mode = RXCONTIN_MODE;
  79:Core/Src/lora.c **** 	}else if (mode == RXSINGLE_MODE){
  80:Core/Src/lora.c **** 		data = (read & 0xF8) | 0x06;
  81:Core/Src/lora.c **** 		_LoRa->current_mode = RXSINGLE_MODE;
  82:Core/Src/lora.c **** 	}
  83:Core/Src/lora.c **** 
  84:Core/Src/lora.c **** 	LoRa_write(_LoRa, RegOpMode, data);
  85:Core/Src/lora.c **** 	//HAL_Delay(10);
  86:Core/Src/lora.c **** }
  87:Core/Src/lora.c **** 
  88:Core/Src/lora.c **** 
  89:Core/Src/lora.c **** /* ----------------------------------------------------------------------------- *\
  90:Core/Src/lora.c **** 		name        : LoRa_readReg
  91:Core/Src/lora.c **** 
  92:Core/Src/lora.c **** 		description : read a register(s) by an address and a length,
  93:Core/Src/lora.c **** 									then store value(s) at outpur array.
  94:Core/Src/lora.c **** 		arguments   :
  95:Core/Src/lora.c **** 			LoRa* LoRa        --> LoRa object handler
  96:Core/Src/lora.c **** 			uint8_t* address  -->	pointer to the beginning of address array
  97:Core/Src/lora.c **** 			uint16_t r_length -->	detemines number of addresse bytes that
  98:Core/Src/lora.c **** 														you want to send
  99:Core/Src/lora.c **** 			uint8_t* output		--> pointer to the beginning of output array
 100:Core/Src/lora.c **** 			uint16_t w_length	--> detemines number of bytes that you want to read
 101:Core/Src/lora.c **** 
 102:Core/Src/lora.c **** 		returns     : Nothing
 103:Core/Src/lora.c **** \* ----------------------------------------------------------------------------- */
 104:Core/Src/lora.c **** void LoRa_readReg(LoRa* _LoRa, uint8_t* address, uint16_t r_length, uint8_t* output, uint16_t w_len
 128              		.loc 1 104 104 is_stmt 1 view -0
 129              		.cfi_startproc
ARM GAS  C:\Users\jdcox\AppData\Local\Temp\ccqAZpOk.s 			page 5


 130              		@ args = 4, pretend = 0, frame = 0
 131              		@ frame_needed = 0, uses_anonymous_args = 0
 132              		.loc 1 104 104 is_stmt 0 view .LVU28
 133 0000 F8B5     		push	{r3, r4, r5, r6, r7, lr}
 134              	.LCFI1:
 135              		.cfi_def_cfa_offset 24
 136              		.cfi_offset 3, -24
 137              		.cfi_offset 4, -20
 138              		.cfi_offset 5, -16
 139              		.cfi_offset 6, -12
 140              		.cfi_offset 7, -8
 141              		.cfi_offset 14, -4
 142 0002 0446     		mov	r4, r0
 143 0004 0E46     		mov	r6, r1
 144 0006 1746     		mov	r7, r2
 145 0008 1D46     		mov	r5, r3
 105:Core/Src/lora.c **** 	HAL_GPIO_WritePin(_LoRa->CS_port, _LoRa->CS_pin, GPIO_PIN_RESET);
 146              		.loc 1 105 2 is_stmt 1 view .LVU29
 147 000a 0022     		movs	r2, #0
 148              	.LVL8:
 149              		.loc 1 105 2 is_stmt 0 view .LVU30
 150 000c 8188     		ldrh	r1, [r0, #4]
 151              	.LVL9:
 152              		.loc 1 105 2 view .LVU31
 153 000e 0068     		ldr	r0, [r0]
 154              	.LVL10:
 155              		.loc 1 105 2 view .LVU32
 156 0010 FFF7FEFF 		bl	HAL_GPIO_WritePin
 157              	.LVL11:
 106:Core/Src/lora.c **** 	HAL_SPI_Transmit(_LoRa->hSPIx, address, r_length, TRANSMIT_TIMEOUT);
 158              		.loc 1 106 2 is_stmt 1 view .LVU33
 159 0014 4FF4FA63 		mov	r3, #2000
 160 0018 3A46     		mov	r2, r7
 161 001a 3146     		mov	r1, r6
 162 001c A069     		ldr	r0, [r4, #24]
 163 001e FFF7FEFF 		bl	HAL_SPI_Transmit
 164              	.LVL12:
 107:Core/Src/lora.c **** 	while (HAL_SPI_GetState(_LoRa->hSPIx) != HAL_SPI_STATE_READY)
 165              		.loc 1 107 2 view .LVU34
 166              	.L5:
 167              		.loc 1 107 40 discriminator 1 view .LVU35
 168              		.loc 1 107 9 is_stmt 0 discriminator 1 view .LVU36
 169 0022 A069     		ldr	r0, [r4, #24]
 170 0024 FFF7FEFF 		bl	HAL_SPI_GetState
 171              	.LVL13:
 172              		.loc 1 107 40 discriminator 1 view .LVU37
 173 0028 0128     		cmp	r0, #1
 174 002a FAD1     		bne	.L5
 108:Core/Src/lora.c **** 		;
 109:Core/Src/lora.c **** 	HAL_SPI_Receive(_LoRa->hSPIx, output, w_length, RECEIVE_TIMEOUT);
 175              		.loc 1 109 2 is_stmt 1 view .LVU38
 176 002c 4FF4FA63 		mov	r3, #2000
 177 0030 BDF81820 		ldrh	r2, [sp, #24]
 178 0034 2946     		mov	r1, r5
 179 0036 A069     		ldr	r0, [r4, #24]
 180 0038 FFF7FEFF 		bl	HAL_SPI_Receive
 181              	.LVL14:
ARM GAS  C:\Users\jdcox\AppData\Local\Temp\ccqAZpOk.s 			page 6


 110:Core/Src/lora.c **** 	while (HAL_SPI_GetState(_LoRa->hSPIx) != HAL_SPI_STATE_READY)
 182              		.loc 1 110 2 view .LVU39
 183              	.L6:
 184              		.loc 1 110 40 discriminator 1 view .LVU40
 185              		.loc 1 110 9 is_stmt 0 discriminator 1 view .LVU41
 186 003c A069     		ldr	r0, [r4, #24]
 187 003e FFF7FEFF 		bl	HAL_SPI_GetState
 188              	.LVL15:
 189              		.loc 1 110 40 discriminator 1 view .LVU42
 190 0042 0128     		cmp	r0, #1
 191 0044 FAD1     		bne	.L6
 111:Core/Src/lora.c **** 		;
 112:Core/Src/lora.c **** 	HAL_GPIO_WritePin(_LoRa->CS_port, _LoRa->CS_pin, GPIO_PIN_SET);
 192              		.loc 1 112 2 is_stmt 1 view .LVU43
 193 0046 0122     		movs	r2, #1
 194 0048 A188     		ldrh	r1, [r4, #4]
 195 004a 2068     		ldr	r0, [r4]
 196 004c FFF7FEFF 		bl	HAL_GPIO_WritePin
 197              	.LVL16:
 113:Core/Src/lora.c **** }
 198              		.loc 1 113 1 is_stmt 0 view .LVU44
 199 0050 F8BD     		pop	{r3, r4, r5, r6, r7, pc}
 200              		.loc 1 113 1 view .LVU45
 201              		.cfi_endproc
 202              	.LFE133:
 204              		.section	.text.LoRa_writeReg,"ax",%progbits
 205              		.align	1
 206              		.global	LoRa_writeReg
 207              		.syntax unified
 208              		.thumb
 209              		.thumb_func
 211              	LoRa_writeReg:
 212              	.LVL17:
 213              	.LFB134:
 114:Core/Src/lora.c **** 
 115:Core/Src/lora.c **** /* ----------------------------------------------------------------------------- *\
 116:Core/Src/lora.c **** 		name        : LoRa_writeReg
 117:Core/Src/lora.c **** 
 118:Core/Src/lora.c **** 		description : write a value(s) in a register(s) by an address
 119:Core/Src/lora.c **** 
 120:Core/Src/lora.c **** 		arguments   :
 121:Core/Src/lora.c **** 			LoRa* LoRa        --> LoRa object handler
 122:Core/Src/lora.c **** 			uint8_t* address  -->	pointer to the beginning of address array
 123:Core/Src/lora.c **** 			uint16_t r_length -->	detemines number of addresse bytes that
 124:Core/Src/lora.c **** 														you want to send
 125:Core/Src/lora.c **** 			uint8_t* output		--> pointer to the beginning of values array
 126:Core/Src/lora.c **** 			uint16_t w_length	--> detemines number of bytes that you want to send
 127:Core/Src/lora.c **** 
 128:Core/Src/lora.c **** 		returns     : Nothing
 129:Core/Src/lora.c **** \* ----------------------------------------------------------------------------- */
 130:Core/Src/lora.c **** void LoRa_writeReg(LoRa* _LoRa, uint8_t* address, uint16_t r_length, uint8_t* values, uint16_t w_le
 214              		.loc 1 130 105 is_stmt 1 view -0
 215              		.cfi_startproc
 216              		@ args = 4, pretend = 0, frame = 0
 217              		@ frame_needed = 0, uses_anonymous_args = 0
 218              		.loc 1 130 105 is_stmt 0 view .LVU47
 219 0000 F8B5     		push	{r3, r4, r5, r6, r7, lr}
ARM GAS  C:\Users\jdcox\AppData\Local\Temp\ccqAZpOk.s 			page 7


 220              	.LCFI2:
 221              		.cfi_def_cfa_offset 24
 222              		.cfi_offset 3, -24
 223              		.cfi_offset 4, -20
 224              		.cfi_offset 5, -16
 225              		.cfi_offset 6, -12
 226              		.cfi_offset 7, -8
 227              		.cfi_offset 14, -4
 228 0002 0446     		mov	r4, r0
 229 0004 0E46     		mov	r6, r1
 230 0006 1746     		mov	r7, r2
 231 0008 1D46     		mov	r5, r3
 131:Core/Src/lora.c **** 	HAL_GPIO_WritePin(_LoRa->CS_port, _LoRa->CS_pin, GPIO_PIN_RESET);
 232              		.loc 1 131 2 is_stmt 1 view .LVU48
 233 000a 0022     		movs	r2, #0
 234              	.LVL18:
 235              		.loc 1 131 2 is_stmt 0 view .LVU49
 236 000c 8188     		ldrh	r1, [r0, #4]
 237              	.LVL19:
 238              		.loc 1 131 2 view .LVU50
 239 000e 0068     		ldr	r0, [r0]
 240              	.LVL20:
 241              		.loc 1 131 2 view .LVU51
 242 0010 FFF7FEFF 		bl	HAL_GPIO_WritePin
 243              	.LVL21:
 132:Core/Src/lora.c **** 	HAL_SPI_Transmit(_LoRa->hSPIx, address, r_length, TRANSMIT_TIMEOUT);
 244              		.loc 1 132 2 is_stmt 1 view .LVU52
 245 0014 4FF4FA63 		mov	r3, #2000
 246 0018 3A46     		mov	r2, r7
 247 001a 3146     		mov	r1, r6
 248 001c A069     		ldr	r0, [r4, #24]
 249 001e FFF7FEFF 		bl	HAL_SPI_Transmit
 250              	.LVL22:
 133:Core/Src/lora.c **** 	while (HAL_SPI_GetState(_LoRa->hSPIx) != HAL_SPI_STATE_READY)
 251              		.loc 1 133 2 view .LVU53
 252              	.L9:
 253              		.loc 1 133 40 discriminator 1 view .LVU54
 254              		.loc 1 133 9 is_stmt 0 discriminator 1 view .LVU55
 255 0022 A069     		ldr	r0, [r4, #24]
 256 0024 FFF7FEFF 		bl	HAL_SPI_GetState
 257              	.LVL23:
 258              		.loc 1 133 40 discriminator 1 view .LVU56
 259 0028 0128     		cmp	r0, #1
 260 002a FAD1     		bne	.L9
 134:Core/Src/lora.c **** 		;
 135:Core/Src/lora.c **** 	HAL_SPI_Transmit(_LoRa->hSPIx, values, w_length, TRANSMIT_TIMEOUT);
 261              		.loc 1 135 2 is_stmt 1 view .LVU57
 262 002c 4FF4FA63 		mov	r3, #2000
 263 0030 BDF81820 		ldrh	r2, [sp, #24]
 264 0034 2946     		mov	r1, r5
 265 0036 A069     		ldr	r0, [r4, #24]
 266 0038 FFF7FEFF 		bl	HAL_SPI_Transmit
 267              	.LVL24:
 136:Core/Src/lora.c **** 	while (HAL_SPI_GetState(_LoRa->hSPIx) != HAL_SPI_STATE_READY)
 268              		.loc 1 136 2 view .LVU58
 269              	.L10:
 270              		.loc 1 136 40 discriminator 1 view .LVU59
ARM GAS  C:\Users\jdcox\AppData\Local\Temp\ccqAZpOk.s 			page 8


 271              		.loc 1 136 9 is_stmt 0 discriminator 1 view .LVU60
 272 003c A069     		ldr	r0, [r4, #24]
 273 003e FFF7FEFF 		bl	HAL_SPI_GetState
 274              	.LVL25:
 275              		.loc 1 136 40 discriminator 1 view .LVU61
 276 0042 0128     		cmp	r0, #1
 277 0044 FAD1     		bne	.L10
 137:Core/Src/lora.c **** 		;
 138:Core/Src/lora.c **** 	HAL_GPIO_WritePin(_LoRa->CS_port, _LoRa->CS_pin, GPIO_PIN_SET);
 278              		.loc 1 138 2 is_stmt 1 view .LVU62
 279 0046 0122     		movs	r2, #1
 280 0048 A188     		ldrh	r1, [r4, #4]
 281 004a 2068     		ldr	r0, [r4]
 282 004c FFF7FEFF 		bl	HAL_GPIO_WritePin
 283              	.LVL26:
 139:Core/Src/lora.c **** }
 284              		.loc 1 139 1 is_stmt 0 view .LVU63
 285 0050 F8BD     		pop	{r3, r4, r5, r6, r7, pc}
 286              		.loc 1 139 1 view .LVU64
 287              		.cfi_endproc
 288              	.LFE134:
 290              		.section	.text.LoRa_read,"ax",%progbits
 291              		.align	1
 292              		.global	LoRa_read
 293              		.syntax unified
 294              		.thumb
 295              		.thumb_func
 297              	LoRa_read:
 298              	.LVL27:
 299              	.LFB141:
 140:Core/Src/lora.c **** 
 141:Core/Src/lora.c **** /* ----------------------------------------------------------------------------- *\
 142:Core/Src/lora.c **** 		name        : LoRa_setFrequency
 143:Core/Src/lora.c **** 
 144:Core/Src/lora.c **** 		description : set carrier frequency e.g 433 MHz
 145:Core/Src/lora.c **** 
 146:Core/Src/lora.c **** 		arguments   :
 147:Core/Src/lora.c **** 			LoRa* LoRa        --> LoRa object handler
 148:Core/Src/lora.c **** 			int   freq        --> desired frequency in MHz unit, e.g 434
 149:Core/Src/lora.c **** 
 150:Core/Src/lora.c **** 		returns     : Nothing
 151:Core/Src/lora.c **** \* ----------------------------------------------------------------------------- */
 152:Core/Src/lora.c **** void LoRa_setFrequency(LoRa* _LoRa, int freq){
 153:Core/Src/lora.c **** 	uint8_t  data;
 154:Core/Src/lora.c **** 	uint32_t F;
 155:Core/Src/lora.c **** 	F = (freq * 524288)>>5;
 156:Core/Src/lora.c **** 
 157:Core/Src/lora.c **** 	// write Msb:
 158:Core/Src/lora.c **** 	data = F >> 16;
 159:Core/Src/lora.c **** 	LoRa_write(_LoRa, RegFrMsb, data);
 160:Core/Src/lora.c **** 	HAL_Delay(5);
 161:Core/Src/lora.c **** 
 162:Core/Src/lora.c **** 	// write Mid:
 163:Core/Src/lora.c **** 	data = F >> 8;
 164:Core/Src/lora.c **** 	LoRa_write(_LoRa, RegFrMid, data);
 165:Core/Src/lora.c **** 	HAL_Delay(5);
 166:Core/Src/lora.c **** 
ARM GAS  C:\Users\jdcox\AppData\Local\Temp\ccqAZpOk.s 			page 9


 167:Core/Src/lora.c **** 	// write Lsb:
 168:Core/Src/lora.c **** 	data = F >> 0;
 169:Core/Src/lora.c **** 	LoRa_write(_LoRa, RegFrLsb, data);
 170:Core/Src/lora.c **** 	HAL_Delay(5);
 171:Core/Src/lora.c **** }
 172:Core/Src/lora.c **** 
 173:Core/Src/lora.c **** /* ----------------------------------------------------------------------------- *\
 174:Core/Src/lora.c **** 		name        : LoRa_setSpreadingFactor
 175:Core/Src/lora.c **** 
 176:Core/Src/lora.c **** 		description : set spreading factor, from 7 to 12.
 177:Core/Src/lora.c **** 
 178:Core/Src/lora.c **** 		arguments   :
 179:Core/Src/lora.c **** 			LoRa* LoRa        --> LoRa object handler
 180:Core/Src/lora.c **** 			int   SP          --> desired spreading factor e.g 7
 181:Core/Src/lora.c **** 
 182:Core/Src/lora.c **** 		returns     : Nothing
 183:Core/Src/lora.c **** \* ----------------------------------------------------------------------------- */
 184:Core/Src/lora.c **** void LoRa_setSpreadingFactor(LoRa* _LoRa, int SF){
 185:Core/Src/lora.c **** 	uint8_t	data;
 186:Core/Src/lora.c **** 	uint8_t	read;
 187:Core/Src/lora.c **** 
 188:Core/Src/lora.c **** 	if(SF>12)
 189:Core/Src/lora.c **** 		SF = 12;
 190:Core/Src/lora.c **** 	if(SF<7)
 191:Core/Src/lora.c **** 		SF = 7;
 192:Core/Src/lora.c **** 
 193:Core/Src/lora.c **** 	read = LoRa_read(_LoRa, RegModemConfig2);
 194:Core/Src/lora.c **** 	HAL_Delay(10);
 195:Core/Src/lora.c **** 
 196:Core/Src/lora.c **** 	data = (SF << 4) + (read & 0x0F);
 197:Core/Src/lora.c **** 	LoRa_write(_LoRa, RegModemConfig2, data);
 198:Core/Src/lora.c **** 	HAL_Delay(10);
 199:Core/Src/lora.c **** }
 200:Core/Src/lora.c **** 
 201:Core/Src/lora.c **** /* ----------------------------------------------------------------------------- *\
 202:Core/Src/lora.c **** 		name        : LoRa_setPower
 203:Core/Src/lora.c **** 
 204:Core/Src/lora.c **** 		description : set power gain.
 205:Core/Src/lora.c **** 
 206:Core/Src/lora.c **** 		arguments   :
 207:Core/Src/lora.c **** 			LoRa* LoRa        --> LoRa object handler
 208:Core/Src/lora.c **** 			int   power       --> desired power like POWER_17db
 209:Core/Src/lora.c **** 
 210:Core/Src/lora.c **** 		returns     : Nothing
 211:Core/Src/lora.c **** \* ----------------------------------------------------------------------------- */
 212:Core/Src/lora.c **** void LoRa_setPower(LoRa* _LoRa, uint8_t power){
 213:Core/Src/lora.c **** 	LoRa_write(_LoRa, RegPaConfig, power);
 214:Core/Src/lora.c **** 	HAL_Delay(10);
 215:Core/Src/lora.c **** }
 216:Core/Src/lora.c **** 
 217:Core/Src/lora.c **** /* ----------------------------------------------------------------------------- *\
 218:Core/Src/lora.c **** 		name        : LoRa_setOCP
 219:Core/Src/lora.c **** 
 220:Core/Src/lora.c **** 		description : set maximum allowed current.
 221:Core/Src/lora.c **** 
 222:Core/Src/lora.c **** 		arguments   :
 223:Core/Src/lora.c **** 			LoRa* LoRa        --> LoRa object handler
ARM GAS  C:\Users\jdcox\AppData\Local\Temp\ccqAZpOk.s 			page 10


 224:Core/Src/lora.c **** 			int   current     --> desired max currnet in mA, e.g 120
 225:Core/Src/lora.c **** 
 226:Core/Src/lora.c **** 		returns     : Nothing
 227:Core/Src/lora.c **** \* ----------------------------------------------------------------------------- */
 228:Core/Src/lora.c **** void LoRa_setOCP(LoRa* _LoRa, uint8_t current){
 229:Core/Src/lora.c **** 	uint8_t	OcpTrim = 0;
 230:Core/Src/lora.c **** 
 231:Core/Src/lora.c **** 	if(current<45)
 232:Core/Src/lora.c **** 		current = 45;
 233:Core/Src/lora.c **** 	if(current>240)
 234:Core/Src/lora.c **** 		current = 240;
 235:Core/Src/lora.c **** 
 236:Core/Src/lora.c **** 	if(current <= 120)
 237:Core/Src/lora.c **** 		OcpTrim = (current - 45)/5;
 238:Core/Src/lora.c **** 	else if(current <= 240)
 239:Core/Src/lora.c **** 		OcpTrim = (current + 30)/10;
 240:Core/Src/lora.c **** 
 241:Core/Src/lora.c **** 	OcpTrim = OcpTrim + (1 << 5);
 242:Core/Src/lora.c **** 	LoRa_write(_LoRa, RegOcp, OcpTrim);
 243:Core/Src/lora.c **** 	HAL_Delay(10);
 244:Core/Src/lora.c **** }
 245:Core/Src/lora.c **** 
 246:Core/Src/lora.c **** /* ----------------------------------------------------------------------------- *\
 247:Core/Src/lora.c **** 		name        : LoRa_setTOMsb_setCRCon
 248:Core/Src/lora.c **** 
 249:Core/Src/lora.c **** 		description : set timeout msb to 0xFF + set CRC enable.
 250:Core/Src/lora.c **** 
 251:Core/Src/lora.c **** 		arguments   :
 252:Core/Src/lora.c **** 			LoRa* LoRa        --> LoRa object handler
 253:Core/Src/lora.c **** 
 254:Core/Src/lora.c **** 		returns     : Nothing
 255:Core/Src/lora.c **** \* ----------------------------------------------------------------------------- */
 256:Core/Src/lora.c **** void LoRa_setTOMsb_setCRCon(LoRa* _LoRa){
 257:Core/Src/lora.c **** 	uint8_t read, data;
 258:Core/Src/lora.c **** 
 259:Core/Src/lora.c **** 	read = LoRa_read(_LoRa, RegModemConfig2);
 260:Core/Src/lora.c **** 
 261:Core/Src/lora.c **** 	data = read | 0x07;
 262:Core/Src/lora.c **** 	LoRa_write(_LoRa, RegModemConfig2, data);\
 263:Core/Src/lora.c **** 	HAL_Delay(10);
 264:Core/Src/lora.c **** }
 265:Core/Src/lora.c **** 
 266:Core/Src/lora.c **** /* ----------------------------------------------------------------------------- *\
 267:Core/Src/lora.c **** 		name        : LoRa_setTOMsb_setCRCon
 268:Core/Src/lora.c **** 
 269:Core/Src/lora.c **** 		description : set timeout msb to 0xFF + set CRC enable.
 270:Core/Src/lora.c **** 
 271:Core/Src/lora.c **** 		arguments   :
 272:Core/Src/lora.c **** 			LoRa* LoRa        --> LoRa object handler
 273:Core/Src/lora.c **** 
 274:Core/Src/lora.c **** 		returns     : Nothing
 275:Core/Src/lora.c **** \* ----------------------------------------------------------------------------- */
 276:Core/Src/lora.c **** void LoRa_setSyncWord(LoRa* _LoRa, uint8_t syncword){
 277:Core/Src/lora.c **** 	LoRa_write(_LoRa, RegSyncWord, syncword);
 278:Core/Src/lora.c **** 	HAL_Delay(10);
 279:Core/Src/lora.c **** }
 280:Core/Src/lora.c **** 
ARM GAS  C:\Users\jdcox\AppData\Local\Temp\ccqAZpOk.s 			page 11


 281:Core/Src/lora.c **** /* ----------------------------------------------------------------------------- *\
 282:Core/Src/lora.c **** 		name        : LoRa_read
 283:Core/Src/lora.c **** 
 284:Core/Src/lora.c **** 		description : read a register by an address
 285:Core/Src/lora.c **** 
 286:Core/Src/lora.c **** 		arguments   :
 287:Core/Src/lora.c **** 			LoRa*   LoRa        --> LoRa object handler
 288:Core/Src/lora.c **** 			uint8_t address     -->	address of the register e.g 0x1D
 289:Core/Src/lora.c **** 
 290:Core/Src/lora.c **** 		returns     : register value
 291:Core/Src/lora.c **** \* ----------------------------------------------------------------------------- */
 292:Core/Src/lora.c **** uint8_t LoRa_read(LoRa* _LoRa, uint8_t address){
 300              		.loc 1 292 48 is_stmt 1 view -0
 301              		.cfi_startproc
 302              		@ args = 0, pretend = 0, frame = 8
 303              		@ frame_needed = 0, uses_anonymous_args = 0
 304              		.loc 1 292 48 is_stmt 0 view .LVU66
 305 0000 00B5     		push	{lr}
 306              	.LCFI3:
 307              		.cfi_def_cfa_offset 4
 308              		.cfi_offset 14, -4
 309 0002 85B0     		sub	sp, sp, #20
 310              	.LCFI4:
 311              		.cfi_def_cfa_offset 24
 293:Core/Src/lora.c **** 	uint8_t read_data;
 312              		.loc 1 293 2 is_stmt 1 view .LVU67
 294:Core/Src/lora.c **** 	uint8_t data_addr;
 313              		.loc 1 294 2 view .LVU68
 295:Core/Src/lora.c **** 
 296:Core/Src/lora.c **** 	data_addr = address & 0x7F;
 314              		.loc 1 296 2 view .LVU69
 315              		.loc 1 296 22 is_stmt 0 view .LVU70
 316 0004 01F07F01 		and	r1, r1, #127
 317              	.LVL28:
 318              		.loc 1 296 12 view .LVU71
 319 0008 8DF80E10 		strb	r1, [sp, #14]
 297:Core/Src/lora.c **** 	LoRa_readReg(_LoRa, &data_addr, 1, &read_data, 1);
 320              		.loc 1 297 2 is_stmt 1 view .LVU72
 321 000c 0122     		movs	r2, #1
 322 000e 0092     		str	r2, [sp]
 323 0010 0DF10F03 		add	r3, sp, #15
 324 0014 0DF10E01 		add	r1, sp, #14
 325 0018 FFF7FEFF 		bl	LoRa_readReg
 326              	.LVL29:
 298:Core/Src/lora.c **** 	//HAL_Delay(5);
 299:Core/Src/lora.c **** 
 300:Core/Src/lora.c **** 	return read_data;
 327              		.loc 1 300 2 view .LVU73
 301:Core/Src/lora.c **** }
 328              		.loc 1 301 1 is_stmt 0 view .LVU74
 329 001c 9DF80F00 		ldrb	r0, [sp, #15]	@ zero_extendqisi2
 330 0020 05B0     		add	sp, sp, #20
 331              	.LCFI5:
 332              		.cfi_def_cfa_offset 4
 333              		@ sp needed
 334 0022 5DF804FB 		ldr	pc, [sp], #4
 335              		.cfi_endproc
ARM GAS  C:\Users\jdcox\AppData\Local\Temp\ccqAZpOk.s 			page 12


 336              	.LFE141:
 338              		.section	.text.LoRa_write,"ax",%progbits
 339              		.align	1
 340              		.global	LoRa_write
 341              		.syntax unified
 342              		.thumb
 343              		.thumb_func
 345              	LoRa_write:
 346              	.LVL30:
 347              	.LFB142:
 302:Core/Src/lora.c **** 
 303:Core/Src/lora.c **** /* ----------------------------------------------------------------------------- *\
 304:Core/Src/lora.c **** 		name        : LoRa_write
 305:Core/Src/lora.c **** 
 306:Core/Src/lora.c **** 		description : write a value in a register by an address
 307:Core/Src/lora.c **** 
 308:Core/Src/lora.c **** 		arguments   :
 309:Core/Src/lora.c **** 			LoRa*   LoRa        --> LoRa object handler
 310:Core/Src/lora.c **** 			uint8_t address     -->	address of the register e.g 0x1D
 311:Core/Src/lora.c **** 			uint8_t value       --> value that you want to write
 312:Core/Src/lora.c **** 
 313:Core/Src/lora.c **** 		returns     : Nothing
 314:Core/Src/lora.c **** \* ----------------------------------------------------------------------------- */
 315:Core/Src/lora.c **** void LoRa_write(LoRa* _LoRa, uint8_t address, uint8_t value){
 348              		.loc 1 315 61 is_stmt 1 view -0
 349              		.cfi_startproc
 350              		@ args = 0, pretend = 0, frame = 8
 351              		@ frame_needed = 0, uses_anonymous_args = 0
 352              		.loc 1 315 61 is_stmt 0 view .LVU76
 353 0000 00B5     		push	{lr}
 354              	.LCFI6:
 355              		.cfi_def_cfa_offset 4
 356              		.cfi_offset 14, -4
 357 0002 85B0     		sub	sp, sp, #20
 358              	.LCFI7:
 359              		.cfi_def_cfa_offset 24
 316:Core/Src/lora.c **** 	uint8_t data;
 360              		.loc 1 316 2 is_stmt 1 view .LVU77
 317:Core/Src/lora.c **** 	uint8_t addr;
 361              		.loc 1 317 2 view .LVU78
 318:Core/Src/lora.c **** 
 319:Core/Src/lora.c **** 	addr = address | 0x80;
 362              		.loc 1 319 2 view .LVU79
 363              		.loc 1 319 7 is_stmt 0 view .LVU80
 364 0004 61F07F01 		orn	r1, r1, #127
 365              	.LVL31:
 366              		.loc 1 319 7 view .LVU81
 367 0008 8DF80E10 		strb	r1, [sp, #14]
 320:Core/Src/lora.c **** 	data = value;
 368              		.loc 1 320 2 is_stmt 1 view .LVU82
 369              		.loc 1 320 7 is_stmt 0 view .LVU83
 370 000c 8DF80F20 		strb	r2, [sp, #15]
 321:Core/Src/lora.c **** 	LoRa_writeReg(_LoRa, &addr, 1, &data, 1);
 371              		.loc 1 321 2 is_stmt 1 view .LVU84
 372 0010 0122     		movs	r2, #1
 373              	.LVL32:
 374              		.loc 1 321 2 is_stmt 0 view .LVU85
ARM GAS  C:\Users\jdcox\AppData\Local\Temp\ccqAZpOk.s 			page 13


 375 0012 0092     		str	r2, [sp]
 376 0014 0DF10F03 		add	r3, sp, #15
 377              	.LVL33:
 378              		.loc 1 321 2 view .LVU86
 379 0018 0DF10E01 		add	r1, sp, #14
 380 001c FFF7FEFF 		bl	LoRa_writeReg
 381              	.LVL34:
 322:Core/Src/lora.c **** 	//HAL_Delay(5);
 323:Core/Src/lora.c **** }
 382              		.loc 1 323 1 view .LVU87
 383 0020 05B0     		add	sp, sp, #20
 384              	.LCFI8:
 385              		.cfi_def_cfa_offset 4
 386              		@ sp needed
 387 0022 5DF804FB 		ldr	pc, [sp], #4
 388              		.cfi_endproc
 389              	.LFE142:
 391              		.section	.text.LoRa_gotoMode,"ax",%progbits
 392              		.align	1
 393              		.global	LoRa_gotoMode
 394              		.syntax unified
 395              		.thumb
 396              		.thumb_func
 398              	LoRa_gotoMode:
 399              	.LVL35:
 400              	.LFB132:
  60:Core/Src/lora.c **** 	uint8_t    read;
 401              		.loc 1 60 42 is_stmt 1 view -0
 402              		.cfi_startproc
 403              		@ args = 0, pretend = 0, frame = 0
 404              		@ frame_needed = 0, uses_anonymous_args = 0
  60:Core/Src/lora.c **** 	uint8_t    read;
 405              		.loc 1 60 42 is_stmt 0 view .LVU89
 406 0000 38B5     		push	{r3, r4, r5, lr}
 407              	.LCFI9:
 408              		.cfi_def_cfa_offset 16
 409              		.cfi_offset 3, -16
 410              		.cfi_offset 4, -12
 411              		.cfi_offset 5, -8
 412              		.cfi_offset 14, -4
 413 0002 0446     		mov	r4, r0
 414 0004 0D46     		mov	r5, r1
  61:Core/Src/lora.c **** 	uint8_t    data;
 415              		.loc 1 61 2 is_stmt 1 view .LVU90
  62:Core/Src/lora.c **** 
 416              		.loc 1 62 2 view .LVU91
  64:Core/Src/lora.c **** 	data = read;
 417              		.loc 1 64 2 view .LVU92
  64:Core/Src/lora.c **** 	data = read;
 418              		.loc 1 64 9 is_stmt 0 view .LVU93
 419 0006 0121     		movs	r1, #1
 420              	.LVL36:
  64:Core/Src/lora.c **** 	data = read;
 421              		.loc 1 64 9 view .LVU94
 422 0008 FFF7FEFF 		bl	LoRa_read
 423              	.LVL37:
  64:Core/Src/lora.c **** 	data = read;
ARM GAS  C:\Users\jdcox\AppData\Local\Temp\ccqAZpOk.s 			page 14


 424              		.loc 1 64 9 view .LVU95
 425 000c 0246     		mov	r2, r0
 426              	.LVL38:
  65:Core/Src/lora.c **** 
 427              		.loc 1 65 2 is_stmt 1 view .LVU96
  67:Core/Src/lora.c **** 		data = (read & 0xF8) | 0x00;
 428              		.loc 1 67 2 view .LVU97
  67:Core/Src/lora.c **** 		data = (read & 0xF8) | 0x00;
 429              		.loc 1 67 4 is_stmt 0 view .LVU98
 430 000e 45B9     		cbnz	r5, .L17
  68:Core/Src/lora.c **** 		_LoRa->current_mode = SLEEP_MODE;
 431              		.loc 1 68 3 is_stmt 1 view .LVU99
  68:Core/Src/lora.c **** 		_LoRa->current_mode = SLEEP_MODE;
 432              		.loc 1 68 8 is_stmt 0 view .LVU100
 433 0010 00F0F802 		and	r2, r0, #248
 434              	.LVL39:
  69:Core/Src/lora.c **** 	}else if (mode == STNBY_MODE){
 435              		.loc 1 69 3 is_stmt 1 view .LVU101
  69:Core/Src/lora.c **** 	}else if (mode == STNBY_MODE){
 436              		.loc 1 69 23 is_stmt 0 view .LVU102
 437 0014 0023     		movs	r3, #0
 438 0016 E361     		str	r3, [r4, #28]
 439              	.LVL40:
 440              	.L18:
  84:Core/Src/lora.c **** 	//HAL_Delay(10);
 441              		.loc 1 84 2 is_stmt 1 view .LVU103
 442 0018 0121     		movs	r1, #1
 443 001a 2046     		mov	r0, r4
 444              	.LVL41:
  84:Core/Src/lora.c **** 	//HAL_Delay(10);
 445              		.loc 1 84 2 is_stmt 0 view .LVU104
 446 001c FFF7FEFF 		bl	LoRa_write
 447              	.LVL42:
  86:Core/Src/lora.c **** 
 448              		.loc 1 86 1 view .LVU105
 449 0020 38BD     		pop	{r3, r4, r5, pc}
 450              	.LVL43:
 451              	.L17:
  70:Core/Src/lora.c **** 		data = (read & 0xF8) | 0x01;
 452              		.loc 1 70 8 is_stmt 1 view .LVU106
 453 0022 013D     		subs	r5, r5, #1
 454              	.LVL44:
  70:Core/Src/lora.c **** 		data = (read & 0xF8) | 0x01;
 455              		.loc 1 70 8 is_stmt 0 view .LVU107
 456 0024 052D     		cmp	r5, #5
 457 0026 F7D8     		bhi	.L18
 458 0028 01A3     		adr	r3, .L20
 459 002a 53F825F0 		ldr	pc, [r3, r5, lsl #2]
 460 002e 00BF     		.p2align 2
 461              	.L20:
 462 0030 49000000 		.word	.L23+1
 463 0034 19000000 		.word	.L18+1
 464 0038 5B000000 		.word	.L22+1
 465 003c 19000000 		.word	.L18+1
 466 0040 6D000000 		.word	.L21+1
 467 0044 7F000000 		.word	.L19+1
 468              		.p2align 1
ARM GAS  C:\Users\jdcox\AppData\Local\Temp\ccqAZpOk.s 			page 15


 469              	.L23:
  71:Core/Src/lora.c **** 		_LoRa->current_mode = STNBY_MODE;
 470              		.loc 1 71 3 is_stmt 1 view .LVU108
  71:Core/Src/lora.c **** 		_LoRa->current_mode = STNBY_MODE;
 471              		.loc 1 71 16 is_stmt 0 view .LVU109
 472 0048 20F00702 		bic	r2, r0, #7
 473 004c 52B2     		sxtb	r2, r2
  71:Core/Src/lora.c **** 		_LoRa->current_mode = STNBY_MODE;
 474              		.loc 1 71 24 view .LVU110
 475 004e 42F00102 		orr	r2, r2, #1
  71:Core/Src/lora.c **** 		_LoRa->current_mode = STNBY_MODE;
 476              		.loc 1 71 8 view .LVU111
 477 0052 D2B2     		uxtb	r2, r2
 478              	.LVL45:
  72:Core/Src/lora.c **** 	}else if (mode == TRANSMIT_MODE){
 479              		.loc 1 72 3 is_stmt 1 view .LVU112
  72:Core/Src/lora.c **** 	}else if (mode == TRANSMIT_MODE){
 480              		.loc 1 72 23 is_stmt 0 view .LVU113
 481 0054 0123     		movs	r3, #1
 482 0056 E361     		str	r3, [r4, #28]
 483 0058 DEE7     		b	.L18
 484              	.LVL46:
 485              	.L22:
  74:Core/Src/lora.c **** 		_LoRa->current_mode = TRANSMIT_MODE;
 486              		.loc 1 74 3 is_stmt 1 view .LVU114
  74:Core/Src/lora.c **** 		_LoRa->current_mode = TRANSMIT_MODE;
 487              		.loc 1 74 16 is_stmt 0 view .LVU115
 488 005a 20F00702 		bic	r2, r0, #7
 489 005e 52B2     		sxtb	r2, r2
  74:Core/Src/lora.c **** 		_LoRa->current_mode = TRANSMIT_MODE;
 490              		.loc 1 74 24 view .LVU116
 491 0060 42F00302 		orr	r2, r2, #3
  74:Core/Src/lora.c **** 		_LoRa->current_mode = TRANSMIT_MODE;
 492              		.loc 1 74 8 view .LVU117
 493 0064 D2B2     		uxtb	r2, r2
 494              	.LVL47:
  75:Core/Src/lora.c **** 	}else if (mode == RXCONTIN_MODE){
 495              		.loc 1 75 3 is_stmt 1 view .LVU118
  75:Core/Src/lora.c **** 	}else if (mode == RXCONTIN_MODE){
 496              		.loc 1 75 23 is_stmt 0 view .LVU119
 497 0066 0323     		movs	r3, #3
 498 0068 E361     		str	r3, [r4, #28]
 499 006a D5E7     		b	.L18
 500              	.LVL48:
 501              	.L21:
  77:Core/Src/lora.c **** 		_LoRa->current_mode = RXCONTIN_MODE;
 502              		.loc 1 77 3 is_stmt 1 view .LVU120
  77:Core/Src/lora.c **** 		_LoRa->current_mode = RXCONTIN_MODE;
 503              		.loc 1 77 16 is_stmt 0 view .LVU121
 504 006c 20F00702 		bic	r2, r0, #7
 505 0070 52B2     		sxtb	r2, r2
  77:Core/Src/lora.c **** 		_LoRa->current_mode = RXCONTIN_MODE;
 506              		.loc 1 77 24 view .LVU122
 507 0072 42F00502 		orr	r2, r2, #5
  77:Core/Src/lora.c **** 		_LoRa->current_mode = RXCONTIN_MODE;
 508              		.loc 1 77 8 view .LVU123
 509 0076 D2B2     		uxtb	r2, r2
ARM GAS  C:\Users\jdcox\AppData\Local\Temp\ccqAZpOk.s 			page 16


 510              	.LVL49:
  78:Core/Src/lora.c **** 	}else if (mode == RXSINGLE_MODE){
 511              		.loc 1 78 3 is_stmt 1 view .LVU124
  78:Core/Src/lora.c **** 	}else if (mode == RXSINGLE_MODE){
 512              		.loc 1 78 23 is_stmt 0 view .LVU125
 513 0078 0523     		movs	r3, #5
 514 007a E361     		str	r3, [r4, #28]
 515 007c CCE7     		b	.L18
 516              	.LVL50:
 517              	.L19:
  80:Core/Src/lora.c **** 		_LoRa->current_mode = RXSINGLE_MODE;
 518              		.loc 1 80 3 is_stmt 1 view .LVU126
  80:Core/Src/lora.c **** 		_LoRa->current_mode = RXSINGLE_MODE;
 519              		.loc 1 80 16 is_stmt 0 view .LVU127
 520 007e 20F00702 		bic	r2, r0, #7
 521 0082 52B2     		sxtb	r2, r2
  80:Core/Src/lora.c **** 		_LoRa->current_mode = RXSINGLE_MODE;
 522              		.loc 1 80 24 view .LVU128
 523 0084 42F00602 		orr	r2, r2, #6
  80:Core/Src/lora.c **** 		_LoRa->current_mode = RXSINGLE_MODE;
 524              		.loc 1 80 8 view .LVU129
 525 0088 D2B2     		uxtb	r2, r2
 526              	.LVL51:
  81:Core/Src/lora.c **** 	}
 527              		.loc 1 81 3 is_stmt 1 view .LVU130
  81:Core/Src/lora.c **** 	}
 528              		.loc 1 81 23 is_stmt 0 view .LVU131
 529 008a 0623     		movs	r3, #6
 530 008c E361     		str	r3, [r4, #28]
 531 008e C3E7     		b	.L18
 532              		.cfi_endproc
 533              	.LFE132:
 535              		.section	.text.LoRa_setFrequency,"ax",%progbits
 536              		.align	1
 537              		.global	LoRa_setFrequency
 538              		.syntax unified
 539              		.thumb
 540              		.thumb_func
 542              	LoRa_setFrequency:
 543              	.LVL52:
 544              	.LFB135:
 152:Core/Src/lora.c **** 	uint8_t  data;
 545              		.loc 1 152 46 is_stmt 1 view -0
 546              		.cfi_startproc
 547              		@ args = 0, pretend = 0, frame = 0
 548              		@ frame_needed = 0, uses_anonymous_args = 0
 152:Core/Src/lora.c **** 	uint8_t  data;
 549              		.loc 1 152 46 is_stmt 0 view .LVU133
 550 0000 38B5     		push	{r3, r4, r5, lr}
 551              	.LCFI10:
 552              		.cfi_def_cfa_offset 16
 553              		.cfi_offset 3, -16
 554              		.cfi_offset 4, -12
 555              		.cfi_offset 5, -8
 556              		.cfi_offset 14, -4
 557 0002 0446     		mov	r4, r0
 153:Core/Src/lora.c **** 	uint32_t F;
ARM GAS  C:\Users\jdcox\AppData\Local\Temp\ccqAZpOk.s 			page 17


 558              		.loc 1 153 2 is_stmt 1 view .LVU134
 154:Core/Src/lora.c **** 	F = (freq * 524288)>>5;
 559              		.loc 1 154 2 view .LVU135
 155:Core/Src/lora.c **** 
 560              		.loc 1 155 2 view .LVU136
 155:Core/Src/lora.c **** 
 561              		.loc 1 155 12 is_stmt 0 view .LVU137
 562 0004 CA04     		lsls	r2, r1, #19
 155:Core/Src/lora.c **** 
 563              		.loc 1 155 21 view .LVU138
 564 0006 5511     		asrs	r5, r2, #5
 565              	.LVL53:
 158:Core/Src/lora.c **** 	LoRa_write(_LoRa, RegFrMsb, data);
 566              		.loc 1 158 2 is_stmt 1 view .LVU139
 159:Core/Src/lora.c **** 	HAL_Delay(5);
 567              		.loc 1 159 2 view .LVU140
 568 0008 C2F34752 		ubfx	r2, r2, #21, #8
 569              	.LVL54:
 159:Core/Src/lora.c **** 	HAL_Delay(5);
 570              		.loc 1 159 2 is_stmt 0 view .LVU141
 571 000c 0621     		movs	r1, #6
 572              	.LVL55:
 159:Core/Src/lora.c **** 	HAL_Delay(5);
 573              		.loc 1 159 2 view .LVU142
 574 000e FFF7FEFF 		bl	LoRa_write
 575              	.LVL56:
 160:Core/Src/lora.c **** 
 576              		.loc 1 160 2 is_stmt 1 view .LVU143
 577 0012 0520     		movs	r0, #5
 578 0014 FFF7FEFF 		bl	HAL_Delay
 579              	.LVL57:
 163:Core/Src/lora.c **** 	LoRa_write(_LoRa, RegFrMid, data);
 580              		.loc 1 163 2 view .LVU144
 163:Core/Src/lora.c **** 	LoRa_write(_LoRa, RegFrMid, data);
 581              		.loc 1 163 11 is_stmt 0 view .LVU145
 582 0018 2A0A     		lsrs	r2, r5, #8
 583              	.LVL58:
 164:Core/Src/lora.c **** 	HAL_Delay(5);
 584              		.loc 1 164 2 is_stmt 1 view .LVU146
 585 001a D2B2     		uxtb	r2, r2
 164:Core/Src/lora.c **** 	HAL_Delay(5);
 586              		.loc 1 164 2 is_stmt 0 view .LVU147
 587 001c 0721     		movs	r1, #7
 588 001e 2046     		mov	r0, r4
 589 0020 FFF7FEFF 		bl	LoRa_write
 590              	.LVL59:
 165:Core/Src/lora.c **** 
 591              		.loc 1 165 2 is_stmt 1 view .LVU148
 592 0024 0520     		movs	r0, #5
 593 0026 FFF7FEFF 		bl	HAL_Delay
 594              	.LVL60:
 168:Core/Src/lora.c **** 	LoRa_write(_LoRa, RegFrLsb, data);
 595              		.loc 1 168 2 view .LVU149
 169:Core/Src/lora.c **** 	HAL_Delay(5);
 596              		.loc 1 169 2 view .LVU150
 597 002a 0022     		movs	r2, #0
 598 002c 0821     		movs	r1, #8
ARM GAS  C:\Users\jdcox\AppData\Local\Temp\ccqAZpOk.s 			page 18


 599 002e 2046     		mov	r0, r4
 600 0030 FFF7FEFF 		bl	LoRa_write
 601              	.LVL61:
 170:Core/Src/lora.c **** }
 602              		.loc 1 170 2 view .LVU151
 603 0034 0520     		movs	r0, #5
 604 0036 FFF7FEFF 		bl	HAL_Delay
 605              	.LVL62:
 171:Core/Src/lora.c **** 
 606              		.loc 1 171 1 is_stmt 0 view .LVU152
 607 003a 38BD     		pop	{r3, r4, r5, pc}
 171:Core/Src/lora.c **** 
 608              		.loc 1 171 1 view .LVU153
 609              		.cfi_endproc
 610              	.LFE135:
 612              		.section	.text.LoRa_setSpreadingFactor,"ax",%progbits
 613              		.align	1
 614              		.global	LoRa_setSpreadingFactor
 615              		.syntax unified
 616              		.thumb
 617              		.thumb_func
 619              	LoRa_setSpreadingFactor:
 620              	.LVL63:
 621              	.LFB136:
 184:Core/Src/lora.c **** 	uint8_t	data;
 622              		.loc 1 184 50 is_stmt 1 view -0
 623              		.cfi_startproc
 624              		@ args = 0, pretend = 0, frame = 0
 625              		@ frame_needed = 0, uses_anonymous_args = 0
 184:Core/Src/lora.c **** 	uint8_t	data;
 626              		.loc 1 184 50 is_stmt 0 view .LVU155
 627 0000 70B5     		push	{r4, r5, r6, lr}
 628              	.LCFI11:
 629              		.cfi_def_cfa_offset 16
 630              		.cfi_offset 4, -16
 631              		.cfi_offset 5, -12
 632              		.cfi_offset 6, -8
 633              		.cfi_offset 14, -4
 634 0002 0646     		mov	r6, r0
 185:Core/Src/lora.c **** 	uint8_t	read;
 635              		.loc 1 185 2 is_stmt 1 view .LVU156
 186:Core/Src/lora.c **** 
 636              		.loc 1 186 2 view .LVU157
 188:Core/Src/lora.c **** 		SF = 12;
 637              		.loc 1 188 2 view .LVU158
 188:Core/Src/lora.c **** 		SF = 12;
 638              		.loc 1 188 4 is_stmt 0 view .LVU159
 639 0004 0C29     		cmp	r1, #12
 640 0006 04DC     		bgt	.L30
 641 0008 0C46     		mov	r4, r1
 190:Core/Src/lora.c **** 		SF = 7;
 642              		.loc 1 190 2 is_stmt 1 view .LVU160
 190:Core/Src/lora.c **** 		SF = 7;
 643              		.loc 1 190 4 is_stmt 0 view .LVU161
 644 000a 0629     		cmp	r1, #6
 645 000c 02DC     		bgt	.L29
 191:Core/Src/lora.c **** 
ARM GAS  C:\Users\jdcox\AppData\Local\Temp\ccqAZpOk.s 			page 19


 646              		.loc 1 191 6 view .LVU162
 647 000e 0724     		movs	r4, #7
 648 0010 00E0     		b	.L29
 649              	.L30:
 189:Core/Src/lora.c **** 	if(SF<7)
 650              		.loc 1 189 6 view .LVU163
 651 0012 0C24     		movs	r4, #12
 652              	.L29:
 653              	.LVL64:
 193:Core/Src/lora.c **** 	HAL_Delay(10);
 654              		.loc 1 193 2 is_stmt 1 view .LVU164
 193:Core/Src/lora.c **** 	HAL_Delay(10);
 655              		.loc 1 193 9 is_stmt 0 view .LVU165
 656 0014 1E21     		movs	r1, #30
 657 0016 3046     		mov	r0, r6
 658              	.LVL65:
 193:Core/Src/lora.c **** 	HAL_Delay(10);
 659              		.loc 1 193 9 view .LVU166
 660 0018 FFF7FEFF 		bl	LoRa_read
 661              	.LVL66:
 662 001c 0546     		mov	r5, r0
 663              	.LVL67:
 194:Core/Src/lora.c **** 
 664              		.loc 1 194 2 is_stmt 1 view .LVU167
 665 001e 0A20     		movs	r0, #10
 666 0020 FFF7FEFF 		bl	HAL_Delay
 667              	.LVL68:
 196:Core/Src/lora.c **** 	LoRa_write(_LoRa, RegModemConfig2, data);
 668              		.loc 1 196 2 view .LVU168
 196:Core/Src/lora.c **** 	LoRa_write(_LoRa, RegModemConfig2, data);
 669              		.loc 1 196 13 is_stmt 0 view .LVU169
 670 0024 2201     		lsls	r2, r4, #4
 671 0026 D2B2     		uxtb	r2, r2
 196:Core/Src/lora.c **** 	LoRa_write(_LoRa, RegModemConfig2, data);
 672              		.loc 1 196 27 view .LVU170
 673 0028 05F00F05 		and	r5, r5, #15
 674              	.LVL69:
 196:Core/Src/lora.c **** 	LoRa_write(_LoRa, RegModemConfig2, data);
 675              		.loc 1 196 7 view .LVU171
 676 002c 2A44     		add	r2, r2, r5
 677              	.LVL70:
 197:Core/Src/lora.c **** 	HAL_Delay(10);
 678              		.loc 1 197 2 is_stmt 1 view .LVU172
 679 002e D2B2     		uxtb	r2, r2
 197:Core/Src/lora.c **** 	HAL_Delay(10);
 680              		.loc 1 197 2 is_stmt 0 view .LVU173
 681 0030 1E21     		movs	r1, #30
 682 0032 3046     		mov	r0, r6
 683 0034 FFF7FEFF 		bl	LoRa_write
 684              	.LVL71:
 198:Core/Src/lora.c **** }
 685              		.loc 1 198 2 is_stmt 1 view .LVU174
 686 0038 0A20     		movs	r0, #10
 687 003a FFF7FEFF 		bl	HAL_Delay
 688              	.LVL72:
 199:Core/Src/lora.c **** 
 689              		.loc 1 199 1 is_stmt 0 view .LVU175
ARM GAS  C:\Users\jdcox\AppData\Local\Temp\ccqAZpOk.s 			page 20


 690 003e 70BD     		pop	{r4, r5, r6, pc}
 199:Core/Src/lora.c **** 
 691              		.loc 1 199 1 view .LVU176
 692              		.cfi_endproc
 693              	.LFE136:
 695              		.section	.text.LoRa_setPower,"ax",%progbits
 696              		.align	1
 697              		.global	LoRa_setPower
 698              		.syntax unified
 699              		.thumb
 700              		.thumb_func
 702              	LoRa_setPower:
 703              	.LVL73:
 704              	.LFB137:
 212:Core/Src/lora.c **** 	LoRa_write(_LoRa, RegPaConfig, power);
 705              		.loc 1 212 47 is_stmt 1 view -0
 706              		.cfi_startproc
 707              		@ args = 0, pretend = 0, frame = 0
 708              		@ frame_needed = 0, uses_anonymous_args = 0
 212:Core/Src/lora.c **** 	LoRa_write(_LoRa, RegPaConfig, power);
 709              		.loc 1 212 47 is_stmt 0 view .LVU178
 710 0000 08B5     		push	{r3, lr}
 711              	.LCFI12:
 712              		.cfi_def_cfa_offset 8
 713              		.cfi_offset 3, -8
 714              		.cfi_offset 14, -4
 715 0002 0A46     		mov	r2, r1
 213:Core/Src/lora.c **** 	HAL_Delay(10);
 716              		.loc 1 213 2 is_stmt 1 view .LVU179
 717 0004 0921     		movs	r1, #9
 718              	.LVL74:
 213:Core/Src/lora.c **** 	HAL_Delay(10);
 719              		.loc 1 213 2 is_stmt 0 view .LVU180
 720 0006 FFF7FEFF 		bl	LoRa_write
 721              	.LVL75:
 214:Core/Src/lora.c **** }
 722              		.loc 1 214 2 is_stmt 1 view .LVU181
 723 000a 0A20     		movs	r0, #10
 724 000c FFF7FEFF 		bl	HAL_Delay
 725              	.LVL76:
 215:Core/Src/lora.c **** 
 726              		.loc 1 215 1 is_stmt 0 view .LVU182
 727 0010 08BD     		pop	{r3, pc}
 728              		.cfi_endproc
 729              	.LFE137:
 731              		.section	.text.LoRa_setOCP,"ax",%progbits
 732              		.align	1
 733              		.global	LoRa_setOCP
 734              		.syntax unified
 735              		.thumb
 736              		.thumb_func
 738              	LoRa_setOCP:
 739              	.LVL77:
 740              	.LFB138:
 228:Core/Src/lora.c **** 	uint8_t	OcpTrim = 0;
 741              		.loc 1 228 47 is_stmt 1 view -0
 742              		.cfi_startproc
ARM GAS  C:\Users\jdcox\AppData\Local\Temp\ccqAZpOk.s 			page 21


 743              		@ args = 0, pretend = 0, frame = 0
 744              		@ frame_needed = 0, uses_anonymous_args = 0
 228:Core/Src/lora.c **** 	uint8_t	OcpTrim = 0;
 745              		.loc 1 228 47 is_stmt 0 view .LVU184
 746 0000 08B5     		push	{r3, lr}
 747              	.LCFI13:
 748              		.cfi_def_cfa_offset 8
 749              		.cfi_offset 3, -8
 750              		.cfi_offset 14, -4
 229:Core/Src/lora.c **** 
 751              		.loc 1 229 2 is_stmt 1 view .LVU185
 752              	.LVL78:
 231:Core/Src/lora.c **** 		current = 45;
 753              		.loc 1 231 2 view .LVU186
 231:Core/Src/lora.c **** 		current = 45;
 754              		.loc 1 231 4 is_stmt 0 view .LVU187
 755 0002 2C29     		cmp	r1, #44
 756 0004 0DD9     		bls	.L39
 233:Core/Src/lora.c **** 		current = 240;
 757              		.loc 1 233 2 is_stmt 1 view .LVU188
 233:Core/Src/lora.c **** 		current = 240;
 758              		.loc 1 233 4 is_stmt 0 view .LVU189
 759 0006 F029     		cmp	r1, #240
 760 0008 0CD9     		bls	.L36
 234:Core/Src/lora.c **** 
 761              		.loc 1 234 11 view .LVU190
 762 000a F021     		movs	r1, #240
 763              	.LVL79:
 764              	.L37:
 238:Core/Src/lora.c **** 		OcpTrim = (current + 30)/10;
 765              		.loc 1 238 7 is_stmt 1 view .LVU191
 238:Core/Src/lora.c **** 		OcpTrim = (current + 30)/10;
 766              		.loc 1 238 9 is_stmt 0 view .LVU192
 767 000c F029     		cmp	r1, #240
 768 000e 1CD8     		bhi	.L41
 239:Core/Src/lora.c **** 
 769              		.loc 1 239 3 is_stmt 1 view .LVU193
 239:Core/Src/lora.c **** 
 770              		.loc 1 239 22 is_stmt 0 view .LVU194
 771 0010 1E31     		adds	r1, r1, #30
 239:Core/Src/lora.c **** 
 772              		.loc 1 239 27 view .LVU195
 773 0012 0F4B     		ldr	r3, .L43
 774 0014 83FB0123 		smull	r2, r3, r3, r1
 775 0018 CA17     		asrs	r2, r1, #31
 776 001a C2EBA302 		rsb	r2, r2, r3, asr #2
 239:Core/Src/lora.c **** 
 777              		.loc 1 239 11 view .LVU196
 778 001e D2B2     		uxtb	r2, r2
 779              	.LVL80:
 239:Core/Src/lora.c **** 
 780              		.loc 1 239 11 view .LVU197
 781 0020 0AE0     		b	.L38
 782              	.LVL81:
 783              	.L39:
 232:Core/Src/lora.c **** 	if(current>240)
 784              		.loc 1 232 11 view .LVU198
ARM GAS  C:\Users\jdcox\AppData\Local\Temp\ccqAZpOk.s 			page 22


 785 0022 2D21     		movs	r1, #45
 786              	.LVL82:
 787              	.L36:
 236:Core/Src/lora.c **** 		OcpTrim = (current - 45)/5;
 788              		.loc 1 236 2 is_stmt 1 view .LVU199
 236:Core/Src/lora.c **** 		OcpTrim = (current - 45)/5;
 789              		.loc 1 236 4 is_stmt 0 view .LVU200
 790 0024 7829     		cmp	r1, #120
 791 0026 F1D8     		bhi	.L37
 237:Core/Src/lora.c **** 	else if(current <= 240)
 792              		.loc 1 237 3 is_stmt 1 view .LVU201
 237:Core/Src/lora.c **** 	else if(current <= 240)
 793              		.loc 1 237 22 is_stmt 0 view .LVU202
 794 0028 2D39     		subs	r1, r1, #45
 795              	.LVL83:
 237:Core/Src/lora.c **** 	else if(current <= 240)
 796              		.loc 1 237 27 view .LVU203
 797 002a 094B     		ldr	r3, .L43
 798 002c 83FB0123 		smull	r2, r3, r3, r1
 799 0030 CA17     		asrs	r2, r1, #31
 800 0032 C2EB6302 		rsb	r2, r2, r3, asr #1
 237:Core/Src/lora.c **** 	else if(current <= 240)
 801              		.loc 1 237 11 view .LVU204
 802 0036 D2B2     		uxtb	r2, r2
 803              	.LVL84:
 804              	.L38:
 241:Core/Src/lora.c **** 	LoRa_write(_LoRa, RegOcp, OcpTrim);
 805              		.loc 1 241 2 is_stmt 1 view .LVU205
 241:Core/Src/lora.c **** 	LoRa_write(_LoRa, RegOcp, OcpTrim);
 806              		.loc 1 241 10 is_stmt 0 view .LVU206
 807 0038 2032     		adds	r2, r2, #32
 808              	.LVL85:
 242:Core/Src/lora.c **** 	HAL_Delay(10);
 809              		.loc 1 242 2 is_stmt 1 view .LVU207
 810 003a D2B2     		uxtb	r2, r2
 242:Core/Src/lora.c **** 	HAL_Delay(10);
 811              		.loc 1 242 2 is_stmt 0 view .LVU208
 812 003c 0B21     		movs	r1, #11
 813 003e FFF7FEFF 		bl	LoRa_write
 814              	.LVL86:
 243:Core/Src/lora.c **** }
 815              		.loc 1 243 2 is_stmt 1 view .LVU209
 816 0042 0A20     		movs	r0, #10
 817 0044 FFF7FEFF 		bl	HAL_Delay
 818              	.LVL87:
 244:Core/Src/lora.c **** 
 819              		.loc 1 244 1 is_stmt 0 view .LVU210
 820 0048 08BD     		pop	{r3, pc}
 821              	.LVL88:
 822              	.L41:
 229:Core/Src/lora.c **** 
 823              		.loc 1 229 10 view .LVU211
 824 004a 0022     		movs	r2, #0
 825 004c F4E7     		b	.L38
 826              	.L44:
 827 004e 00BF     		.align	2
 828              	.L43:
ARM GAS  C:\Users\jdcox\AppData\Local\Temp\ccqAZpOk.s 			page 23


 829 0050 67666666 		.word	1717986919
 830              		.cfi_endproc
 831              	.LFE138:
 833              		.section	.text.LoRa_setTOMsb_setCRCon,"ax",%progbits
 834              		.align	1
 835              		.global	LoRa_setTOMsb_setCRCon
 836              		.syntax unified
 837              		.thumb
 838              		.thumb_func
 840              	LoRa_setTOMsb_setCRCon:
 841              	.LVL89:
 842              	.LFB139:
 256:Core/Src/lora.c **** 	uint8_t read, data;
 843              		.loc 1 256 41 is_stmt 1 view -0
 844              		.cfi_startproc
 845              		@ args = 0, pretend = 0, frame = 0
 846              		@ frame_needed = 0, uses_anonymous_args = 0
 256:Core/Src/lora.c **** 	uint8_t read, data;
 847              		.loc 1 256 41 is_stmt 0 view .LVU213
 848 0000 10B5     		push	{r4, lr}
 849              	.LCFI14:
 850              		.cfi_def_cfa_offset 8
 851              		.cfi_offset 4, -8
 852              		.cfi_offset 14, -4
 853 0002 0446     		mov	r4, r0
 257:Core/Src/lora.c **** 
 854              		.loc 1 257 2 is_stmt 1 view .LVU214
 259:Core/Src/lora.c **** 
 855              		.loc 1 259 2 view .LVU215
 259:Core/Src/lora.c **** 
 856              		.loc 1 259 9 is_stmt 0 view .LVU216
 857 0004 1E21     		movs	r1, #30
 858 0006 FFF7FEFF 		bl	LoRa_read
 859              	.LVL90:
 261:Core/Src/lora.c **** 	LoRa_write(_LoRa, RegModemConfig2, data);\
 860              		.loc 1 261 2 is_stmt 1 view .LVU217
 261:Core/Src/lora.c **** 	LoRa_write(_LoRa, RegModemConfig2, data);\
 861              		.loc 1 261 7 is_stmt 0 view .LVU218
 862 000a 40F00702 		orr	r2, r0, #7
 863              	.LVL91:
 262:Core/Src/lora.c **** 	HAL_Delay(10);
 864              		.loc 1 262 2 is_stmt 1 view .LVU219
 865 000e D2B2     		uxtb	r2, r2
 262:Core/Src/lora.c **** 	HAL_Delay(10);
 866              		.loc 1 262 2 is_stmt 0 view .LVU220
 867 0010 1E21     		movs	r1, #30
 868 0012 2046     		mov	r0, r4
 869              	.LVL92:
 262:Core/Src/lora.c **** 	HAL_Delay(10);
 870              		.loc 1 262 2 view .LVU221
 871 0014 FFF7FEFF 		bl	LoRa_write
 872              	.LVL93:
 263:Core/Src/lora.c **** }
 873              		.loc 1 263 2 is_stmt 1 view .LVU222
 874 0018 0A20     		movs	r0, #10
 875 001a FFF7FEFF 		bl	HAL_Delay
 876              	.LVL94:
ARM GAS  C:\Users\jdcox\AppData\Local\Temp\ccqAZpOk.s 			page 24


 264:Core/Src/lora.c **** 
 877              		.loc 1 264 1 is_stmt 0 view .LVU223
 878 001e 10BD     		pop	{r4, pc}
 264:Core/Src/lora.c **** 
 879              		.loc 1 264 1 view .LVU224
 880              		.cfi_endproc
 881              	.LFE139:
 883              		.section	.text.LoRa_setSyncWord,"ax",%progbits
 884              		.align	1
 885              		.global	LoRa_setSyncWord
 886              		.syntax unified
 887              		.thumb
 888              		.thumb_func
 890              	LoRa_setSyncWord:
 891              	.LVL95:
 892              	.LFB140:
 276:Core/Src/lora.c **** 	LoRa_write(_LoRa, RegSyncWord, syncword);
 893              		.loc 1 276 53 is_stmt 1 view -0
 894              		.cfi_startproc
 895              		@ args = 0, pretend = 0, frame = 0
 896              		@ frame_needed = 0, uses_anonymous_args = 0
 276:Core/Src/lora.c **** 	LoRa_write(_LoRa, RegSyncWord, syncword);
 897              		.loc 1 276 53 is_stmt 0 view .LVU226
 898 0000 08B5     		push	{r3, lr}
 899              	.LCFI15:
 900              		.cfi_def_cfa_offset 8
 901              		.cfi_offset 3, -8
 902              		.cfi_offset 14, -4
 903 0002 0A46     		mov	r2, r1
 277:Core/Src/lora.c **** 	HAL_Delay(10);
 904              		.loc 1 277 2 is_stmt 1 view .LVU227
 905 0004 3921     		movs	r1, #57
 906              	.LVL96:
 277:Core/Src/lora.c **** 	HAL_Delay(10);
 907              		.loc 1 277 2 is_stmt 0 view .LVU228
 908 0006 FFF7FEFF 		bl	LoRa_write
 909              	.LVL97:
 278:Core/Src/lora.c **** }
 910              		.loc 1 278 2 is_stmt 1 view .LVU229
 911 000a 0A20     		movs	r0, #10
 912 000c FFF7FEFF 		bl	HAL_Delay
 913              	.LVL98:
 279:Core/Src/lora.c **** 
 914              		.loc 1 279 1 is_stmt 0 view .LVU230
 915 0010 08BD     		pop	{r3, pc}
 916              		.cfi_endproc
 917              	.LFE140:
 919              		.section	.text.LoRa_BurstWrite,"ax",%progbits
 920              		.align	1
 921              		.global	LoRa_BurstWrite
 922              		.syntax unified
 923              		.thumb
 924              		.thumb_func
 926              	LoRa_BurstWrite:
 927              	.LVL99:
 928              	.LFB143:
 324:Core/Src/lora.c **** 
ARM GAS  C:\Users\jdcox\AppData\Local\Temp\ccqAZpOk.s 			page 25


 325:Core/Src/lora.c **** /* ----------------------------------------------------------------------------- *\
 326:Core/Src/lora.c **** 		name        : LoRa_BurstWrite
 327:Core/Src/lora.c **** 
 328:Core/Src/lora.c **** 		description : write a set of values in a register by an address respectively
 329:Core/Src/lora.c **** 
 330:Core/Src/lora.c **** 		arguments   :
 331:Core/Src/lora.c **** 			LoRa*   LoRa        --> LoRa object handler
 332:Core/Src/lora.c **** 			uint8_t address     -->	address of the register e.g 0x1D
 333:Core/Src/lora.c **** 			uint8_t *value      --> address of values that you want to write
 334:Core/Src/lora.c **** 
 335:Core/Src/lora.c **** 		returns     : Nothing
 336:Core/Src/lora.c **** \* ----------------------------------------------------------------------------- */
 337:Core/Src/lora.c **** void LoRa_BurstWrite(LoRa* _LoRa, uint8_t address, uint8_t *value, uint8_t length){
 929              		.loc 1 337 83 is_stmt 1 view -0
 930              		.cfi_startproc
 931              		@ args = 0, pretend = 0, frame = 8
 932              		@ frame_needed = 0, uses_anonymous_args = 0
 933              		.loc 1 337 83 is_stmt 0 view .LVU232
 934 0000 70B5     		push	{r4, r5, r6, lr}
 935              	.LCFI16:
 936              		.cfi_def_cfa_offset 16
 937              		.cfi_offset 4, -16
 938              		.cfi_offset 5, -12
 939              		.cfi_offset 6, -8
 940              		.cfi_offset 14, -4
 941 0002 82B0     		sub	sp, sp, #8
 942              	.LCFI17:
 943              		.cfi_def_cfa_offset 24
 944 0004 0446     		mov	r4, r0
 945 0006 1546     		mov	r5, r2
 946 0008 1E46     		mov	r6, r3
 338:Core/Src/lora.c **** 	uint8_t addr;
 947              		.loc 1 338 2 is_stmt 1 view .LVU233
 339:Core/Src/lora.c **** 	addr = address | 0x80;
 948              		.loc 1 339 2 view .LVU234
 949              		.loc 1 339 7 is_stmt 0 view .LVU235
 950 000a 61F07F01 		orn	r1, r1, #127
 951              	.LVL100:
 952              		.loc 1 339 7 view .LVU236
 953 000e 8DF80710 		strb	r1, [sp, #7]
 340:Core/Src/lora.c **** 
 341:Core/Src/lora.c **** 	//NSS = 1
 342:Core/Src/lora.c **** 	HAL_GPIO_WritePin(_LoRa->CS_port, _LoRa->CS_pin, GPIO_PIN_RESET);
 954              		.loc 1 342 2 is_stmt 1 view .LVU237
 955 0012 0022     		movs	r2, #0
 956              	.LVL101:
 957              		.loc 1 342 2 is_stmt 0 view .LVU238
 958 0014 8188     		ldrh	r1, [r0, #4]
 959 0016 0068     		ldr	r0, [r0]
 960              	.LVL102:
 961              		.loc 1 342 2 view .LVU239
 962 0018 FFF7FEFF 		bl	HAL_GPIO_WritePin
 963              	.LVL103:
 343:Core/Src/lora.c **** 	
 344:Core/Src/lora.c **** 	HAL_SPI_Transmit(_LoRa->hSPIx, &addr, 1, TRANSMIT_TIMEOUT);
 964              		.loc 1 344 2 is_stmt 1 view .LVU240
 965 001c 4FF4FA63 		mov	r3, #2000
ARM GAS  C:\Users\jdcox\AppData\Local\Temp\ccqAZpOk.s 			page 26


 966 0020 0122     		movs	r2, #1
 967 0022 0DF10701 		add	r1, sp, #7
 968 0026 A069     		ldr	r0, [r4, #24]
 969 0028 FFF7FEFF 		bl	HAL_SPI_Transmit
 970              	.LVL104:
 345:Core/Src/lora.c **** 	while (HAL_SPI_GetState(_LoRa->hSPIx) != HAL_SPI_STATE_READY)
 971              		.loc 1 345 2 view .LVU241
 972              	.L50:
 973              		.loc 1 345 40 discriminator 1 view .LVU242
 974              		.loc 1 345 9 is_stmt 0 discriminator 1 view .LVU243
 975 002c A069     		ldr	r0, [r4, #24]
 976 002e FFF7FEFF 		bl	HAL_SPI_GetState
 977              	.LVL105:
 978              		.loc 1 345 40 discriminator 1 view .LVU244
 979 0032 0128     		cmp	r0, #1
 980 0034 FAD1     		bne	.L50
 346:Core/Src/lora.c **** 		;
 347:Core/Src/lora.c **** 	//Write data in FiFo
 348:Core/Src/lora.c **** 	HAL_SPI_Transmit(_LoRa->hSPIx, value, length, TRANSMIT_TIMEOUT);
 981              		.loc 1 348 2 is_stmt 1 view .LVU245
 982 0036 4FF4FA63 		mov	r3, #2000
 983 003a 3246     		mov	r2, r6
 984 003c 2946     		mov	r1, r5
 985 003e A069     		ldr	r0, [r4, #24]
 986 0040 FFF7FEFF 		bl	HAL_SPI_Transmit
 987              	.LVL106:
 349:Core/Src/lora.c **** 	while (HAL_SPI_GetState(_LoRa->hSPIx) != HAL_SPI_STATE_READY)
 988              		.loc 1 349 2 view .LVU246
 989              	.L51:
 990              		.loc 1 349 40 discriminator 1 view .LVU247
 991              		.loc 1 349 9 is_stmt 0 discriminator 1 view .LVU248
 992 0044 A069     		ldr	r0, [r4, #24]
 993 0046 FFF7FEFF 		bl	HAL_SPI_GetState
 994              	.LVL107:
 995              		.loc 1 349 40 discriminator 1 view .LVU249
 996 004a 0128     		cmp	r0, #1
 997 004c FAD1     		bne	.L51
 350:Core/Src/lora.c **** 		;
 351:Core/Src/lora.c **** 	//NSS = 0
 352:Core/Src/lora.c **** 	//HAL_Delay(5);
 353:Core/Src/lora.c **** 	HAL_GPIO_WritePin(_LoRa->CS_port, _LoRa->CS_pin, GPIO_PIN_SET);
 998              		.loc 1 353 2 is_stmt 1 view .LVU250
 999 004e 0122     		movs	r2, #1
 1000 0050 A188     		ldrh	r1, [r4, #4]
 1001 0052 2068     		ldr	r0, [r4]
 1002 0054 FFF7FEFF 		bl	HAL_GPIO_WritePin
 1003              	.LVL108:
 354:Core/Src/lora.c **** }
 1004              		.loc 1 354 1 is_stmt 0 view .LVU251
 1005 0058 02B0     		add	sp, sp, #8
 1006              	.LCFI18:
 1007              		.cfi_def_cfa_offset 16
 1008              		@ sp needed
 1009 005a 70BD     		pop	{r4, r5, r6, pc}
 1010              		.loc 1 354 1 view .LVU252
 1011              		.cfi_endproc
 1012              	.LFE143:
ARM GAS  C:\Users\jdcox\AppData\Local\Temp\ccqAZpOk.s 			page 27


 1014              		.section	.text.LoRa_isvalid,"ax",%progbits
 1015              		.align	1
 1016              		.global	LoRa_isvalid
 1017              		.syntax unified
 1018              		.thumb
 1019              		.thumb_func
 1021              	LoRa_isvalid:
 1022              	.LVL109:
 1023              	.LFB144:
 355:Core/Src/lora.c **** /* ----------------------------------------------------------------------------- *\
 356:Core/Src/lora.c **** 		name        : LoRa_isvalid
 357:Core/Src/lora.c **** 
 358:Core/Src/lora.c **** 		description : check the LoRa instruct values
 359:Core/Src/lora.c **** 
 360:Core/Src/lora.c **** 		arguments   :
 361:Core/Src/lora.c **** 			LoRa* LoRa --> LoRa object handler
 362:Core/Src/lora.c **** 
 363:Core/Src/lora.c **** 		returns     : returns 1 if all of the values were given, otherwise returns 0
 364:Core/Src/lora.c **** \* ----------------------------------------------------------------------------- */
 365:Core/Src/lora.c **** uint8_t LoRa_isvalid(LoRa* _LoRa){
 1024              		.loc 1 365 34 is_stmt 1 view -0
 1025              		.cfi_startproc
 1026              		@ args = 0, pretend = 0, frame = 0
 1027              		@ frame_needed = 0, uses_anonymous_args = 0
 1028              		@ link register save eliminated.
 366:Core/Src/lora.c **** 
 367:Core/Src/lora.c **** 	return 1;
 1029              		.loc 1 367 2 view .LVU254
 368:Core/Src/lora.c **** }
 1030              		.loc 1 368 1 is_stmt 0 view .LVU255
 1031 0000 0120     		movs	r0, #1
 1032              	.LVL110:
 1033              		.loc 1 368 1 view .LVU256
 1034 0002 7047     		bx	lr
 1035              		.cfi_endproc
 1036              	.LFE144:
 1038              		.section	.text.LoRa_transmit,"ax",%progbits
 1039              		.align	1
 1040              		.global	LoRa_transmit
 1041              		.syntax unified
 1042              		.thumb
 1043              		.thumb_func
 1045              	LoRa_transmit:
 1046              	.LVL111:
 1047              	.LFB145:
 369:Core/Src/lora.c **** 
 370:Core/Src/lora.c **** /* ----------------------------------------------------------------------------- *\
 371:Core/Src/lora.c **** 		name        : LoRa_transmit
 372:Core/Src/lora.c **** 
 373:Core/Src/lora.c **** 		description : Transmit data
 374:Core/Src/lora.c **** 
 375:Core/Src/lora.c **** 		arguments   :
 376:Core/Src/lora.c **** 			LoRa*    LoRa     --> LoRa object handler
 377:Core/Src/lora.c **** 			uint8_t  data			--> A pointer to the data you wanna send
 378:Core/Src/lora.c **** 			uint8_t	 length   --> Size of your data in Bytes
 379:Core/Src/lora.c **** 			uint16_t timeOut	--> Timeout in milliseconds
 380:Core/Src/lora.c **** 		returns     : 1 in case of success, 0 in case of timeout
ARM GAS  C:\Users\jdcox\AppData\Local\Temp\ccqAZpOk.s 			page 28


 381:Core/Src/lora.c **** \* ----------------------------------------------------------------------------- */
 382:Core/Src/lora.c **** uint8_t LoRa_transmit(LoRa* _LoRa, uint8_t* data, uint8_t length, uint16_t timeout){
 1048              		.loc 1 382 84 is_stmt 1 view -0
 1049              		.cfi_startproc
 1050              		@ args = 0, pretend = 0, frame = 0
 1051              		@ frame_needed = 0, uses_anonymous_args = 0
 1052              		.loc 1 382 84 is_stmt 0 view .LVU258
 1053 0000 2DE9F041 		push	{r4, r5, r6, r7, r8, lr}
 1054              	.LCFI19:
 1055              		.cfi_def_cfa_offset 24
 1056              		.cfi_offset 4, -24
 1057              		.cfi_offset 5, -20
 1058              		.cfi_offset 6, -16
 1059              		.cfi_offset 7, -12
 1060              		.cfi_offset 8, -8
 1061              		.cfi_offset 14, -4
 1062 0004 0646     		mov	r6, r0
 1063 0006 0F46     		mov	r7, r1
 1064 0008 1546     		mov	r5, r2
 1065 000a 1C46     		mov	r4, r3
 383:Core/Src/lora.c **** 	uint8_t read;
 1066              		.loc 1 383 2 is_stmt 1 view .LVU259
 384:Core/Src/lora.c **** 
 385:Core/Src/lora.c **** 	int mode = _LoRa->current_mode;
 1067              		.loc 1 385 2 view .LVU260
 1068              		.loc 1 385 6 is_stmt 0 view .LVU261
 1069 000c D0F81C80 		ldr	r8, [r0, #28]
 1070              	.LVL112:
 386:Core/Src/lora.c **** 	LoRa_gotoMode(_LoRa, STNBY_MODE);
 1071              		.loc 1 386 2 is_stmt 1 view .LVU262
 1072 0010 0121     		movs	r1, #1
 1073              	.LVL113:
 1074              		.loc 1 386 2 is_stmt 0 view .LVU263
 1075 0012 FFF7FEFF 		bl	LoRa_gotoMode
 1076              	.LVL114:
 387:Core/Src/lora.c **** 	read = LoRa_read(_LoRa, RegFiFoTxBaseAddr);
 1077              		.loc 1 387 2 is_stmt 1 view .LVU264
 1078              		.loc 1 387 9 is_stmt 0 view .LVU265
 1079 0016 0E21     		movs	r1, #14
 1080 0018 3046     		mov	r0, r6
 1081 001a FFF7FEFF 		bl	LoRa_read
 1082              	.LVL115:
 1083 001e 0246     		mov	r2, r0
 1084              	.LVL116:
 388:Core/Src/lora.c **** 	LoRa_write(_LoRa, RegFiFoAddPtr, read);
 1085              		.loc 1 388 2 is_stmt 1 view .LVU266
 1086 0020 0D21     		movs	r1, #13
 1087 0022 3046     		mov	r0, r6
 1088 0024 FFF7FEFF 		bl	LoRa_write
 1089              	.LVL117:
 389:Core/Src/lora.c **** 	LoRa_write(_LoRa, RegPayloadLength, length);
 1090              		.loc 1 389 2 view .LVU267
 1091 0028 2A46     		mov	r2, r5
 1092 002a 2221     		movs	r1, #34
 1093 002c 3046     		mov	r0, r6
 1094 002e FFF7FEFF 		bl	LoRa_write
 1095              	.LVL118:
ARM GAS  C:\Users\jdcox\AppData\Local\Temp\ccqAZpOk.s 			page 29


 390:Core/Src/lora.c **** 	LoRa_BurstWrite(_LoRa, RegFiFo, data, length);
 1096              		.loc 1 390 2 view .LVU268
 1097 0032 2B46     		mov	r3, r5
 1098 0034 3A46     		mov	r2, r7
 1099 0036 0021     		movs	r1, #0
 1100 0038 3046     		mov	r0, r6
 1101 003a FFF7FEFF 		bl	LoRa_BurstWrite
 1102              	.LVL119:
 391:Core/Src/lora.c **** 	LoRa_gotoMode(_LoRa, TRANSMIT_MODE);
 1103              		.loc 1 391 2 view .LVU269
 1104 003e 0321     		movs	r1, #3
 1105 0040 3046     		mov	r0, r6
 1106 0042 FFF7FEFF 		bl	LoRa_gotoMode
 1107              	.LVL120:
 1108 0046 0FE0     		b	.L58
 1109              	.LVL121:
 1110              	.L60:
 392:Core/Src/lora.c **** 	while(1){
 393:Core/Src/lora.c **** 		read = LoRa_read(_LoRa, RegIrqFlags);
 394:Core/Src/lora.c **** 		if((read & 0x08)!=0){
 395:Core/Src/lora.c **** 			LoRa_write(_LoRa, RegIrqFlags, 0xFF);
 1111              		.loc 1 395 4 view .LVU270
 1112 0048 FF22     		movs	r2, #255
 1113 004a 1221     		movs	r1, #18
 1114 004c 3046     		mov	r0, r6
 1115              	.LVL122:
 1116              		.loc 1 395 4 is_stmt 0 view .LVU271
 1117 004e FFF7FEFF 		bl	LoRa_write
 1118              	.LVL123:
 396:Core/Src/lora.c **** 			LoRa_gotoMode(_LoRa, mode);
 1119              		.loc 1 396 4 is_stmt 1 view .LVU272
 1120 0052 4146     		mov	r1, r8
 1121 0054 3046     		mov	r0, r6
 1122 0056 FFF7FEFF 		bl	LoRa_gotoMode
 1123              	.LVL124:
 397:Core/Src/lora.c **** 			return 1;
 1124              		.loc 1 397 4 view .LVU273
 1125              		.loc 1 397 11 is_stmt 0 view .LVU274
 1126 005a 0125     		movs	r5, #1
 1127              	.L56:
 398:Core/Src/lora.c **** 		}
 399:Core/Src/lora.c **** 		else{
 400:Core/Src/lora.c **** 			if(--timeout==0){
 401:Core/Src/lora.c **** 				LoRa_gotoMode(_LoRa, mode);
 402:Core/Src/lora.c **** 				return 0;
 403:Core/Src/lora.c **** 			}
 404:Core/Src/lora.c **** 		}
 405:Core/Src/lora.c **** 		HAL_Delay(1);
 406:Core/Src/lora.c **** 	}
 407:Core/Src/lora.c **** }
 1128              		.loc 1 407 1 view .LVU275
 1129 005c 2846     		mov	r0, r5
 1130 005e BDE8F081 		pop	{r4, r5, r6, r7, r8, pc}
 1131              	.LVL125:
 1132              	.L57:
 405:Core/Src/lora.c **** 	}
 1133              		.loc 1 405 3 is_stmt 1 view .LVU276
ARM GAS  C:\Users\jdcox\AppData\Local\Temp\ccqAZpOk.s 			page 30


 1134 0062 0120     		movs	r0, #1
 1135              	.LVL126:
 405:Core/Src/lora.c **** 	}
 1136              		.loc 1 405 3 is_stmt 0 view .LVU277
 1137 0064 FFF7FEFF 		bl	HAL_Delay
 1138              	.LVL127:
 392:Core/Src/lora.c **** 		read = LoRa_read(_LoRa, RegIrqFlags);
 1139              		.loc 1 392 7 is_stmt 1 view .LVU278
 1140              	.L58:
 392:Core/Src/lora.c **** 		read = LoRa_read(_LoRa, RegIrqFlags);
 1141              		.loc 1 392 2 view .LVU279
 393:Core/Src/lora.c **** 		if((read & 0x08)!=0){
 1142              		.loc 1 393 3 view .LVU280
 393:Core/Src/lora.c **** 		if((read & 0x08)!=0){
 1143              		.loc 1 393 10 is_stmt 0 view .LVU281
 1144 0068 1221     		movs	r1, #18
 1145 006a 3046     		mov	r0, r6
 1146 006c FFF7FEFF 		bl	LoRa_read
 1147              	.LVL128:
 394:Core/Src/lora.c **** 			LoRa_write(_LoRa, RegIrqFlags, 0xFF);
 1148              		.loc 1 394 3 is_stmt 1 view .LVU282
 394:Core/Src/lora.c **** 			LoRa_write(_LoRa, RegIrqFlags, 0xFF);
 1149              		.loc 1 394 5 is_stmt 0 view .LVU283
 1150 0070 10F00805 		ands	r5, r0, #8
 1151 0074 E8D1     		bne	.L60
 400:Core/Src/lora.c **** 				LoRa_gotoMode(_LoRa, mode);
 1152              		.loc 1 400 4 is_stmt 1 view .LVU284
 400:Core/Src/lora.c **** 				LoRa_gotoMode(_LoRa, mode);
 1153              		.loc 1 400 6 is_stmt 0 view .LVU285
 1154 0076 013C     		subs	r4, r4, #1
 1155              	.LVL129:
 400:Core/Src/lora.c **** 				LoRa_gotoMode(_LoRa, mode);
 1156              		.loc 1 400 6 view .LVU286
 1157 0078 A4B2     		uxth	r4, r4
 1158              	.LVL130:
 400:Core/Src/lora.c **** 				LoRa_gotoMode(_LoRa, mode);
 1159              		.loc 1 400 6 view .LVU287
 1160 007a 002C     		cmp	r4, #0
 1161 007c F1D1     		bne	.L57
 401:Core/Src/lora.c **** 				return 0;
 1162              		.loc 1 401 5 is_stmt 1 view .LVU288
 1163 007e 4146     		mov	r1, r8
 1164 0080 3046     		mov	r0, r6
 1165              	.LVL131:
 401:Core/Src/lora.c **** 				return 0;
 1166              		.loc 1 401 5 is_stmt 0 view .LVU289
 1167 0082 FFF7FEFF 		bl	LoRa_gotoMode
 1168              	.LVL132:
 402:Core/Src/lora.c **** 			}
 1169              		.loc 1 402 5 is_stmt 1 view .LVU290
 402:Core/Src/lora.c **** 			}
 1170              		.loc 1 402 12 is_stmt 0 view .LVU291
 1171 0086 E9E7     		b	.L56
 1172              		.cfi_endproc
 1173              	.LFE145:
 1175              		.section	.text.LoRa_startReceiving,"ax",%progbits
 1176              		.align	1
ARM GAS  C:\Users\jdcox\AppData\Local\Temp\ccqAZpOk.s 			page 31


 1177              		.global	LoRa_startReceiving
 1178              		.syntax unified
 1179              		.thumb
 1180              		.thumb_func
 1182              	LoRa_startReceiving:
 1183              	.LVL133:
 1184              	.LFB146:
 408:Core/Src/lora.c **** 
 409:Core/Src/lora.c **** /* ----------------------------------------------------------------------------- *\
 410:Core/Src/lora.c **** 		name        : LoRa_startReceiving
 411:Core/Src/lora.c **** 
 412:Core/Src/lora.c **** 		description : Start receiving continuously
 413:Core/Src/lora.c **** 
 414:Core/Src/lora.c **** 		arguments   :
 415:Core/Src/lora.c **** 			LoRa*    LoRa     --> LoRa object handler
 416:Core/Src/lora.c **** 
 417:Core/Src/lora.c **** 		returns     : Nothing
 418:Core/Src/lora.c **** \* ----------------------------------------------------------------------------- */
 419:Core/Src/lora.c **** void LoRa_startReceiving(LoRa* _LoRa){
 1185              		.loc 1 419 38 is_stmt 1 view -0
 1186              		.cfi_startproc
 1187              		@ args = 0, pretend = 0, frame = 0
 1188              		@ frame_needed = 0, uses_anonymous_args = 0
 1189              		.loc 1 419 38 is_stmt 0 view .LVU293
 1190 0000 08B5     		push	{r3, lr}
 1191              	.LCFI20:
 1192              		.cfi_def_cfa_offset 8
 1193              		.cfi_offset 3, -8
 1194              		.cfi_offset 14, -4
 420:Core/Src/lora.c **** 	LoRa_gotoMode(_LoRa, RXCONTIN_MODE);
 1195              		.loc 1 420 2 is_stmt 1 view .LVU294
 1196 0002 0521     		movs	r1, #5
 1197 0004 FFF7FEFF 		bl	LoRa_gotoMode
 1198              	.LVL134:
 421:Core/Src/lora.c **** }
 1199              		.loc 1 421 1 is_stmt 0 view .LVU295
 1200 0008 08BD     		pop	{r3, pc}
 1201              		.cfi_endproc
 1202              	.LFE146:
 1204              		.section	.text.LoRa_receive,"ax",%progbits
 1205              		.align	1
 1206              		.global	LoRa_receive
 1207              		.syntax unified
 1208              		.thumb
 1209              		.thumb_func
 1211              	LoRa_receive:
 1212              	.LVL135:
 1213              	.LFB147:
 422:Core/Src/lora.c **** 
 423:Core/Src/lora.c **** /* ----------------------------------------------------------------------------- *\
 424:Core/Src/lora.c **** 		name        : LoRa_Receive
 425:Core/Src/lora.c **** 
 426:Core/Src/lora.c **** 		description : Read received data from module
 427:Core/Src/lora.c **** 
 428:Core/Src/lora.c **** 		arguments   :
 429:Core/Src/lora.c **** 			LoRa*    LoRa     --> LoRa object handler
 430:Core/Src/lora.c **** 			uint8_t  data			--> A pointer to the array that you want to write bytes in it
ARM GAS  C:\Users\jdcox\AppData\Local\Temp\ccqAZpOk.s 			page 32


 431:Core/Src/lora.c **** 			uint8_t	 length   --> Determines how many bytes you want to read
 432:Core/Src/lora.c **** 
 433:Core/Src/lora.c **** 		returns     : The number of bytes received
 434:Core/Src/lora.c **** \* ----------------------------------------------------------------------------- */
 435:Core/Src/lora.c **** uint8_t LoRa_receive(LoRa* _LoRa, uint8_t* data, uint8_t length){
 1214              		.loc 1 435 65 is_stmt 1 view -0
 1215              		.cfi_startproc
 1216              		@ args = 0, pretend = 0, frame = 0
 1217              		@ frame_needed = 0, uses_anonymous_args = 0
 1218              		.loc 1 435 65 is_stmt 0 view .LVU297
 1219 0000 F8B5     		push	{r3, r4, r5, r6, r7, lr}
 1220              	.LCFI21:
 1221              		.cfi_def_cfa_offset 24
 1222              		.cfi_offset 3, -24
 1223              		.cfi_offset 4, -20
 1224              		.cfi_offset 5, -16
 1225              		.cfi_offset 6, -12
 1226              		.cfi_offset 7, -8
 1227              		.cfi_offset 14, -4
 1228 0002 0646     		mov	r6, r0
 1229 0004 0C46     		mov	r4, r1
 1230 0006 1546     		mov	r5, r2
 436:Core/Src/lora.c **** 	uint8_t read;
 1231              		.loc 1 436 2 is_stmt 1 view .LVU298
 437:Core/Src/lora.c **** 	uint8_t number_of_bytes;
 1232              		.loc 1 437 2 view .LVU299
 438:Core/Src/lora.c **** 	uint8_t min = 0;
 1233              		.loc 1 438 2 view .LVU300
 1234              	.LVL136:
 439:Core/Src/lora.c **** 
 440:Core/Src/lora.c **** 	for(int i=0; i<length; i++)
 1235              		.loc 1 440 2 view .LVU301
 1236              	.LBB2:
 1237              		.loc 1 440 6 view .LVU302
 1238              		.loc 1 440 10 is_stmt 0 view .LVU303
 1239 0008 0023     		movs	r3, #0
 1240              		.loc 1 440 2 view .LVU304
 1241 000a 04E0     		b	.L64
 1242              	.LVL137:
 1243              	.L65:
 441:Core/Src/lora.c **** 		data[i]=0;
 1244              		.loc 1 441 3 is_stmt 1 discriminator 3 view .LVU305
 1245              		.loc 1 441 10 is_stmt 0 discriminator 3 view .LVU306
 1246 000c 4FF0000C 		mov	ip, #0
 1247 0010 04F803C0 		strb	ip, [r4, r3]
 440:Core/Src/lora.c **** 		data[i]=0;
 1248              		.loc 1 440 26 is_stmt 1 discriminator 3 view .LVU307
 1249 0014 0133     		adds	r3, r3, #1
 1250              	.LVL138:
 1251              	.L64:
 440:Core/Src/lora.c **** 		data[i]=0;
 1252              		.loc 1 440 16 discriminator 1 view .LVU308
 1253 0016 9D42     		cmp	r5, r3
 1254 0018 F8DC     		bgt	.L65
 1255              	.LBE2:
 442:Core/Src/lora.c **** 
 443:Core/Src/lora.c **** 	LoRa_gotoMode(_LoRa, STNBY_MODE);
ARM GAS  C:\Users\jdcox\AppData\Local\Temp\ccqAZpOk.s 			page 33


 1256              		.loc 1 443 2 view .LVU309
 1257 001a 0121     		movs	r1, #1
 1258              	.LVL139:
 1259              		.loc 1 443 2 is_stmt 0 view .LVU310
 1260 001c 3046     		mov	r0, r6
 1261              	.LVL140:
 1262              		.loc 1 443 2 view .LVU311
 1263 001e FFF7FEFF 		bl	LoRa_gotoMode
 1264              	.LVL141:
 444:Core/Src/lora.c **** 	read = LoRa_read(_LoRa, RegIrqFlags);
 1265              		.loc 1 444 2 is_stmt 1 view .LVU312
 1266              		.loc 1 444 9 is_stmt 0 view .LVU313
 1267 0022 1221     		movs	r1, #18
 1268 0024 3046     		mov	r0, r6
 1269 0026 FFF7FEFF 		bl	LoRa_read
 1270              	.LVL142:
 445:Core/Src/lora.c **** 	if((read & 0x40) != 0){
 1271              		.loc 1 445 2 is_stmt 1 view .LVU314
 1272              		.loc 1 445 4 is_stmt 0 view .LVU315
 1273 002a 10F04007 		ands	r7, r0, #64
 1274 002e 05D1     		bne	.L70
 1275              	.LVL143:
 1276              	.L66:
 446:Core/Src/lora.c **** 		LoRa_write(_LoRa, RegIrqFlags, 0xFF);
 447:Core/Src/lora.c **** 		number_of_bytes = LoRa_read(_LoRa, RegRxNbBytes);
 448:Core/Src/lora.c **** 		read = LoRa_read(_LoRa, RegFiFoRxCurrentAddr);
 449:Core/Src/lora.c **** 		LoRa_write(_LoRa, RegFiFoAddPtr, read);
 450:Core/Src/lora.c **** 		min = length >= number_of_bytes ? number_of_bytes : length;
 451:Core/Src/lora.c **** 		for(int i=0; i<min; i++)
 452:Core/Src/lora.c **** 			data[i] = LoRa_read(_LoRa, RegFiFo);
 453:Core/Src/lora.c **** 	}
 454:Core/Src/lora.c **** 	LoRa_gotoMode(_LoRa, RXCONTIN_MODE);
 1277              		.loc 1 454 2 is_stmt 1 view .LVU316
 1278 0030 0521     		movs	r1, #5
 1279 0032 3046     		mov	r0, r6
 1280 0034 FFF7FEFF 		bl	LoRa_gotoMode
 1281              	.LVL144:
 455:Core/Src/lora.c ****     return min;
 1282              		.loc 1 455 5 view .LVU317
 456:Core/Src/lora.c **** }
 1283              		.loc 1 456 1 is_stmt 0 view .LVU318
 1284 0038 3846     		mov	r0, r7
 1285 003a F8BD     		pop	{r3, r4, r5, r6, r7, pc}
 1286              	.LVL145:
 1287              	.L70:
 446:Core/Src/lora.c **** 		LoRa_write(_LoRa, RegIrqFlags, 0xFF);
 1288              		.loc 1 446 3 is_stmt 1 view .LVU319
 1289 003c FF22     		movs	r2, #255
 1290 003e 1221     		movs	r1, #18
 1291 0040 3046     		mov	r0, r6
 1292              	.LVL146:
 446:Core/Src/lora.c **** 		LoRa_write(_LoRa, RegIrqFlags, 0xFF);
 1293              		.loc 1 446 3 is_stmt 0 view .LVU320
 1294 0042 FFF7FEFF 		bl	LoRa_write
 1295              	.LVL147:
 447:Core/Src/lora.c **** 		read = LoRa_read(_LoRa, RegFiFoRxCurrentAddr);
 1296              		.loc 1 447 3 is_stmt 1 view .LVU321
ARM GAS  C:\Users\jdcox\AppData\Local\Temp\ccqAZpOk.s 			page 34


 447:Core/Src/lora.c **** 		read = LoRa_read(_LoRa, RegFiFoRxCurrentAddr);
 1297              		.loc 1 447 21 is_stmt 0 view .LVU322
 1298 0046 1321     		movs	r1, #19
 1299 0048 3046     		mov	r0, r6
 1300 004a FFF7FEFF 		bl	LoRa_read
 1301              	.LVL148:
 1302 004e 0746     		mov	r7, r0
 1303              	.LVL149:
 448:Core/Src/lora.c **** 		LoRa_write(_LoRa, RegFiFoAddPtr, read);
 1304              		.loc 1 448 3 is_stmt 1 view .LVU323
 448:Core/Src/lora.c **** 		LoRa_write(_LoRa, RegFiFoAddPtr, read);
 1305              		.loc 1 448 10 is_stmt 0 view .LVU324
 1306 0050 1021     		movs	r1, #16
 1307 0052 3046     		mov	r0, r6
 1308 0054 FFF7FEFF 		bl	LoRa_read
 1309              	.LVL150:
 1310 0058 0246     		mov	r2, r0
 1311              	.LVL151:
 449:Core/Src/lora.c **** 		min = length >= number_of_bytes ? number_of_bytes : length;
 1312              		.loc 1 449 3 is_stmt 1 view .LVU325
 1313 005a 0D21     		movs	r1, #13
 1314 005c 3046     		mov	r0, r6
 1315 005e FFF7FEFF 		bl	LoRa_write
 1316              	.LVL152:
 450:Core/Src/lora.c **** 		for(int i=0; i<min; i++)
 1317              		.loc 1 450 3 view .LVU326
 450:Core/Src/lora.c **** 		for(int i=0; i<min; i++)
 1318              		.loc 1 450 7 is_stmt 0 view .LVU327
 1319 0062 BD42     		cmp	r5, r7
 1320 0064 28BF     		it	cs
 1321 0066 3D46     		movcs	r5, r7
 1322 0068 EFB2     		uxtb	r7, r5
 1323              	.LVL153:
 451:Core/Src/lora.c **** 			data[i] = LoRa_read(_LoRa, RegFiFo);
 1324              		.loc 1 451 3 is_stmt 1 view .LVU328
 1325              	.LBB3:
 451:Core/Src/lora.c **** 			data[i] = LoRa_read(_LoRa, RegFiFo);
 1326              		.loc 1 451 7 view .LVU329
 451:Core/Src/lora.c **** 			data[i] = LoRa_read(_LoRa, RegFiFo);
 1327              		.loc 1 451 11 is_stmt 0 view .LVU330
 1328 006a 0025     		movs	r5, #0
 451:Core/Src/lora.c **** 			data[i] = LoRa_read(_LoRa, RegFiFo);
 1329              		.loc 1 451 3 view .LVU331
 1330 006c 05E0     		b	.L67
 1331              	.LVL154:
 1332              	.L68:
 452:Core/Src/lora.c **** 	}
 1333              		.loc 1 452 4 is_stmt 1 discriminator 3 view .LVU332
 452:Core/Src/lora.c **** 	}
 1334              		.loc 1 452 14 is_stmt 0 discriminator 3 view .LVU333
 1335 006e 0021     		movs	r1, #0
 1336 0070 3046     		mov	r0, r6
 1337 0072 FFF7FEFF 		bl	LoRa_read
 1338              	.LVL155:
 452:Core/Src/lora.c **** 	}
 1339              		.loc 1 452 12 discriminator 3 view .LVU334
 1340 0076 6055     		strb	r0, [r4, r5]
ARM GAS  C:\Users\jdcox\AppData\Local\Temp\ccqAZpOk.s 			page 35


 451:Core/Src/lora.c **** 			data[i] = LoRa_read(_LoRa, RegFiFo);
 1341              		.loc 1 451 24 is_stmt 1 discriminator 3 view .LVU335
 1342 0078 0135     		adds	r5, r5, #1
 1343              	.LVL156:
 1344              	.L67:
 451:Core/Src/lora.c **** 			data[i] = LoRa_read(_LoRa, RegFiFo);
 1345              		.loc 1 451 17 discriminator 1 view .LVU336
 1346 007a AF42     		cmp	r7, r5
 1347 007c F7DC     		bgt	.L68
 1348 007e D7E7     		b	.L66
 1349              	.LBE3:
 1350              		.cfi_endproc
 1351              	.LFE147:
 1353              		.section	.text.LoRa_getRSSI,"ax",%progbits
 1354              		.align	1
 1355              		.global	LoRa_getRSSI
 1356              		.syntax unified
 1357              		.thumb
 1358              		.thumb_func
 1360              	LoRa_getRSSI:
 1361              	.LVL157:
 1362              	.LFB148:
 457:Core/Src/lora.c **** 
 458:Core/Src/lora.c **** /* ----------------------------------------------------------------------------- *\
 459:Core/Src/lora.c **** 		name        : LoRa_getRSSI
 460:Core/Src/lora.c **** 
 461:Core/Src/lora.c **** 		description : initialize and set the right setting according to LoRa sruct vars
 462:Core/Src/lora.c **** 
 463:Core/Src/lora.c **** 		arguments   :
 464:Core/Src/lora.c **** 			LoRa* LoRa        --> LoRa object handler
 465:Core/Src/lora.c **** 
 466:Core/Src/lora.c **** 		returns     : Returns the RSSI value of last received packet.
 467:Core/Src/lora.c **** \* ----------------------------------------------------------------------------- */
 468:Core/Src/lora.c **** int LoRa_getRSSI(LoRa* _LoRa){
 1363              		.loc 1 468 30 view -0
 1364              		.cfi_startproc
 1365              		@ args = 0, pretend = 0, frame = 0
 1366              		@ frame_needed = 0, uses_anonymous_args = 0
 1367              		.loc 1 468 30 is_stmt 0 view .LVU338
 1368 0000 08B5     		push	{r3, lr}
 1369              	.LCFI22:
 1370              		.cfi_def_cfa_offset 8
 1371              		.cfi_offset 3, -8
 1372              		.cfi_offset 14, -4
 469:Core/Src/lora.c **** 	uint8_t read;
 1373              		.loc 1 469 2 is_stmt 1 view .LVU339
 470:Core/Src/lora.c **** 	read = LoRa_read(_LoRa, RegPktRssiValue);
 1374              		.loc 1 470 2 view .LVU340
 1375              		.loc 1 470 9 is_stmt 0 view .LVU341
 1376 0002 1A21     		movs	r1, #26
 1377 0004 FFF7FEFF 		bl	LoRa_read
 1378              	.LVL158:
 471:Core/Src/lora.c **** 	return -164 + read;
 1379              		.loc 1 471 2 is_stmt 1 view .LVU342
 472:Core/Src/lora.c **** }
 1380              		.loc 1 472 1 is_stmt 0 view .LVU343
 1381 0008 A438     		subs	r0, r0, #164
ARM GAS  C:\Users\jdcox\AppData\Local\Temp\ccqAZpOk.s 			page 36


 1382              	.LVL159:
 1383              		.loc 1 472 1 view .LVU344
 1384 000a 08BD     		pop	{r3, pc}
 1385              		.cfi_endproc
 1386              	.LFE148:
 1388              		.section	.text.LoRa_init,"ax",%progbits
 1389              		.align	1
 1390              		.global	LoRa_init
 1391              		.syntax unified
 1392              		.thumb
 1393              		.thumb_func
 1395              	LoRa_init:
 1396              	.LVL160:
 1397              	.LFB149:
 473:Core/Src/lora.c **** 
 474:Core/Src/lora.c **** /* ----------------------------------------------------------------------------- *\
 475:Core/Src/lora.c **** 		name        : LoRa_init
 476:Core/Src/lora.c **** 
 477:Core/Src/lora.c **** 		description : initialize and set the right setting according to LoRa sruct vars
 478:Core/Src/lora.c **** 
 479:Core/Src/lora.c **** 		arguments   :
 480:Core/Src/lora.c **** 			LoRa* LoRa        --> LoRa object handler
 481:Core/Src/lora.c **** 
 482:Core/Src/lora.c **** 		returns     : Nothing
 483:Core/Src/lora.c **** \* ----------------------------------------------------------------------------- */
 484:Core/Src/lora.c **** uint16_t LoRa_init(LoRa* _LoRa){
 1398              		.loc 1 484 32 is_stmt 1 view -0
 1399              		.cfi_startproc
 1400              		@ args = 0, pretend = 0, frame = 0
 1401              		@ frame_needed = 0, uses_anonymous_args = 0
 1402              		.loc 1 484 32 is_stmt 0 view .LVU346
 1403 0000 38B5     		push	{r3, r4, r5, lr}
 1404              	.LCFI23:
 1405              		.cfi_def_cfa_offset 16
 1406              		.cfi_offset 3, -16
 1407              		.cfi_offset 4, -12
 1408              		.cfi_offset 5, -8
 1409              		.cfi_offset 14, -4
 1410 0002 0446     		mov	r4, r0
 485:Core/Src/lora.c **** 	uint8_t    data;
 1411              		.loc 1 485 2 is_stmt 1 view .LVU347
 486:Core/Src/lora.c **** 	uint8_t    read;
 1412              		.loc 1 486 2 view .LVU348
 487:Core/Src/lora.c **** 
 488:Core/Src/lora.c **** 	if(LoRa_isvalid(_LoRa)){
 1413              		.loc 1 488 2 view .LVU349
 1414              		.loc 1 488 5 is_stmt 0 view .LVU350
 1415 0004 FFF7FEFF 		bl	LoRa_isvalid
 1416              	.LVL161:
 1417              		.loc 1 488 4 view .LVU351
 1418 0008 10B9     		cbnz	r0, .L78
 489:Core/Src/lora.c **** 		// goto sleep mode:
 490:Core/Src/lora.c **** 			LoRa_gotoMode(_LoRa, SLEEP_MODE);
 491:Core/Src/lora.c **** 			HAL_Delay(10);
 492:Core/Src/lora.c **** 
 493:Core/Src/lora.c **** 		// turn on LoRa mode:
 494:Core/Src/lora.c **** 			read = LoRa_read(_LoRa, RegOpMode);
ARM GAS  C:\Users\jdcox\AppData\Local\Temp\ccqAZpOk.s 			page 37


 495:Core/Src/lora.c **** 			HAL_Delay(10);
 496:Core/Src/lora.c **** 			data = read | 0x80;
 497:Core/Src/lora.c **** 			LoRa_write(_LoRa, RegOpMode, data);
 498:Core/Src/lora.c **** 			HAL_Delay(100);
 499:Core/Src/lora.c **** 
 500:Core/Src/lora.c **** 		// set frequency:
 501:Core/Src/lora.c **** 			LoRa_setFrequency(_LoRa, _LoRa->frequency);
 502:Core/Src/lora.c **** 
 503:Core/Src/lora.c **** 		// set output power gain:
 504:Core/Src/lora.c **** 			LoRa_setPower(_LoRa, _LoRa->power);
 505:Core/Src/lora.c **** 
 506:Core/Src/lora.c **** 		// set over current protection:
 507:Core/Src/lora.c **** 			LoRa_setOCP(_LoRa, _LoRa->overCurrentProtection);
 508:Core/Src/lora.c **** 
 509:Core/Src/lora.c **** 		// set LNA gain:
 510:Core/Src/lora.c **** 			LoRa_write(_LoRa, RegLna, 0x23);
 511:Core/Src/lora.c **** 
 512:Core/Src/lora.c **** 		// set spreading factor, CRC on, and Timeout Msb:
 513:Core/Src/lora.c **** 			LoRa_setTOMsb_setCRCon(_LoRa);
 514:Core/Src/lora.c **** 			LoRa_setSpreadingFactor(_LoRa, _LoRa->spredingFactor);
 515:Core/Src/lora.c **** 
 516:Core/Src/lora.c **** 		// set Timeout Lsb:
 517:Core/Src/lora.c **** 			LoRa_write(_LoRa, RegSymbTimeoutL, 0xFF);
 518:Core/Src/lora.c **** 
 519:Core/Src/lora.c **** 		// set bandwidth, coding rate and expilicit mode:
 520:Core/Src/lora.c **** 			// 8 bit RegModemConfig --> | X | X | X | X | X | X | X | X |
 521:Core/Src/lora.c **** 			//       bits represent --> |   bandwidth   |     CR    |I/E|
 522:Core/Src/lora.c **** 			data = 0;
 523:Core/Src/lora.c **** 			data = (_LoRa->bandWidth << 4) + (_LoRa->crcRate << 1);
 524:Core/Src/lora.c **** 			LoRa_write(_LoRa, RegModemConfig1, data);
 525:Core/Src/lora.c **** 
 526:Core/Src/lora.c **** 		// set preamble:
 527:Core/Src/lora.c **** 			LoRa_write(_LoRa, RegPreambleMsb, _LoRa->preamble >> 8);
 528:Core/Src/lora.c **** 			LoRa_write(_LoRa, RegPreambleLsb, _LoRa->preamble >> 0);
 529:Core/Src/lora.c **** 
 530:Core/Src/lora.c **** 		// DIO mapping:   --> DIO: RxDone
 531:Core/Src/lora.c **** 			read = LoRa_read(_LoRa, RegDioMapping1);
 532:Core/Src/lora.c **** 			data = read | 0x3F;
 533:Core/Src/lora.c **** 			LoRa_write(_LoRa, RegDioMapping1, data);
 534:Core/Src/lora.c **** 
 535:Core/Src/lora.c **** 		// goto standby mode:
 536:Core/Src/lora.c **** 			LoRa_gotoMode(_LoRa, STNBY_MODE);
 537:Core/Src/lora.c **** 			_LoRa->current_mode = STNBY_MODE;
 538:Core/Src/lora.c **** 			HAL_Delay(10);
 539:Core/Src/lora.c **** 
 540:Core/Src/lora.c **** 			read = LoRa_read(_LoRa, RegVersion);
 541:Core/Src/lora.c **** 			if(read == 0x12)
 542:Core/Src/lora.c **** 				return LORA_OK;
 543:Core/Src/lora.c **** 			else
 544:Core/Src/lora.c **** 				return LORA_NOT_FOUND;
 545:Core/Src/lora.c **** 	}
 546:Core/Src/lora.c **** 	else {
 547:Core/Src/lora.c **** 		return LORA_UNAVAILABLE;
 1419              		.loc 1 547 10 view .LVU352
 1420 000a 40F2F710 		movw	r0, #503
 1421              	.L74:
 548:Core/Src/lora.c **** 	}
ARM GAS  C:\Users\jdcox\AppData\Local\Temp\ccqAZpOk.s 			page 38


 549:Core/Src/lora.c **** }...
 1422              		.loc 1 549 1 view .LVU353
 1423 000e 38BD     		pop	{r3, r4, r5, pc}
 1424              	.LVL162:
 1425              	.L78:
 490:Core/Src/lora.c **** 			LoRa_gotoMode(_LoRa, SLEEP_MODE);
 1426              		.loc 1 490 4 is_stmt 1 view .LVU354
 1427 0010 0021     		movs	r1, #0
 1428 0012 2046     		mov	r0, r4
 1429 0014 FFF7FEFF 		bl	LoRa_gotoMode
 1430              	.LVL163:
 491:Core/Src/lora.c **** 			HAL_Delay(10);
 1431              		.loc 1 491 4 view .LVU355
 1432 0018 0A20     		movs	r0, #10
 1433 001a FFF7FEFF 		bl	HAL_Delay
 1434              	.LVL164:
 494:Core/Src/lora.c **** 			read = LoRa_read(_LoRa, RegOpMode);
 1435              		.loc 1 494 4 view .LVU356
 494:Core/Src/lora.c **** 			read = LoRa_read(_LoRa, RegOpMode);
 1436              		.loc 1 494 11 is_stmt 0 view .LVU357
 1437 001e 0121     		movs	r1, #1
 1438 0020 2046     		mov	r0, r4
 1439 0022 FFF7FEFF 		bl	LoRa_read
 1440              	.LVL165:
 1441 0026 0546     		mov	r5, r0
 1442              	.LVL166:
 495:Core/Src/lora.c **** 			HAL_Delay(10);
 1443              		.loc 1 495 4 is_stmt 1 view .LVU358
 1444 0028 0A20     		movs	r0, #10
 1445 002a FFF7FEFF 		bl	HAL_Delay
 1446              	.LVL167:
 496:Core/Src/lora.c **** 			data = read | 0x80;
 1447              		.loc 1 496 4 view .LVU359
 496:Core/Src/lora.c **** 			data = read | 0x80;
 1448              		.loc 1 496 9 is_stmt 0 view .LVU360
 1449 002e 65F07F02 		orn	r2, r5, #127
 1450              	.LVL168:
 497:Core/Src/lora.c **** 			LoRa_write(_LoRa, RegOpMode, data);
 1451              		.loc 1 497 4 is_stmt 1 view .LVU361
 1452 0032 D2B2     		uxtb	r2, r2
 497:Core/Src/lora.c **** 			LoRa_write(_LoRa, RegOpMode, data);
 1453              		.loc 1 497 4 is_stmt 0 view .LVU362
 1454 0034 0121     		movs	r1, #1
 1455 0036 2046     		mov	r0, r4
 1456 0038 FFF7FEFF 		bl	LoRa_write
 1457              	.LVL169:
 498:Core/Src/lora.c **** 			HAL_Delay(100);
 1458              		.loc 1 498 4 is_stmt 1 view .LVU363
 1459 003c 6420     		movs	r0, #100
 1460 003e FFF7FEFF 		bl	HAL_Delay
 1461              	.LVL170:
 501:Core/Src/lora.c **** 			LoRa_setFrequency(_LoRa, _LoRa->frequency);
 1462              		.loc 1 501 4 view .LVU364
 1463 0042 216A     		ldr	r1, [r4, #32]
 1464 0044 2046     		mov	r0, r4
 1465 0046 FFF7FEFF 		bl	LoRa_setFrequency
 1466              	.LVL171:
ARM GAS  C:\Users\jdcox\AppData\Local\Temp\ccqAZpOk.s 			page 39


 504:Core/Src/lora.c **** 			LoRa_setPower(_LoRa, _LoRa->power);
 1467              		.loc 1 504 4 view .LVU365
 1468 004a 94F82A10 		ldrb	r1, [r4, #42]	@ zero_extendqisi2
 1469 004e 2046     		mov	r0, r4
 1470 0050 FFF7FEFF 		bl	LoRa_setPower
 1471              	.LVL172:
 507:Core/Src/lora.c **** 			LoRa_setOCP(_LoRa, _LoRa->overCurrentProtection);
 1472              		.loc 1 507 4 view .LVU366
 1473 0054 94F82B10 		ldrb	r1, [r4, #43]	@ zero_extendqisi2
 1474 0058 2046     		mov	r0, r4
 1475 005a FFF7FEFF 		bl	LoRa_setOCP
 1476              	.LVL173:
 510:Core/Src/lora.c **** 			LoRa_write(_LoRa, RegLna, 0x23);
 1477              		.loc 1 510 4 view .LVU367
 1478 005e 2322     		movs	r2, #35
 1479 0060 0C21     		movs	r1, #12
 1480 0062 2046     		mov	r0, r4
 1481 0064 FFF7FEFF 		bl	LoRa_write
 1482              	.LVL174:
 513:Core/Src/lora.c **** 			LoRa_setTOMsb_setCRCon(_LoRa);
 1483              		.loc 1 513 4 view .LVU368
 1484 0068 2046     		mov	r0, r4
 1485 006a FFF7FEFF 		bl	LoRa_setTOMsb_setCRCon
 1486              	.LVL175:
 514:Core/Src/lora.c **** 			LoRa_setSpreadingFactor(_LoRa, _LoRa->spredingFactor);
 1487              		.loc 1 514 4 view .LVU369
 1488 006e 94F82410 		ldrb	r1, [r4, #36]	@ zero_extendqisi2
 1489 0072 2046     		mov	r0, r4
 1490 0074 FFF7FEFF 		bl	LoRa_setSpreadingFactor
 1491              	.LVL176:
 517:Core/Src/lora.c **** 			LoRa_write(_LoRa, RegSymbTimeoutL, 0xFF);
 1492              		.loc 1 517 4 view .LVU370
 1493 0078 FF22     		movs	r2, #255
 1494 007a 1F21     		movs	r1, #31
 1495 007c 2046     		mov	r0, r4
 1496 007e FFF7FEFF 		bl	LoRa_write
 1497              	.LVL177:
 522:Core/Src/lora.c **** 			data = 0;
 1498              		.loc 1 522 4 view .LVU371
 523:Core/Src/lora.c **** 			data = (_LoRa->bandWidth << 4) + (_LoRa->crcRate << 1);
 1499              		.loc 1 523 4 view .LVU372
 523:Core/Src/lora.c **** 			data = (_LoRa->bandWidth << 4) + (_LoRa->crcRate << 1);
 1500              		.loc 1 523 17 is_stmt 0 view .LVU373
 1501 0082 94F82520 		ldrb	r2, [r4, #37]	@ zero_extendqisi2
 523:Core/Src/lora.c **** 			data = (_LoRa->bandWidth << 4) + (_LoRa->crcRate << 1);
 1502              		.loc 1 523 29 view .LVU374
 1503 0086 1201     		lsls	r2, r2, #4
 1504 0088 D2B2     		uxtb	r2, r2
 523:Core/Src/lora.c **** 			data = (_LoRa->bandWidth << 4) + (_LoRa->crcRate << 1);
 1505              		.loc 1 523 43 view .LVU375
 1506 008a 94F82630 		ldrb	r3, [r4, #38]	@ zero_extendqisi2
 523:Core/Src/lora.c **** 			data = (_LoRa->bandWidth << 4) + (_LoRa->crcRate << 1);
 1507              		.loc 1 523 53 view .LVU376
 1508 008e 5B00     		lsls	r3, r3, #1
 1509 0090 DBB2     		uxtb	r3, r3
 523:Core/Src/lora.c **** 			data = (_LoRa->bandWidth << 4) + (_LoRa->crcRate << 1);
 1510              		.loc 1 523 9 view .LVU377
ARM GAS  C:\Users\jdcox\AppData\Local\Temp\ccqAZpOk.s 			page 40


 1511 0092 1A44     		add	r2, r2, r3
 1512              	.LVL178:
 524:Core/Src/lora.c **** 			LoRa_write(_LoRa, RegModemConfig1, data);
 1513              		.loc 1 524 4 is_stmt 1 view .LVU378
 1514 0094 02F0FE02 		and	r2, r2, #254
 1515              	.LVL179:
 524:Core/Src/lora.c **** 			LoRa_write(_LoRa, RegModemConfig1, data);
 1516              		.loc 1 524 4 is_stmt 0 view .LVU379
 1517 0098 1D21     		movs	r1, #29
 1518 009a 2046     		mov	r0, r4
 1519 009c FFF7FEFF 		bl	LoRa_write
 1520              	.LVL180:
 527:Core/Src/lora.c **** 			LoRa_write(_LoRa, RegPreambleMsb, _LoRa->preamble >> 8);
 1521              		.loc 1 527 4 is_stmt 1 view .LVU380
 527:Core/Src/lora.c **** 			LoRa_write(_LoRa, RegPreambleMsb, _LoRa->preamble >> 8);
 1522              		.loc 1 527 43 is_stmt 0 view .LVU381
 1523 00a0 228D     		ldrh	r2, [r4, #40]
 527:Core/Src/lora.c **** 			LoRa_write(_LoRa, RegPreambleMsb, _LoRa->preamble >> 8);
 1524              		.loc 1 527 4 view .LVU382
 1525 00a2 120A     		lsrs	r2, r2, #8
 1526 00a4 2021     		movs	r1, #32
 1527 00a6 2046     		mov	r0, r4
 1528 00a8 FFF7FEFF 		bl	LoRa_write
 1529              	.LVL181:
 528:Core/Src/lora.c **** 			LoRa_write(_LoRa, RegPreambleLsb, _LoRa->preamble >> 0);
 1530              		.loc 1 528 4 is_stmt 1 view .LVU383
 1531 00ac 94F82820 		ldrb	r2, [r4, #40]	@ zero_extendqisi2
 1532 00b0 2121     		movs	r1, #33
 1533 00b2 2046     		mov	r0, r4
 1534 00b4 FFF7FEFF 		bl	LoRa_write
 1535              	.LVL182:
 531:Core/Src/lora.c **** 			read = LoRa_read(_LoRa, RegDioMapping1);
 1536              		.loc 1 531 4 view .LVU384
 531:Core/Src/lora.c **** 			read = LoRa_read(_LoRa, RegDioMapping1);
 1537              		.loc 1 531 11 is_stmt 0 view .LVU385
 1538 00b8 4021     		movs	r1, #64
 1539 00ba 2046     		mov	r0, r4
 1540 00bc FFF7FEFF 		bl	LoRa_read
 1541              	.LVL183:
 532:Core/Src/lora.c **** 			data = read | 0x3F;
 1542              		.loc 1 532 4 is_stmt 1 view .LVU386
 532:Core/Src/lora.c **** 			data = read | 0x3F;
 1543              		.loc 1 532 9 is_stmt 0 view .LVU387
 1544 00c0 40F03F02 		orr	r2, r0, #63
 1545              	.LVL184:
 533:Core/Src/lora.c **** 			LoRa_write(_LoRa, RegDioMapping1, data);
 1546              		.loc 1 533 4 is_stmt 1 view .LVU388
 1547 00c4 D2B2     		uxtb	r2, r2
 533:Core/Src/lora.c **** 			LoRa_write(_LoRa, RegDioMapping1, data);
 1548              		.loc 1 533 4 is_stmt 0 view .LVU389
 1549 00c6 4021     		movs	r1, #64
 1550 00c8 2046     		mov	r0, r4
 1551              	.LVL185:
 533:Core/Src/lora.c **** 			LoRa_write(_LoRa, RegDioMapping1, data);
 1552              		.loc 1 533 4 view .LVU390
 1553 00ca FFF7FEFF 		bl	LoRa_write
 1554              	.LVL186:
ARM GAS  C:\Users\jdcox\AppData\Local\Temp\ccqAZpOk.s 			page 41


 536:Core/Src/lora.c **** 			LoRa_gotoMode(_LoRa, STNBY_MODE);
 1555              		.loc 1 536 4 is_stmt 1 view .LVU391
 1556 00ce 0121     		movs	r1, #1
 1557 00d0 2046     		mov	r0, r4
 1558 00d2 FFF7FEFF 		bl	LoRa_gotoMode
 1559              	.LVL187:
 537:Core/Src/lora.c **** 			_LoRa->current_mode = STNBY_MODE;
 1560              		.loc 1 537 4 view .LVU392
 537:Core/Src/lora.c **** 			_LoRa->current_mode = STNBY_MODE;
 1561              		.loc 1 537 24 is_stmt 0 view .LVU393
 1562 00d6 0123     		movs	r3, #1
 1563 00d8 E361     		str	r3, [r4, #28]
 538:Core/Src/lora.c **** 			HAL_Delay(10);
 1564              		.loc 1 538 4 is_stmt 1 view .LVU394
 1565 00da 0A20     		movs	r0, #10
 1566 00dc FFF7FEFF 		bl	HAL_Delay
 1567              	.LVL188:
 540:Core/Src/lora.c **** 			read = LoRa_read(_LoRa, RegVersion);
 1568              		.loc 1 540 4 view .LVU395
 540:Core/Src/lora.c **** 			read = LoRa_read(_LoRa, RegVersion);
 1569              		.loc 1 540 11 is_stmt 0 view .LVU396
 1570 00e0 4221     		movs	r1, #66
 1571 00e2 2046     		mov	r0, r4
 1572 00e4 FFF7FEFF 		bl	LoRa_read
 1573              	.LVL189:
 541:Core/Src/lora.c **** 			if(read == 0x12)
 1574              		.loc 1 541 4 is_stmt 1 view .LVU397
 541:Core/Src/lora.c **** 			if(read == 0x12)
 1575              		.loc 1 541 6 is_stmt 0 view .LVU398
 1576 00e8 1228     		cmp	r0, #18
 1577 00ea 02D0     		beq	.L79
 544:Core/Src/lora.c **** 				return LORA_NOT_FOUND;
 1578              		.loc 1 544 12 view .LVU399
 1579 00ec 4FF4CA70 		mov	r0, #404
 1580              	.LVL190:
 544:Core/Src/lora.c **** 				return LORA_NOT_FOUND;
 1581              		.loc 1 544 12 view .LVU400
 1582 00f0 8DE7     		b	.L74
 1583              	.LVL191:
 1584              	.L79:
 542:Core/Src/lora.c **** 				return LORA_OK;
 1585              		.loc 1 542 12 view .LVU401
 1586 00f2 C820     		movs	r0, #200
 1587              	.LVL192:
 542:Core/Src/lora.c **** 				return LORA_OK;
 1588              		.loc 1 542 12 view .LVU402
 1589 00f4 8BE7     		b	.L74
 1590              		.cfi_endproc
 1591              	.LFE149:
 1593              		.text
 1594              	.Letext0:
 1595              		.file 2 "c:\\libraries\\gcc\\11.2 2022.02\\arm-none-eabi\\include\\machine\\_default_types.h"
 1596              		.file 3 "c:\\libraries\\gcc\\11.2 2022.02\\arm-none-eabi\\include\\sys\\_stdint.h"
 1597              		.file 4 "Drivers/CMSIS/Device/ST/STM32F4xx/Include/stm32f401xc.h"
 1598              		.file 5 "Drivers/STM32F4xx_HAL_Driver/Inc/stm32f4xx_hal_def.h"
 1599              		.file 6 "Drivers/STM32F4xx_HAL_Driver/Inc/stm32f4xx_hal_gpio.h"
 1600              		.file 7 "Drivers/STM32F4xx_HAL_Driver/Inc/stm32f4xx_hal_dma.h"
ARM GAS  C:\Users\jdcox\AppData\Local\Temp\ccqAZpOk.s 			page 42


 1601              		.file 8 "Drivers/STM32F4xx_HAL_Driver/Inc/stm32f4xx_hal_spi.h"
 1602              		.file 9 "Core/Inc/LoRa.h"
 1603              		.file 10 "Drivers/STM32F4xx_HAL_Driver/Inc/stm32f4xx_hal.h"
ARM GAS  C:\Users\jdcox\AppData\Local\Temp\ccqAZpOk.s 			page 43

