ARM GAS  C:\Users\jdcox\AppData\Local\Temp\cc24BuqZ.s 			page 1


   1              		.cpu cortex-m4
   2              		.arch armv7e-m
   3              		.fpu fpv4-sp-d16
   4              		.eabi_attribute 27, 1
   5              		.eabi_attribute 28, 1
   6              		.eabi_attribute 20, 1
   7              		.eabi_attribute 21, 1
   8              		.eabi_attribute 23, 3
   9              		.eabi_attribute 24, 1
  10              		.eabi_attribute 25, 1
  11              		.eabi_attribute 26, 1
  12              		.eabi_attribute 30, 1
  13              		.eabi_attribute 34, 1
  14              		.eabi_attribute 18, 4
  15              		.file	"main.c"
  16              		.text
  17              	.Ltext0:
  18              		.cfi_sections	.debug_frame
  19              		.section	.text.msTickCallback,"ax",%progbits
  20              		.align	1
  21              		.global	msTickCallback
  22              		.syntax unified
  23              		.thumb
  24              		.thumb_func
  26              	msTickCallback:
  27              	.LVL0:
  28              	.LFB144:
  29              		.file 1 "Core/Src/main.c"
   1:Core/Src/main.c **** /* USER CODE BEGIN Header */
   2:Core/Src/main.c **** /**
   3:Core/Src/main.c ****   ******************************************************************************
   4:Core/Src/main.c ****   * @file           : main.c
   5:Core/Src/main.c ****   * @brief          : Main program body
   6:Core/Src/main.c ****   ******************************************************************************
   7:Core/Src/main.c ****   * @attention
   8:Core/Src/main.c ****   *
   9:Core/Src/main.c ****   * Copyright (c) 2024 STMicroelectronics.
  10:Core/Src/main.c ****   * All rights reserved.
  11:Core/Src/main.c ****   *
  12:Core/Src/main.c ****   * This software is licensed under terms that can be found in the LICENSE file
  13:Core/Src/main.c ****   * in the root directory of this software component.
  14:Core/Src/main.c ****   * If no LICENSE file comes with this software, it is provided AS-IS.
  15:Core/Src/main.c ****   *
  16:Core/Src/main.c ****   ******************************************************************************
  17:Core/Src/main.c ****   */
  18:Core/Src/main.c **** /* USER CODE END Header */
  19:Core/Src/main.c **** /* Includes ------------------------------------------------------------------*/
  20:Core/Src/main.c **** #include "main.h"
  21:Core/Src/main.c **** #include "cmsis_os.h"
  22:Core/Src/main.c **** 
  23:Core/Src/main.c **** /* Private includes ----------------------------------------------------------*/
  24:Core/Src/main.c **** /* USER CODE BEGIN Includes */
  25:Core/Src/main.c **** #include "extern.h"
  26:Core/Src/main.c **** #include "i2c-lcd.h"
  27:Core/Src/main.c **** /* USER CODE END Includes */
  28:Core/Src/main.c **** 
  29:Core/Src/main.c **** /* Private typedef -----------------------------------------------------------*/
ARM GAS  C:\Users\jdcox\AppData\Local\Temp\cc24BuqZ.s 			page 2


  30:Core/Src/main.c **** /* USER CODE BEGIN PTD */
  31:Core/Src/main.c **** 
  32:Core/Src/main.c **** /* USER CODE END PTD */
  33:Core/Src/main.c **** 
  34:Core/Src/main.c **** /* Private define ------------------------------------------------------------*/
  35:Core/Src/main.c **** /* USER CODE BEGIN PD */
  36:Core/Src/main.c **** /* USER CODE END PD */
  37:Core/Src/main.c **** 
  38:Core/Src/main.c **** /* Private macro -------------------------------------------------------------*/
  39:Core/Src/main.c **** /* USER CODE BEGIN PM */
  40:Core/Src/main.c **** 
  41:Core/Src/main.c **** /* USER CODE END PM */
  42:Core/Src/main.c **** 
  43:Core/Src/main.c **** /* Private variables ---------------------------------------------------------*/
  44:Core/Src/main.c **** I2C_HandleTypeDef hi2c1;
  45:Core/Src/main.c **** DMA_HandleTypeDef hdma_i2c1_tx;
  46:Core/Src/main.c **** 
  47:Core/Src/main.c **** SPI_HandleTypeDef hspi1;
  48:Core/Src/main.c **** 
  49:Core/Src/main.c **** osThreadId defaultTaskHandle;
  50:Core/Src/main.c **** osThreadId loraRXTaskHandle;
  51:Core/Src/main.c **** osThreadId displayTaskHandle;
  52:Core/Src/main.c **** osTimerId msTickHandle;
  53:Core/Src/main.c **** osTimerId debounceTimerHandle;
  54:Core/Src/main.c **** osMutexId lora_mutexHandle;
  55:Core/Src/main.c **** /* USER CODE BEGIN PV */
  56:Core/Src/main.c **** 
  57:Core/Src/main.c **** /* USER CODE END PV */
  58:Core/Src/main.c **** 
  59:Core/Src/main.c **** /* Private function prototypes -----------------------------------------------*/
  60:Core/Src/main.c **** void SystemClock_Config(void);
  61:Core/Src/main.c **** static void MX_GPIO_Init(void);
  62:Core/Src/main.c **** static void MX_DMA_Init(void);
  63:Core/Src/main.c **** static void MX_SPI1_Init(void);
  64:Core/Src/main.c **** static void MX_I2C1_Init(void);
  65:Core/Src/main.c **** void StartDefaultTask(void const * argument);
  66:Core/Src/main.c **** void StartLoraRXTask(void const * argument);
  67:Core/Src/main.c **** void StartDisplayTask(void const * argument);
  68:Core/Src/main.c **** void msTickCallback(void const * argument);
  69:Core/Src/main.c **** void debounceCallback(void const * argument);
  70:Core/Src/main.c **** 
  71:Core/Src/main.c **** /* USER CODE BEGIN PFP */
  72:Core/Src/main.c **** 
  73:Core/Src/main.c **** /* USER CODE END PFP */
  74:Core/Src/main.c **** 
  75:Core/Src/main.c **** /* Private user code ---------------------------------------------------------*/
  76:Core/Src/main.c **** /* USER CODE BEGIN 0 */
  77:Core/Src/main.c **** 
  78:Core/Src/main.c **** /* USER CODE END 0 */
  79:Core/Src/main.c **** 
  80:Core/Src/main.c **** /**
  81:Core/Src/main.c ****   * @brief  The application entry point.
  82:Core/Src/main.c ****   * @retval int
  83:Core/Src/main.c ****   */
  84:Core/Src/main.c **** int main(void)
  85:Core/Src/main.c **** {
  86:Core/Src/main.c ****   /* USER CODE BEGIN 1 */
ARM GAS  C:\Users\jdcox\AppData\Local\Temp\cc24BuqZ.s 			page 3


  87:Core/Src/main.c **** 
  88:Core/Src/main.c ****   /* USER CODE END 1 */
  89:Core/Src/main.c **** 
  90:Core/Src/main.c ****   /* MCU Configuration--------------------------------------------------------*/
  91:Core/Src/main.c **** 
  92:Core/Src/main.c ****   /* Reset of all peripherals, Initializes the Flash interface and the Systick. */
  93:Core/Src/main.c ****   HAL_Init();
  94:Core/Src/main.c **** 
  95:Core/Src/main.c ****   /* USER CODE BEGIN Init */
  96:Core/Src/main.c **** 
  97:Core/Src/main.c ****   /* USER CODE END Init */
  98:Core/Src/main.c **** 
  99:Core/Src/main.c ****   /* Configure the system clock */
 100:Core/Src/main.c ****   SystemClock_Config();
 101:Core/Src/main.c **** 
 102:Core/Src/main.c ****   /* USER CODE BEGIN SysInit */
 103:Core/Src/main.c **** 
 104:Core/Src/main.c ****   /* USER CODE END SysInit */
 105:Core/Src/main.c **** 
 106:Core/Src/main.c ****   /* Initialize all configured peripherals */
 107:Core/Src/main.c ****   MX_GPIO_Init();
 108:Core/Src/main.c ****   MX_DMA_Init();
 109:Core/Src/main.c ****   MX_SPI1_Init();
 110:Core/Src/main.c ****   MX_I2C1_Init();
 111:Core/Src/main.c ****   /* USER CODE BEGIN 2 */
 112:Core/Src/main.c **** 
 113:Core/Src/main.c ****   /* USER CODE END 2 */
 114:Core/Src/main.c **** 
 115:Core/Src/main.c ****   /* Create the mutex(es) */
 116:Core/Src/main.c ****   /* definition and creation of lora_mutex */
 117:Core/Src/main.c ****   osMutexDef(lora_mutex);
 118:Core/Src/main.c ****   lora_mutexHandle = osMutexCreate(osMutex(lora_mutex));
 119:Core/Src/main.c **** 
 120:Core/Src/main.c ****   /* USER CODE BEGIN RTOS_MUTEX */
 121:Core/Src/main.c ****   /* add mutexes, ... */
 122:Core/Src/main.c ****   /* USER CODE END RTOS_MUTEX */
 123:Core/Src/main.c **** 
 124:Core/Src/main.c ****   /* USER CODE BEGIN RTOS_SEMAPHORES */
 125:Core/Src/main.c ****   /* add semaphores, ... */
 126:Core/Src/main.c ****   /* USER CODE END RTOS_SEMAPHORES */
 127:Core/Src/main.c **** 
 128:Core/Src/main.c ****   /* Create the timer(s) */
 129:Core/Src/main.c ****   /* definition and creation of msTick */
 130:Core/Src/main.c ****   osTimerDef(msTick, msTickCallback);
 131:Core/Src/main.c ****   msTickHandle = osTimerCreate(osTimer(msTick), osTimerPeriodic, NULL);
 132:Core/Src/main.c **** 
 133:Core/Src/main.c ****   /* definition and creation of debounceTimer */
 134:Core/Src/main.c ****   osTimerDef(debounceTimer, debounceCallback);
 135:Core/Src/main.c ****   debounceTimerHandle = osTimerCreate(osTimer(debounceTimer), osTimerOnce, NULL);
 136:Core/Src/main.c **** 
 137:Core/Src/main.c ****   /* USER CODE BEGIN RTOS_TIMERS */
 138:Core/Src/main.c ****   /* start timers, add new ones, ... */
 139:Core/Src/main.c ****  
 140:Core/Src/main.c ****   /* USER CODE END RTOS_TIMERS */
 141:Core/Src/main.c **** 
 142:Core/Src/main.c ****   /* USER CODE BEGIN RTOS_QUEUES */
 143:Core/Src/main.c ****   /* add queues, ... */
ARM GAS  C:\Users\jdcox\AppData\Local\Temp\cc24BuqZ.s 			page 4


 144:Core/Src/main.c ****   /* USER CODE END RTOS_QUEUES */
 145:Core/Src/main.c **** 
 146:Core/Src/main.c ****   /* Create the thread(s) */
 147:Core/Src/main.c ****   /* definition and creation of defaultTask */
 148:Core/Src/main.c ****   osThreadDef(defaultTask, StartDefaultTask, osPriorityNormal, 0, 128);
 149:Core/Src/main.c ****   defaultTaskHandle = osThreadCreate(osThread(defaultTask), NULL);
 150:Core/Src/main.c **** 
 151:Core/Src/main.c ****   /* definition and creation of loraRXTask */
 152:Core/Src/main.c ****   osThreadDef(loraRXTask, StartLoraRXTask, osPriorityAboveNormal, 0, 128);
 153:Core/Src/main.c ****   loraRXTaskHandle = osThreadCreate(osThread(loraRXTask), NULL);
 154:Core/Src/main.c **** 
 155:Core/Src/main.c ****   /* definition and creation of displayTask */
 156:Core/Src/main.c ****   osThreadDef(displayTask, StartDisplayTask, osPriorityNormal, 0, 128);
 157:Core/Src/main.c ****   displayTaskHandle = osThreadCreate(osThread(displayTask), NULL);
 158:Core/Src/main.c **** 
 159:Core/Src/main.c ****   /* USER CODE BEGIN RTOS_THREADS */
 160:Core/Src/main.c ****   /* add threads, ... */
 161:Core/Src/main.c ****   /* USER CODE END RTOS_THREADS */
 162:Core/Src/main.c **** 
 163:Core/Src/main.c ****   /* Start scheduler */
 164:Core/Src/main.c ****   osKernelStart();
 165:Core/Src/main.c **** 
 166:Core/Src/main.c ****   /* We should never get here as control is now taken by the scheduler */
 167:Core/Src/main.c ****   /* Infinite loop */
 168:Core/Src/main.c ****   /* USER CODE BEGIN WHILE */
 169:Core/Src/main.c ****   while (1)
 170:Core/Src/main.c ****   {
 171:Core/Src/main.c ****     /* USER CODE END WHILE */
 172:Core/Src/main.c **** 
 173:Core/Src/main.c ****     /* USER CODE BEGIN 3 */
 174:Core/Src/main.c ****   }
 175:Core/Src/main.c ****   /* USER CODE END 3 */
 176:Core/Src/main.c **** }
 177:Core/Src/main.c **** 
 178:Core/Src/main.c **** /**
 179:Core/Src/main.c ****   * @brief System Clock Configuration
 180:Core/Src/main.c ****   * @retval None
 181:Core/Src/main.c ****   */
 182:Core/Src/main.c **** void SystemClock_Config(void)
 183:Core/Src/main.c **** {
 184:Core/Src/main.c ****   RCC_OscInitTypeDef RCC_OscInitStruct = {0};
 185:Core/Src/main.c ****   RCC_ClkInitTypeDef RCC_ClkInitStruct = {0};
 186:Core/Src/main.c **** 
 187:Core/Src/main.c ****   /** Configure the main internal regulator output voltage
 188:Core/Src/main.c ****   */
 189:Core/Src/main.c ****   __HAL_RCC_PWR_CLK_ENABLE();
 190:Core/Src/main.c ****   __HAL_PWR_VOLTAGESCALING_CONFIG(PWR_REGULATOR_VOLTAGE_SCALE2);
 191:Core/Src/main.c **** 
 192:Core/Src/main.c ****   /** Initializes the RCC Oscillators according to the specified parameters
 193:Core/Src/main.c ****   * in the RCC_OscInitTypeDef structure.
 194:Core/Src/main.c ****   */
 195:Core/Src/main.c ****   RCC_OscInitStruct.OscillatorType = RCC_OSCILLATORTYPE_HSE;
 196:Core/Src/main.c ****   RCC_OscInitStruct.HSEState = RCC_HSE_ON;
 197:Core/Src/main.c ****   RCC_OscInitStruct.PLL.PLLState = RCC_PLL_ON;
 198:Core/Src/main.c ****   RCC_OscInitStruct.PLL.PLLSource = RCC_PLLSOURCE_HSE;
 199:Core/Src/main.c ****   RCC_OscInitStruct.PLL.PLLM = 25;
 200:Core/Src/main.c ****   RCC_OscInitStruct.PLL.PLLN = 336;
ARM GAS  C:\Users\jdcox\AppData\Local\Temp\cc24BuqZ.s 			page 5


 201:Core/Src/main.c ****   RCC_OscInitStruct.PLL.PLLP = RCC_PLLP_DIV4;
 202:Core/Src/main.c ****   RCC_OscInitStruct.PLL.PLLQ = 7;
 203:Core/Src/main.c ****   if (HAL_RCC_OscConfig(&RCC_OscInitStruct) != HAL_OK)
 204:Core/Src/main.c ****   {
 205:Core/Src/main.c ****     Error_Handler();
 206:Core/Src/main.c ****   }
 207:Core/Src/main.c **** 
 208:Core/Src/main.c ****   /** Initializes the CPU, AHB and APB buses clocks
 209:Core/Src/main.c ****   */
 210:Core/Src/main.c ****   RCC_ClkInitStruct.ClockType = RCC_CLOCKTYPE_HCLK|RCC_CLOCKTYPE_SYSCLK
 211:Core/Src/main.c ****                               |RCC_CLOCKTYPE_PCLK1|RCC_CLOCKTYPE_PCLK2;
 212:Core/Src/main.c ****   RCC_ClkInitStruct.SYSCLKSource = RCC_SYSCLKSOURCE_PLLCLK;
 213:Core/Src/main.c ****   RCC_ClkInitStruct.AHBCLKDivider = RCC_SYSCLK_DIV1;
 214:Core/Src/main.c ****   RCC_ClkInitStruct.APB1CLKDivider = RCC_HCLK_DIV2;
 215:Core/Src/main.c ****   RCC_ClkInitStruct.APB2CLKDivider = RCC_HCLK_DIV1;
 216:Core/Src/main.c **** 
 217:Core/Src/main.c ****   if (HAL_RCC_ClockConfig(&RCC_ClkInitStruct, FLASH_LATENCY_2) != HAL_OK)
 218:Core/Src/main.c ****   {
 219:Core/Src/main.c ****     Error_Handler();
 220:Core/Src/main.c ****   }
 221:Core/Src/main.c **** }
 222:Core/Src/main.c **** 
 223:Core/Src/main.c **** /**
 224:Core/Src/main.c ****   * @brief I2C1 Initialization Function
 225:Core/Src/main.c ****   * @param None
 226:Core/Src/main.c ****   * @retval None
 227:Core/Src/main.c ****   */
 228:Core/Src/main.c **** static void MX_I2C1_Init(void)
 229:Core/Src/main.c **** {
 230:Core/Src/main.c **** 
 231:Core/Src/main.c ****   /* USER CODE BEGIN I2C1_Init 0 */
 232:Core/Src/main.c **** 
 233:Core/Src/main.c ****   /* USER CODE END I2C1_Init 0 */
 234:Core/Src/main.c **** 
 235:Core/Src/main.c ****   /* USER CODE BEGIN I2C1_Init 1 */
 236:Core/Src/main.c **** 
 237:Core/Src/main.c ****   /* USER CODE END I2C1_Init 1 */
 238:Core/Src/main.c ****   hi2c1.Instance = I2C1;
 239:Core/Src/main.c ****   hi2c1.Init.ClockSpeed = 100000;
 240:Core/Src/main.c ****   hi2c1.Init.DutyCycle = I2C_DUTYCYCLE_2;
 241:Core/Src/main.c ****   hi2c1.Init.OwnAddress1 = 78;
 242:Core/Src/main.c ****   hi2c1.Init.AddressingMode = I2C_ADDRESSINGMODE_7BIT;
 243:Core/Src/main.c ****   hi2c1.Init.DualAddressMode = I2C_DUALADDRESS_DISABLE;
 244:Core/Src/main.c ****   hi2c1.Init.OwnAddress2 = 0;
 245:Core/Src/main.c ****   hi2c1.Init.GeneralCallMode = I2C_GENERALCALL_DISABLE;
 246:Core/Src/main.c ****   hi2c1.Init.NoStretchMode = I2C_NOSTRETCH_DISABLE;
 247:Core/Src/main.c ****   if (HAL_I2C_Init(&hi2c1) != HAL_OK)
 248:Core/Src/main.c ****   {
 249:Core/Src/main.c ****     Error_Handler();
 250:Core/Src/main.c ****   }
 251:Core/Src/main.c ****   /* USER CODE BEGIN I2C1_Init 2 */
 252:Core/Src/main.c **** 
 253:Core/Src/main.c ****   /* USER CODE END I2C1_Init 2 */
 254:Core/Src/main.c **** 
 255:Core/Src/main.c **** }
 256:Core/Src/main.c **** 
 257:Core/Src/main.c **** /**
ARM GAS  C:\Users\jdcox\AppData\Local\Temp\cc24BuqZ.s 			page 6


 258:Core/Src/main.c ****   * @brief SPI1 Initialization Function
 259:Core/Src/main.c ****   * @param None
 260:Core/Src/main.c ****   * @retval None
 261:Core/Src/main.c ****   */
 262:Core/Src/main.c **** static void MX_SPI1_Init(void)
 263:Core/Src/main.c **** {
 264:Core/Src/main.c **** 
 265:Core/Src/main.c ****   /* USER CODE BEGIN SPI1_Init 0 */
 266:Core/Src/main.c **** 
 267:Core/Src/main.c ****   /* USER CODE END SPI1_Init 0 */
 268:Core/Src/main.c **** 
 269:Core/Src/main.c ****   /* USER CODE BEGIN SPI1_Init 1 */
 270:Core/Src/main.c **** 
 271:Core/Src/main.c ****   /* USER CODE END SPI1_Init 1 */
 272:Core/Src/main.c ****   /* SPI1 parameter configuration*/
 273:Core/Src/main.c ****   hspi1.Instance = SPI1;
 274:Core/Src/main.c ****   hspi1.Init.Mode = SPI_MODE_MASTER;
 275:Core/Src/main.c ****   hspi1.Init.Direction = SPI_DIRECTION_2LINES;
 276:Core/Src/main.c ****   hspi1.Init.DataSize = SPI_DATASIZE_8BIT;
 277:Core/Src/main.c ****   hspi1.Init.CLKPolarity = SPI_POLARITY_LOW;
 278:Core/Src/main.c ****   hspi1.Init.CLKPhase = SPI_PHASE_1EDGE;
 279:Core/Src/main.c ****   hspi1.Init.NSS = SPI_NSS_SOFT;
 280:Core/Src/main.c ****   hspi1.Init.BaudRatePrescaler = SPI_BAUDRATEPRESCALER_16;
 281:Core/Src/main.c ****   hspi1.Init.FirstBit = SPI_FIRSTBIT_MSB;
 282:Core/Src/main.c ****   hspi1.Init.TIMode = SPI_TIMODE_DISABLE;
 283:Core/Src/main.c ****   hspi1.Init.CRCCalculation = SPI_CRCCALCULATION_DISABLE;
 284:Core/Src/main.c ****   hspi1.Init.CRCPolynomial = 10;
 285:Core/Src/main.c ****   if (HAL_SPI_Init(&hspi1) != HAL_OK)
 286:Core/Src/main.c ****   {
 287:Core/Src/main.c ****     Error_Handler();
 288:Core/Src/main.c ****   }
 289:Core/Src/main.c ****   /* USER CODE BEGIN SPI1_Init 2 */
 290:Core/Src/main.c **** 
 291:Core/Src/main.c ****   /* USER CODE END SPI1_Init 2 */
 292:Core/Src/main.c **** 
 293:Core/Src/main.c **** }
 294:Core/Src/main.c **** 
 295:Core/Src/main.c **** /**
 296:Core/Src/main.c ****   * Enable DMA controller clock
 297:Core/Src/main.c ****   */
 298:Core/Src/main.c **** static void MX_DMA_Init(void)
 299:Core/Src/main.c **** {
 300:Core/Src/main.c **** 
 301:Core/Src/main.c ****   /* DMA controller clock enable */
 302:Core/Src/main.c ****   __HAL_RCC_DMA1_CLK_ENABLE();
 303:Core/Src/main.c **** 
 304:Core/Src/main.c ****   /* DMA interrupt init */
 305:Core/Src/main.c ****   /* DMA1_Stream6_IRQn interrupt configuration */
 306:Core/Src/main.c ****   HAL_NVIC_SetPriority(DMA1_Stream6_IRQn, 5, 0);
 307:Core/Src/main.c ****   HAL_NVIC_EnableIRQ(DMA1_Stream6_IRQn);
 308:Core/Src/main.c **** 
 309:Core/Src/main.c **** }
 310:Core/Src/main.c **** 
 311:Core/Src/main.c **** /**
 312:Core/Src/main.c ****   * @brief GPIO Initialization Function
 313:Core/Src/main.c ****   * @param None
 314:Core/Src/main.c ****   * @retval None
ARM GAS  C:\Users\jdcox\AppData\Local\Temp\cc24BuqZ.s 			page 7


 315:Core/Src/main.c ****   */
 316:Core/Src/main.c **** static void MX_GPIO_Init(void)
 317:Core/Src/main.c **** {
 318:Core/Src/main.c ****   GPIO_InitTypeDef GPIO_InitStruct = {0};
 319:Core/Src/main.c **** 
 320:Core/Src/main.c ****   /* GPIO Ports Clock Enable */
 321:Core/Src/main.c ****   __HAL_RCC_GPIOH_CLK_ENABLE();
 322:Core/Src/main.c ****   __HAL_RCC_GPIOA_CLK_ENABLE();
 323:Core/Src/main.c ****   __HAL_RCC_GPIOB_CLK_ENABLE();
 324:Core/Src/main.c **** 
 325:Core/Src/main.c ****   /*Configure GPIO pin Output Level */
 326:Core/Src/main.c ****   HAL_GPIO_WritePin(GPIOB, LED1_Pin|LED2_Pin, GPIO_PIN_RESET);
 327:Core/Src/main.c **** 
 328:Core/Src/main.c ****   /*Configure GPIO pin Output Level */
 329:Core/Src/main.c ****   HAL_GPIO_WritePin(LORA_CS_GPIO_Port, LORA_CS_Pin, GPIO_PIN_RESET);
 330:Core/Src/main.c **** 
 331:Core/Src/main.c ****   /*Configure GPIO pin : BTN_IN_Pin */
 332:Core/Src/main.c ****   GPIO_InitStruct.Pin = BTN_IN_Pin;
 333:Core/Src/main.c ****   GPIO_InitStruct.Mode = GPIO_MODE_IT_FALLING;
 334:Core/Src/main.c ****   GPIO_InitStruct.Pull = GPIO_PULLUP;
 335:Core/Src/main.c ****   HAL_GPIO_Init(BTN_IN_GPIO_Port, &GPIO_InitStruct);
 336:Core/Src/main.c **** 
 337:Core/Src/main.c ****   /*Configure GPIO pins : LED1_Pin LED2_Pin */
 338:Core/Src/main.c ****   GPIO_InitStruct.Pin = LED1_Pin|LED2_Pin;
 339:Core/Src/main.c ****   GPIO_InitStruct.Mode = GPIO_MODE_OUTPUT_PP;
 340:Core/Src/main.c ****   GPIO_InitStruct.Pull = GPIO_NOPULL;
 341:Core/Src/main.c ****   GPIO_InitStruct.Speed = GPIO_SPEED_FREQ_LOW;
 342:Core/Src/main.c ****   HAL_GPIO_Init(GPIOB, &GPIO_InitStruct);
 343:Core/Src/main.c **** 
 344:Core/Src/main.c ****   /*Configure GPIO pin : LORA_CS_Pin */
 345:Core/Src/main.c ****   GPIO_InitStruct.Pin = LORA_CS_Pin;
 346:Core/Src/main.c ****   GPIO_InitStruct.Mode = GPIO_MODE_OUTPUT_PP;
 347:Core/Src/main.c ****   GPIO_InitStruct.Pull = GPIO_NOPULL;
 348:Core/Src/main.c ****   GPIO_InitStruct.Speed = GPIO_SPEED_FREQ_LOW;
 349:Core/Src/main.c ****   HAL_GPIO_Init(LORA_CS_GPIO_Port, &GPIO_InitStruct);
 350:Core/Src/main.c **** 
 351:Core/Src/main.c ****   /* EXTI interrupt init*/
 352:Core/Src/main.c ****   HAL_NVIC_SetPriority(EXTI0_IRQn, 5, 0);
 353:Core/Src/main.c ****   HAL_NVIC_EnableIRQ(EXTI0_IRQn);
 354:Core/Src/main.c **** 
 355:Core/Src/main.c **** }
 356:Core/Src/main.c **** 
 357:Core/Src/main.c **** /* USER CODE BEGIN 4 */
 358:Core/Src/main.c **** 
 359:Core/Src/main.c **** /* USER CODE END 4 */
 360:Core/Src/main.c **** 
 361:Core/Src/main.c **** /* USER CODE BEGIN Header_StartDefaultTask */
 362:Core/Src/main.c **** /**
 363:Core/Src/main.c ****   * @brief  Function implementing the defaultTask thread.
 364:Core/Src/main.c ****   * @param  argument: Not used
 365:Core/Src/main.c ****   * @retval None
 366:Core/Src/main.c ****   */
 367:Core/Src/main.c **** /* USER CODE END Header_StartDefaultTask */
 368:Core/Src/main.c **** void StartDefaultTask(void const * argument)
 369:Core/Src/main.c **** {
 370:Core/Src/main.c ****   /* USER CODE BEGIN 5 */
 371:Core/Src/main.c ****   lcd_init();
ARM GAS  C:\Users\jdcox\AppData\Local\Temp\cc24BuqZ.s 			page 8


 372:Core/Src/main.c ****   lcd_send_string("King of the hill!");
 373:Core/Src/main.c **** 
 374:Core/Src/main.c ****   osDelay(2000);
 375:Core/Src/main.c **** 
 376:Core/Src/main.c ****   uint8_t x = 0;
 377:Core/Src/main.c ****   
 378:Core/Src/main.c **** 
 379:Core/Src/main.c ****   /* Infinite loop */
 380:Core/Src/main.c ****   for(;;)
 381:Core/Src/main.c ****   {
 382:Core/Src/main.c ****     
 383:Core/Src/main.c ****     switch (gameState)
 384:Core/Src/main.c ****     {
 385:Core/Src/main.c ****       case waiting:
 386:Core/Src/main.c ****         if(stateChange_flag)
 387:Core/Src/main.c ****         {
 388:Core/Src/main.c ****           stateChange_flag = 0;
 389:Core/Src/main.c ****           lcd_clear();
 390:Core/Src/main.c ****           lcd_put_cur(0,0);
 391:Core/Src/main.c ****           lcd_send_string("Push to play");
 392:Core/Src/main.c ****         }
 393:Core/Src/main.c ****       break;
 394:Core/Src/main.c **** 
 395:Core/Src/main.c ****       case p1King:
 396:Core/Src/main.c ****         if(stateChange_flag)
 397:Core/Src/main.c ****         {
 398:Core/Src/main.c ****           stateChange_flag = 0;
 399:Core/Src/main.c ****           LED_OFF; // The hill is yours
 400:Core/Src/main.c ****           lcd_clear();
 401:Core/Src/main.c ****           lcd_put_cur(0,0);
 402:Core/Src/main.c ****           lcd_send_string("P1 is king");
 403:Core/Src/main.c ****           lcd_put_cur(1,0);
 404:Core/Src/main.c ****           lcd_send_string("of the hill!");
 405:Core/Src/main.c ****         }
 406:Core/Src/main.c ****       break;
 407:Core/Src/main.c **** 
 408:Core/Src/main.c ****       case p2King:
 409:Core/Src/main.c ****         if(stateChange_flag)
 410:Core/Src/main.c ****         {
 411:Core/Src/main.c ****           stateChange_flag = 0;
 412:Core/Src/main.c ****           LED_ON; // Better push the button!
 413:Core/Src/main.c ****           lcd_clear();
 414:Core/Src/main.c ****           lcd_put_cur(0,0);
 415:Core/Src/main.c ****           lcd_send_string("P2 is king");
 416:Core/Src/main.c ****           lcd_put_cur(1,0);
 417:Core/Src/main.c ****           lcd_send_string("of the hill!");
 418:Core/Src/main.c ****         }
 419:Core/Src/main.c ****       break;
 420:Core/Src/main.c **** 
 421:Core/Src/main.c ****       case p1Winner:
 422:Core/Src/main.c ****         if(stateChange_flag)
 423:Core/Src/main.c ****         {
 424:Core/Src/main.c ****           stateChange_flag = 0;
 425:Core/Src/main.c ****           LED_OFF;
 426:Core/Src/main.c ****           lcd_clear();
 427:Core/Src/main.c ****           lcd_put_cur(0,0);
 428:Core/Src/main.c ****           lcd_send_string("P1 wins!");
ARM GAS  C:\Users\jdcox\AppData\Local\Temp\cc24BuqZ.s 			page 9


 429:Core/Src/main.c ****           lcd_put_cur(1,0);
 430:Core/Src/main.c ****           lcd_send_string("Score: _ to _");
 431:Core/Src/main.c ****         }
 432:Core/Src/main.c ****       break;
 433:Core/Src/main.c **** 
 434:Core/Src/main.c ****       case p2Winner:
 435:Core/Src/main.c ****         if(stateChange_flag)
 436:Core/Src/main.c ****         {
 437:Core/Src/main.c ****           stateChange_flag = 0;
 438:Core/Src/main.c ****           LED_OFF;
 439:Core/Src/main.c ****           lcd_clear();
 440:Core/Src/main.c ****           lcd_put_cur(0,0);
 441:Core/Src/main.c ****           lcd_send_string("P2 wins!");
 442:Core/Src/main.c ****           lcd_put_cur(1,0);
 443:Core/Src/main.c ****           lcd_send_string("Score: _ to _");
 444:Core/Src/main.c ****         }
 445:Core/Src/main.c ****       break;
 446:Core/Src/main.c ****       
 447:Core/Src/main.c ****     }
 448:Core/Src/main.c **** 
 449:Core/Src/main.c ****     osDelay(1);
 450:Core/Src/main.c ****    
 451:Core/Src/main.c **** 
 452:Core/Src/main.c **** 
 453:Core/Src/main.c ****   }
 454:Core/Src/main.c ****   /* USER CODE END 5 */
 455:Core/Src/main.c **** }
 456:Core/Src/main.c **** 
 457:Core/Src/main.c **** /* USER CODE BEGIN Header_StartLoraRXTask */
 458:Core/Src/main.c **** /**
 459:Core/Src/main.c **** * @brief Function implementing the loraRXTask thread.
 460:Core/Src/main.c **** * @param argument: Not used
 461:Core/Src/main.c **** * @retval None
 462:Core/Src/main.c **** */
 463:Core/Src/main.c **** /* USER CODE END Header_StartLoraRXTask */
 464:Core/Src/main.c **** void StartLoraRXTask(void const * argument)
 465:Core/Src/main.c **** {
 466:Core/Src/main.c ****   /* USER CODE BEGIN StartLoraRXTask */
 467:Core/Src/main.c ****   /* Infinite loop */
 468:Core/Src/main.c ****   for(;;)
 469:Core/Src/main.c ****   {
 470:Core/Src/main.c ****     osDelay(1);
 471:Core/Src/main.c ****   }
 472:Core/Src/main.c ****   /* USER CODE END StartLoraRXTask */
 473:Core/Src/main.c **** }
 474:Core/Src/main.c **** 
 475:Core/Src/main.c **** /* USER CODE BEGIN Header_StartDisplayTask */
 476:Core/Src/main.c **** /**
 477:Core/Src/main.c **** * @brief Function implementing the displayTask thread.
 478:Core/Src/main.c **** * @param argument: Not used
 479:Core/Src/main.c **** * @retval None
 480:Core/Src/main.c **** */
 481:Core/Src/main.c **** /* USER CODE END Header_StartDisplayTask */
 482:Core/Src/main.c **** void StartDisplayTask(void const * argument)
 483:Core/Src/main.c **** {
 484:Core/Src/main.c ****   /* USER CODE BEGIN StartDisplayTask */
 485:Core/Src/main.c ****   /* Infinite loop */
ARM GAS  C:\Users\jdcox\AppData\Local\Temp\cc24BuqZ.s 			page 10


 486:Core/Src/main.c ****   for(;;)
 487:Core/Src/main.c ****   {
 488:Core/Src/main.c **** 
 489:Core/Src/main.c ****     osDelay(100);
 490:Core/Src/main.c ****   }
 491:Core/Src/main.c ****   /* USER CODE END StartDisplayTask */
 492:Core/Src/main.c **** }
 493:Core/Src/main.c **** 
 494:Core/Src/main.c **** /* msTickCallback function */
 495:Core/Src/main.c **** void msTickCallback(void const * argument)
 496:Core/Src/main.c **** {
  30              		.loc 1 496 1 view -0
  31              		.cfi_startproc
  32              		@ args = 0, pretend = 0, frame = 0
  33              		@ frame_needed = 0, uses_anonymous_args = 0
  34              		@ link register save eliminated.
 497:Core/Src/main.c ****   /* USER CODE BEGIN msTickCallback */
 498:Core/Src/main.c **** 
 499:Core/Src/main.c ****   /* USER CODE END msTickCallback */
 500:Core/Src/main.c **** }
  35              		.loc 1 500 1 view .LVU1
  36 0000 7047     		bx	lr
  37              		.cfi_endproc
  38              	.LFE144:
  40              		.section	.text.debounceCallback,"ax",%progbits
  41              		.align	1
  42              		.global	debounceCallback
  43              		.syntax unified
  44              		.thumb
  45              		.thumb_func
  47              	debounceCallback:
  48              	.LVL1:
  49              	.LFB146:
 501:Core/Src/main.c **** 
 502:Core/Src/main.c **** /* debounceCallback function */
 503:Core/Src/main.c **** 
 504:Core/Src/main.c **** void HAL_GPIO_EXTI_Callback(uint16_t GPIO_Pin)
 505:Core/Src/main.c **** {
 506:Core/Src/main.c ****   if( (!debouncing_Flag) && (GPIO_Pin == BTN_IN_Pin) ) 
 507:Core/Src/main.c ****   {
 508:Core/Src/main.c ****     debouncing_Flag = 1;
 509:Core/Src/main.c ****     stateChange_flag = 1; 
 510:Core/Src/main.c ****     if(++gameState > p2Winner) gameState = waiting;
 511:Core/Src/main.c ****     osTimerStart(debounceTimerHandle, pdMS_TO_TICKS(250));
 512:Core/Src/main.c ****   }
 513:Core/Src/main.c **** }
 514:Core/Src/main.c **** 
 515:Core/Src/main.c **** void debounceCallback(void const * argument)
 516:Core/Src/main.c **** {
  50              		.loc 1 516 1 view -0
  51              		.cfi_startproc
  52              		@ args = 0, pretend = 0, frame = 0
  53              		@ frame_needed = 0, uses_anonymous_args = 0
  54              		@ link register save eliminated.
 517:Core/Src/main.c ****   /* USER CODE BEGIN debounceCallback */
 518:Core/Src/main.c ****   debouncing_Flag = 0;
  55              		.loc 1 518 3 view .LVU3
ARM GAS  C:\Users\jdcox\AppData\Local\Temp\cc24BuqZ.s 			page 11


  56              		.loc 1 518 19 is_stmt 0 view .LVU4
  57 0000 014B     		ldr	r3, .L3
  58 0002 0022     		movs	r2, #0
  59 0004 1A70     		strb	r2, [r3]
 519:Core/Src/main.c ****   /* USER CODE END debounceCallback */
 520:Core/Src/main.c **** }
  60              		.loc 1 520 1 view .LVU5
  61 0006 7047     		bx	lr
  62              	.L4:
  63              		.align	2
  64              	.L3:
  65 0008 00000000 		.word	debouncing_Flag
  66              		.cfi_endproc
  67              	.LFE146:
  69              		.section	.text.MX_GPIO_Init,"ax",%progbits
  70              		.align	1
  71              		.syntax unified
  72              		.thumb
  73              		.thumb_func
  75              	MX_GPIO_Init:
  76              	.LFB140:
 317:Core/Src/main.c ****   GPIO_InitTypeDef GPIO_InitStruct = {0};
  77              		.loc 1 317 1 is_stmt 1 view -0
  78              		.cfi_startproc
  79              		@ args = 0, pretend = 0, frame = 32
  80              		@ frame_needed = 0, uses_anonymous_args = 0
  81 0000 2DE9F041 		push	{r4, r5, r6, r7, r8, lr}
  82              	.LCFI0:
  83              		.cfi_def_cfa_offset 24
  84              		.cfi_offset 4, -24
  85              		.cfi_offset 5, -20
  86              		.cfi_offset 6, -16
  87              		.cfi_offset 7, -12
  88              		.cfi_offset 8, -8
  89              		.cfi_offset 14, -4
  90 0004 88B0     		sub	sp, sp, #32
  91              	.LCFI1:
  92              		.cfi_def_cfa_offset 56
 318:Core/Src/main.c **** 
  93              		.loc 1 318 3 view .LVU7
 318:Core/Src/main.c **** 
  94              		.loc 1 318 20 is_stmt 0 view .LVU8
  95 0006 0024     		movs	r4, #0
  96 0008 0394     		str	r4, [sp, #12]
  97 000a 0494     		str	r4, [sp, #16]
  98 000c 0594     		str	r4, [sp, #20]
  99 000e 0694     		str	r4, [sp, #24]
 100 0010 0794     		str	r4, [sp, #28]
 321:Core/Src/main.c ****   __HAL_RCC_GPIOA_CLK_ENABLE();
 101              		.loc 1 321 3 is_stmt 1 view .LVU9
 102              	.LBB4:
 321:Core/Src/main.c ****   __HAL_RCC_GPIOA_CLK_ENABLE();
 103              		.loc 1 321 3 view .LVU10
 104 0012 0094     		str	r4, [sp]
 321:Core/Src/main.c ****   __HAL_RCC_GPIOA_CLK_ENABLE();
 105              		.loc 1 321 3 view .LVU11
 106 0014 294B     		ldr	r3, .L7
ARM GAS  C:\Users\jdcox\AppData\Local\Temp\cc24BuqZ.s 			page 12


 107 0016 1A6B     		ldr	r2, [r3, #48]
 108 0018 42F08002 		orr	r2, r2, #128
 109 001c 1A63     		str	r2, [r3, #48]
 321:Core/Src/main.c ****   __HAL_RCC_GPIOA_CLK_ENABLE();
 110              		.loc 1 321 3 view .LVU12
 111 001e 1A6B     		ldr	r2, [r3, #48]
 112 0020 02F08002 		and	r2, r2, #128
 113 0024 0092     		str	r2, [sp]
 321:Core/Src/main.c ****   __HAL_RCC_GPIOA_CLK_ENABLE();
 114              		.loc 1 321 3 view .LVU13
 115 0026 009A     		ldr	r2, [sp]
 116              	.LBE4:
 321:Core/Src/main.c ****   __HAL_RCC_GPIOA_CLK_ENABLE();
 117              		.loc 1 321 3 view .LVU14
 322:Core/Src/main.c ****   __HAL_RCC_GPIOB_CLK_ENABLE();
 118              		.loc 1 322 3 view .LVU15
 119              	.LBB5:
 322:Core/Src/main.c ****   __HAL_RCC_GPIOB_CLK_ENABLE();
 120              		.loc 1 322 3 view .LVU16
 121 0028 0194     		str	r4, [sp, #4]
 322:Core/Src/main.c ****   __HAL_RCC_GPIOB_CLK_ENABLE();
 122              		.loc 1 322 3 view .LVU17
 123 002a 1A6B     		ldr	r2, [r3, #48]
 124 002c 42F00102 		orr	r2, r2, #1
 125 0030 1A63     		str	r2, [r3, #48]
 322:Core/Src/main.c ****   __HAL_RCC_GPIOB_CLK_ENABLE();
 126              		.loc 1 322 3 view .LVU18
 127 0032 1A6B     		ldr	r2, [r3, #48]
 128 0034 02F00102 		and	r2, r2, #1
 129 0038 0192     		str	r2, [sp, #4]
 322:Core/Src/main.c ****   __HAL_RCC_GPIOB_CLK_ENABLE();
 130              		.loc 1 322 3 view .LVU19
 131 003a 019A     		ldr	r2, [sp, #4]
 132              	.LBE5:
 322:Core/Src/main.c ****   __HAL_RCC_GPIOB_CLK_ENABLE();
 133              		.loc 1 322 3 view .LVU20
 323:Core/Src/main.c **** 
 134              		.loc 1 323 3 view .LVU21
 135              	.LBB6:
 323:Core/Src/main.c **** 
 136              		.loc 1 323 3 view .LVU22
 137 003c 0294     		str	r4, [sp, #8]
 323:Core/Src/main.c **** 
 138              		.loc 1 323 3 view .LVU23
 139 003e 1A6B     		ldr	r2, [r3, #48]
 140 0040 42F00202 		orr	r2, r2, #2
 141 0044 1A63     		str	r2, [r3, #48]
 323:Core/Src/main.c **** 
 142              		.loc 1 323 3 view .LVU24
 143 0046 1B6B     		ldr	r3, [r3, #48]
 144 0048 03F00203 		and	r3, r3, #2
 145 004c 0293     		str	r3, [sp, #8]
 323:Core/Src/main.c **** 
 146              		.loc 1 323 3 view .LVU25
 147 004e 029B     		ldr	r3, [sp, #8]
 148              	.LBE6:
 323:Core/Src/main.c **** 
ARM GAS  C:\Users\jdcox\AppData\Local\Temp\cc24BuqZ.s 			page 13


 149              		.loc 1 323 3 view .LVU26
 326:Core/Src/main.c **** 
 150              		.loc 1 326 3 view .LVU27
 151 0050 1B4F     		ldr	r7, .L7+4
 152 0052 2246     		mov	r2, r4
 153 0054 0621     		movs	r1, #6
 154 0056 3846     		mov	r0, r7
 155 0058 FFF7FEFF 		bl	HAL_GPIO_WritePin
 156              	.LVL2:
 329:Core/Src/main.c **** 
 157              		.loc 1 329 3 view .LVU28
 158 005c DFF86480 		ldr	r8, .L7+8
 159 0060 2246     		mov	r2, r4
 160 0062 4FF48061 		mov	r1, #1024
 161 0066 4046     		mov	r0, r8
 162 0068 FFF7FEFF 		bl	HAL_GPIO_WritePin
 163              	.LVL3:
 332:Core/Src/main.c ****   GPIO_InitStruct.Mode = GPIO_MODE_IT_FALLING;
 164              		.loc 1 332 3 view .LVU29
 332:Core/Src/main.c ****   GPIO_InitStruct.Mode = GPIO_MODE_IT_FALLING;
 165              		.loc 1 332 23 is_stmt 0 view .LVU30
 166 006c 0125     		movs	r5, #1
 167 006e 0395     		str	r5, [sp, #12]
 333:Core/Src/main.c ****   GPIO_InitStruct.Pull = GPIO_PULLUP;
 168              		.loc 1 333 3 is_stmt 1 view .LVU31
 333:Core/Src/main.c ****   GPIO_InitStruct.Pull = GPIO_PULLUP;
 169              		.loc 1 333 24 is_stmt 0 view .LVU32
 170 0070 4FF40413 		mov	r3, #2162688
 171 0074 0493     		str	r3, [sp, #16]
 334:Core/Src/main.c ****   HAL_GPIO_Init(BTN_IN_GPIO_Port, &GPIO_InitStruct);
 172              		.loc 1 334 3 is_stmt 1 view .LVU33
 334:Core/Src/main.c ****   HAL_GPIO_Init(BTN_IN_GPIO_Port, &GPIO_InitStruct);
 173              		.loc 1 334 24 is_stmt 0 view .LVU34
 174 0076 0595     		str	r5, [sp, #20]
 335:Core/Src/main.c **** 
 175              		.loc 1 335 3 is_stmt 1 view .LVU35
 176 0078 03A9     		add	r1, sp, #12
 177 007a 3846     		mov	r0, r7
 178 007c FFF7FEFF 		bl	HAL_GPIO_Init
 179              	.LVL4:
 338:Core/Src/main.c ****   GPIO_InitStruct.Mode = GPIO_MODE_OUTPUT_PP;
 180              		.loc 1 338 3 view .LVU36
 338:Core/Src/main.c ****   GPIO_InitStruct.Mode = GPIO_MODE_OUTPUT_PP;
 181              		.loc 1 338 23 is_stmt 0 view .LVU37
 182 0080 0626     		movs	r6, #6
 183 0082 0396     		str	r6, [sp, #12]
 339:Core/Src/main.c ****   GPIO_InitStruct.Pull = GPIO_NOPULL;
 184              		.loc 1 339 3 is_stmt 1 view .LVU38
 339:Core/Src/main.c ****   GPIO_InitStruct.Pull = GPIO_NOPULL;
 185              		.loc 1 339 24 is_stmt 0 view .LVU39
 186 0084 0495     		str	r5, [sp, #16]
 340:Core/Src/main.c ****   GPIO_InitStruct.Speed = GPIO_SPEED_FREQ_LOW;
 187              		.loc 1 340 3 is_stmt 1 view .LVU40
 340:Core/Src/main.c ****   GPIO_InitStruct.Speed = GPIO_SPEED_FREQ_LOW;
 188              		.loc 1 340 24 is_stmt 0 view .LVU41
 189 0086 0594     		str	r4, [sp, #20]
 341:Core/Src/main.c ****   HAL_GPIO_Init(GPIOB, &GPIO_InitStruct);
ARM GAS  C:\Users\jdcox\AppData\Local\Temp\cc24BuqZ.s 			page 14


 190              		.loc 1 341 3 is_stmt 1 view .LVU42
 341:Core/Src/main.c ****   HAL_GPIO_Init(GPIOB, &GPIO_InitStruct);
 191              		.loc 1 341 25 is_stmt 0 view .LVU43
 192 0088 0694     		str	r4, [sp, #24]
 342:Core/Src/main.c **** 
 193              		.loc 1 342 3 is_stmt 1 view .LVU44
 194 008a 03A9     		add	r1, sp, #12
 195 008c 3846     		mov	r0, r7
 196 008e FFF7FEFF 		bl	HAL_GPIO_Init
 197              	.LVL5:
 345:Core/Src/main.c ****   GPIO_InitStruct.Mode = GPIO_MODE_OUTPUT_PP;
 198              		.loc 1 345 3 view .LVU45
 345:Core/Src/main.c ****   GPIO_InitStruct.Mode = GPIO_MODE_OUTPUT_PP;
 199              		.loc 1 345 23 is_stmt 0 view .LVU46
 200 0092 4FF48063 		mov	r3, #1024
 201 0096 0393     		str	r3, [sp, #12]
 346:Core/Src/main.c ****   GPIO_InitStruct.Pull = GPIO_NOPULL;
 202              		.loc 1 346 3 is_stmt 1 view .LVU47
 346:Core/Src/main.c ****   GPIO_InitStruct.Pull = GPIO_NOPULL;
 203              		.loc 1 346 24 is_stmt 0 view .LVU48
 204 0098 0495     		str	r5, [sp, #16]
 347:Core/Src/main.c ****   GPIO_InitStruct.Speed = GPIO_SPEED_FREQ_LOW;
 205              		.loc 1 347 3 is_stmt 1 view .LVU49
 347:Core/Src/main.c ****   GPIO_InitStruct.Speed = GPIO_SPEED_FREQ_LOW;
 206              		.loc 1 347 24 is_stmt 0 view .LVU50
 207 009a 0594     		str	r4, [sp, #20]
 348:Core/Src/main.c ****   HAL_GPIO_Init(LORA_CS_GPIO_Port, &GPIO_InitStruct);
 208              		.loc 1 348 3 is_stmt 1 view .LVU51
 348:Core/Src/main.c ****   HAL_GPIO_Init(LORA_CS_GPIO_Port, &GPIO_InitStruct);
 209              		.loc 1 348 25 is_stmt 0 view .LVU52
 210 009c 0694     		str	r4, [sp, #24]
 349:Core/Src/main.c **** 
 211              		.loc 1 349 3 is_stmt 1 view .LVU53
 212 009e 03A9     		add	r1, sp, #12
 213 00a0 4046     		mov	r0, r8
 214 00a2 FFF7FEFF 		bl	HAL_GPIO_Init
 215              	.LVL6:
 352:Core/Src/main.c ****   HAL_NVIC_EnableIRQ(EXTI0_IRQn);
 216              		.loc 1 352 3 view .LVU54
 217 00a6 2246     		mov	r2, r4
 218 00a8 0521     		movs	r1, #5
 219 00aa 3046     		mov	r0, r6
 220 00ac FFF7FEFF 		bl	HAL_NVIC_SetPriority
 221              	.LVL7:
 353:Core/Src/main.c **** 
 222              		.loc 1 353 3 view .LVU55
 223 00b0 3046     		mov	r0, r6
 224 00b2 FFF7FEFF 		bl	HAL_NVIC_EnableIRQ
 225              	.LVL8:
 355:Core/Src/main.c **** 
 226              		.loc 1 355 1 is_stmt 0 view .LVU56
 227 00b6 08B0     		add	sp, sp, #32
 228              	.LCFI2:
 229              		.cfi_def_cfa_offset 24
 230              		@ sp needed
 231 00b8 BDE8F081 		pop	{r4, r5, r6, r7, r8, pc}
 232              	.L8:
ARM GAS  C:\Users\jdcox\AppData\Local\Temp\cc24BuqZ.s 			page 15


 233              		.align	2
 234              	.L7:
 235 00bc 00380240 		.word	1073887232
 236 00c0 00040240 		.word	1073873920
 237 00c4 00000240 		.word	1073872896
 238              		.cfi_endproc
 239              	.LFE140:
 241              		.section	.text.MX_DMA_Init,"ax",%progbits
 242              		.align	1
 243              		.syntax unified
 244              		.thumb
 245              		.thumb_func
 247              	MX_DMA_Init:
 248              	.LFB139:
 299:Core/Src/main.c **** 
 249              		.loc 1 299 1 is_stmt 1 view -0
 250              		.cfi_startproc
 251              		@ args = 0, pretend = 0, frame = 8
 252              		@ frame_needed = 0, uses_anonymous_args = 0
 253 0000 00B5     		push	{lr}
 254              	.LCFI3:
 255              		.cfi_def_cfa_offset 4
 256              		.cfi_offset 14, -4
 257 0002 83B0     		sub	sp, sp, #12
 258              	.LCFI4:
 259              		.cfi_def_cfa_offset 16
 302:Core/Src/main.c **** 
 260              		.loc 1 302 3 view .LVU58
 261              	.LBB7:
 302:Core/Src/main.c **** 
 262              		.loc 1 302 3 view .LVU59
 263 0004 0022     		movs	r2, #0
 264 0006 0192     		str	r2, [sp, #4]
 302:Core/Src/main.c **** 
 265              		.loc 1 302 3 view .LVU60
 266 0008 094B     		ldr	r3, .L11
 267 000a 196B     		ldr	r1, [r3, #48]
 268 000c 41F40011 		orr	r1, r1, #2097152
 269 0010 1963     		str	r1, [r3, #48]
 302:Core/Src/main.c **** 
 270              		.loc 1 302 3 view .LVU61
 271 0012 1B6B     		ldr	r3, [r3, #48]
 272 0014 03F40013 		and	r3, r3, #2097152
 273 0018 0193     		str	r3, [sp, #4]
 302:Core/Src/main.c **** 
 274              		.loc 1 302 3 view .LVU62
 275 001a 019B     		ldr	r3, [sp, #4]
 276              	.LBE7:
 302:Core/Src/main.c **** 
 277              		.loc 1 302 3 view .LVU63
 306:Core/Src/main.c ****   HAL_NVIC_EnableIRQ(DMA1_Stream6_IRQn);
 278              		.loc 1 306 3 view .LVU64
 279 001c 0521     		movs	r1, #5
 280 001e 1120     		movs	r0, #17
 281 0020 FFF7FEFF 		bl	HAL_NVIC_SetPriority
 282              	.LVL9:
 307:Core/Src/main.c **** 
ARM GAS  C:\Users\jdcox\AppData\Local\Temp\cc24BuqZ.s 			page 16


 283              		.loc 1 307 3 view .LVU65
 284 0024 1120     		movs	r0, #17
 285 0026 FFF7FEFF 		bl	HAL_NVIC_EnableIRQ
 286              	.LVL10:
 309:Core/Src/main.c **** 
 287              		.loc 1 309 1 is_stmt 0 view .LVU66
 288 002a 03B0     		add	sp, sp, #12
 289              	.LCFI5:
 290              		.cfi_def_cfa_offset 4
 291              		@ sp needed
 292 002c 5DF804FB 		ldr	pc, [sp], #4
 293              	.L12:
 294              		.align	2
 295              	.L11:
 296 0030 00380240 		.word	1073887232
 297              		.cfi_endproc
 298              	.LFE139:
 300              		.section	.text.StartLoraRXTask,"ax",%progbits
 301              		.align	1
 302              		.global	StartLoraRXTask
 303              		.syntax unified
 304              		.thumb
 305              		.thumb_func
 307              	StartLoraRXTask:
 308              	.LFB142:
 465:Core/Src/main.c ****   /* USER CODE BEGIN StartLoraRXTask */
 309              		.loc 1 465 1 is_stmt 1 view -0
 310              		.cfi_startproc
 311              		@ Volatile: function does not return.
 312              		@ args = 0, pretend = 0, frame = 0
 313              		@ frame_needed = 0, uses_anonymous_args = 0
 314              	.LVL11:
 465:Core/Src/main.c ****   /* USER CODE BEGIN StartLoraRXTask */
 315              		.loc 1 465 1 is_stmt 0 view .LVU68
 316 0000 08B5     		push	{r3, lr}
 317              	.LCFI6:
 318              		.cfi_def_cfa_offset 8
 319              		.cfi_offset 3, -8
 320              		.cfi_offset 14, -4
 321              	.LVL12:
 322              	.L14:
 468:Core/Src/main.c ****   {
 323              		.loc 1 468 3 is_stmt 1 discriminator 1 view .LVU69
 470:Core/Src/main.c ****   }
 324              		.loc 1 470 5 discriminator 1 view .LVU70
 325 0002 0120     		movs	r0, #1
 326 0004 FFF7FEFF 		bl	osDelay
 327              	.LVL13:
 468:Core/Src/main.c ****   {
 328              		.loc 1 468 3 discriminator 1 view .LVU71
 329 0008 FBE7     		b	.L14
 330              		.cfi_endproc
 331              	.LFE142:
 333              		.section	.text.StartDisplayTask,"ax",%progbits
 334              		.align	1
 335              		.global	StartDisplayTask
 336              		.syntax unified
ARM GAS  C:\Users\jdcox\AppData\Local\Temp\cc24BuqZ.s 			page 17


 337              		.thumb
 338              		.thumb_func
 340              	StartDisplayTask:
 341              	.LFB143:
 483:Core/Src/main.c ****   /* USER CODE BEGIN StartDisplayTask */
 342              		.loc 1 483 1 view -0
 343              		.cfi_startproc
 344              		@ Volatile: function does not return.
 345              		@ args = 0, pretend = 0, frame = 0
 346              		@ frame_needed = 0, uses_anonymous_args = 0
 347              	.LVL14:
 483:Core/Src/main.c ****   /* USER CODE BEGIN StartDisplayTask */
 348              		.loc 1 483 1 is_stmt 0 view .LVU73
 349 0000 08B5     		push	{r3, lr}
 350              	.LCFI7:
 351              		.cfi_def_cfa_offset 8
 352              		.cfi_offset 3, -8
 353              		.cfi_offset 14, -4
 354              	.LVL15:
 355              	.L17:
 486:Core/Src/main.c ****   {
 356              		.loc 1 486 3 is_stmt 1 discriminator 1 view .LVU74
 489:Core/Src/main.c ****   }
 357              		.loc 1 489 5 discriminator 1 view .LVU75
 358 0002 6420     		movs	r0, #100
 359 0004 FFF7FEFF 		bl	osDelay
 360              	.LVL16:
 486:Core/Src/main.c ****   {
 361              		.loc 1 486 3 discriminator 1 view .LVU76
 362 0008 FBE7     		b	.L17
 363              		.cfi_endproc
 364              	.LFE143:
 366              		.section	.rodata.StartDefaultTask.str1.4,"aMS",%progbits,1
 367              		.align	2
 368              	.LC6:
 369 0000 4B696E67 		.ascii	"King of the hill!\000"
 369      206F6620 
 369      74686520 
 369      68696C6C 
 369      2100
 370 0012 0000     		.align	2
 371              	.LC7:
 372 0014 50757368 		.ascii	"Push to play\000"
 372      20746F20 
 372      706C6179 
 372      00
 373 0021 000000   		.align	2
 374              	.LC8:
 375 0024 50312069 		.ascii	"P1 is king\000"
 375      73206B69 
 375      6E6700
 376 002f 00       		.align	2
 377              	.LC9:
 378 0030 6F662074 		.ascii	"of the hill!\000"
 378      68652068 
 378      696C6C21 
 378      00
ARM GAS  C:\Users\jdcox\AppData\Local\Temp\cc24BuqZ.s 			page 18


 379 003d 000000   		.align	2
 380              	.LC10:
 381 0040 50322069 		.ascii	"P2 is king\000"
 381      73206B69 
 381      6E6700
 382 004b 00       		.align	2
 383              	.LC11:
 384 004c 50312077 		.ascii	"P1 wins!\000"
 384      696E7321 
 384      00
 385 0055 000000   		.align	2
 386              	.LC12:
 387 0058 53636F72 		.ascii	"Score: _ to _\000"
 387      653A205F 
 387      20746F20 
 387      5F00
 388 0066 0000     		.align	2
 389              	.LC13:
 390 0068 50322077 		.ascii	"P2 wins!\000"
 390      696E7321 
 390      00
 391              		.section	.text.StartDefaultTask,"ax",%progbits
 392              		.align	1
 393              		.global	StartDefaultTask
 394              		.syntax unified
 395              		.thumb
 396              		.thumb_func
 398              	StartDefaultTask:
 399              	.LVL17:
 400              	.LFB141:
 369:Core/Src/main.c ****   /* USER CODE BEGIN 5 */
 401              		.loc 1 369 1 view -0
 402              		.cfi_startproc
 403              		@ args = 0, pretend = 0, frame = 0
 404              		@ frame_needed = 0, uses_anonymous_args = 0
 369:Core/Src/main.c ****   /* USER CODE BEGIN 5 */
 405              		.loc 1 369 1 is_stmt 0 view .LVU78
 406 0000 10B5     		push	{r4, lr}
 407              	.LCFI8:
 408              		.cfi_def_cfa_offset 8
 409              		.cfi_offset 4, -8
 410              		.cfi_offset 14, -4
 371:Core/Src/main.c ****   lcd_send_string("King of the hill!");
 411              		.loc 1 371 3 is_stmt 1 view .LVU79
 412 0002 FFF7FEFF 		bl	lcd_init
 413              	.LVL18:
 372:Core/Src/main.c **** 
 414              		.loc 1 372 3 view .LVU80
 415 0006 5048     		ldr	r0, .L31
 416 0008 FFF7FEFF 		bl	lcd_send_string
 417              	.LVL19:
 374:Core/Src/main.c **** 
 418              		.loc 1 374 3 view .LVU81
 419 000c 4FF4FA60 		mov	r0, #2000
 420 0010 FFF7FEFF 		bl	osDelay
 421              	.LVL20:
 376:Core/Src/main.c ****   
ARM GAS  C:\Users\jdcox\AppData\Local\Temp\cc24BuqZ.s 			page 19


 422              		.loc 1 376 3 view .LVU82
 376:Core/Src/main.c ****   
 423              		.loc 1 376 3 is_stmt 0 view .LVU83
 424 0014 05E0     		b	.L27
 425              	.L26:
 386:Core/Src/main.c ****         {
 426              		.loc 1 386 9 is_stmt 1 view .LVU84
 386:Core/Src/main.c ****         {
 427              		.loc 1 386 12 is_stmt 0 view .LVU85
 428 0016 4D4B     		ldr	r3, .L31+4
 429 0018 1B78     		ldrb	r3, [r3]	@ zero_extendqisi2
 386:Core/Src/main.c ****         {
 430              		.loc 1 386 11 view .LVU86
 431 001a 9BB9     		cbnz	r3, .L30
 432              	.L20:
 449:Core/Src/main.c ****    
 433              		.loc 1 449 5 is_stmt 1 view .LVU87
 434 001c 0120     		movs	r0, #1
 435 001e FFF7FEFF 		bl	osDelay
 436              	.LVL21:
 380:Core/Src/main.c ****   {
 437              		.loc 1 380 3 view .LVU88
 438              	.L27:
 380:Core/Src/main.c ****   {
 439              		.loc 1 380 3 view .LVU89
 383:Core/Src/main.c ****     {
 440              		.loc 1 383 5 view .LVU90
 441 0022 4B4B     		ldr	r3, .L31+8
 442 0024 1B78     		ldrb	r3, [r3]	@ zero_extendqisi2
 443 0026 042B     		cmp	r3, #4
 444 0028 F8D8     		bhi	.L20
 445 002a 01A2     		adr	r2, .L22
 446 002c 52F823F0 		ldr	pc, [r2, r3, lsl #2]
 447              		.p2align 2
 448              	.L22:
 449 0030 17000000 		.word	.L26+1
 450 0034 5F000000 		.word	.L25+1
 451 0038 99000000 		.word	.L24+1
 452 003c D3000000 		.word	.L23+1
 453 0040 0D010000 		.word	.L21+1
 454              		.p2align 1
 455              	.L30:
 388:Core/Src/main.c ****           lcd_clear();
 456              		.loc 1 388 11 view .LVU91
 388:Core/Src/main.c ****           lcd_clear();
 457              		.loc 1 388 28 is_stmt 0 view .LVU92
 458 0044 0024     		movs	r4, #0
 459 0046 414B     		ldr	r3, .L31+4
 460 0048 1C70     		strb	r4, [r3]
 389:Core/Src/main.c ****           lcd_put_cur(0,0);
 461              		.loc 1 389 11 is_stmt 1 view .LVU93
 462 004a FFF7FEFF 		bl	lcd_clear
 463              	.LVL22:
 390:Core/Src/main.c ****           lcd_send_string("Push to play");
 464              		.loc 1 390 11 view .LVU94
 465 004e 2146     		mov	r1, r4
 466 0050 2046     		mov	r0, r4
ARM GAS  C:\Users\jdcox\AppData\Local\Temp\cc24BuqZ.s 			page 20


 467 0052 FFF7FEFF 		bl	lcd_put_cur
 468              	.LVL23:
 391:Core/Src/main.c ****         }
 469              		.loc 1 391 11 view .LVU95
 470 0056 3F48     		ldr	r0, .L31+12
 471 0058 FFF7FEFF 		bl	lcd_send_string
 472              	.LVL24:
 473 005c DEE7     		b	.L20
 474              	.L25:
 396:Core/Src/main.c ****         {
 475              		.loc 1 396 9 view .LVU96
 396:Core/Src/main.c ****         {
 476              		.loc 1 396 12 is_stmt 0 view .LVU97
 477 005e 3B4B     		ldr	r3, .L31+4
 478 0060 1B78     		ldrb	r3, [r3]	@ zero_extendqisi2
 396:Core/Src/main.c ****         {
 479              		.loc 1 396 11 view .LVU98
 480 0062 002B     		cmp	r3, #0
 481 0064 DAD0     		beq	.L20
 398:Core/Src/main.c ****           LED_OFF; // The hill is yours
 482              		.loc 1 398 11 is_stmt 1 view .LVU99
 398:Core/Src/main.c ****           LED_OFF; // The hill is yours
 483              		.loc 1 398 28 is_stmt 0 view .LVU100
 484 0066 0024     		movs	r4, #0
 485 0068 384B     		ldr	r3, .L31+4
 486 006a 1C70     		strb	r4, [r3]
 399:Core/Src/main.c ****           lcd_clear();
 487              		.loc 1 399 11 is_stmt 1 view .LVU101
 488 006c 0122     		movs	r2, #1
 489 006e 0221     		movs	r1, #2
 490 0070 3948     		ldr	r0, .L31+16
 491 0072 FFF7FEFF 		bl	HAL_GPIO_WritePin
 492              	.LVL25:
 400:Core/Src/main.c ****           lcd_put_cur(0,0);
 493              		.loc 1 400 11 view .LVU102
 494 0076 FFF7FEFF 		bl	lcd_clear
 495              	.LVL26:
 401:Core/Src/main.c ****           lcd_send_string("P1 is king");
 496              		.loc 1 401 11 view .LVU103
 497 007a 2146     		mov	r1, r4
 498 007c 2046     		mov	r0, r4
 499 007e FFF7FEFF 		bl	lcd_put_cur
 500              	.LVL27:
 402:Core/Src/main.c ****           lcd_put_cur(1,0);
 501              		.loc 1 402 11 view .LVU104
 502 0082 3648     		ldr	r0, .L31+20
 503 0084 FFF7FEFF 		bl	lcd_send_string
 504              	.LVL28:
 403:Core/Src/main.c ****           lcd_send_string("of the hill!");
 505              		.loc 1 403 11 view .LVU105
 506 0088 2146     		mov	r1, r4
 507 008a 0120     		movs	r0, #1
 508 008c FFF7FEFF 		bl	lcd_put_cur
 509              	.LVL29:
 404:Core/Src/main.c ****         }
 510              		.loc 1 404 11 view .LVU106
 511 0090 3348     		ldr	r0, .L31+24
ARM GAS  C:\Users\jdcox\AppData\Local\Temp\cc24BuqZ.s 			page 21


 512 0092 FFF7FEFF 		bl	lcd_send_string
 513              	.LVL30:
 514 0096 C1E7     		b	.L20
 515              	.L24:
 409:Core/Src/main.c ****         {
 516              		.loc 1 409 9 view .LVU107
 409:Core/Src/main.c ****         {
 517              		.loc 1 409 12 is_stmt 0 view .LVU108
 518 0098 2C4B     		ldr	r3, .L31+4
 519 009a 1B78     		ldrb	r3, [r3]	@ zero_extendqisi2
 409:Core/Src/main.c ****         {
 520              		.loc 1 409 11 view .LVU109
 521 009c 002B     		cmp	r3, #0
 522 009e BDD0     		beq	.L20
 411:Core/Src/main.c ****           LED_ON; // Better push the button!
 523              		.loc 1 411 11 is_stmt 1 view .LVU110
 411:Core/Src/main.c ****           LED_ON; // Better push the button!
 524              		.loc 1 411 28 is_stmt 0 view .LVU111
 525 00a0 0024     		movs	r4, #0
 526 00a2 2A4B     		ldr	r3, .L31+4
 527 00a4 1C70     		strb	r4, [r3]
 412:Core/Src/main.c ****           lcd_clear();
 528              		.loc 1 412 11 is_stmt 1 view .LVU112
 529 00a6 2246     		mov	r2, r4
 530 00a8 0221     		movs	r1, #2
 531 00aa 2B48     		ldr	r0, .L31+16
 532 00ac FFF7FEFF 		bl	HAL_GPIO_WritePin
 533              	.LVL31:
 413:Core/Src/main.c ****           lcd_put_cur(0,0);
 534              		.loc 1 413 11 view .LVU113
 535 00b0 FFF7FEFF 		bl	lcd_clear
 536              	.LVL32:
 414:Core/Src/main.c ****           lcd_send_string("P2 is king");
 537              		.loc 1 414 11 view .LVU114
 538 00b4 2146     		mov	r1, r4
 539 00b6 2046     		mov	r0, r4
 540 00b8 FFF7FEFF 		bl	lcd_put_cur
 541              	.LVL33:
 415:Core/Src/main.c ****           lcd_put_cur(1,0);
 542              		.loc 1 415 11 view .LVU115
 543 00bc 2948     		ldr	r0, .L31+28
 544 00be FFF7FEFF 		bl	lcd_send_string
 545              	.LVL34:
 416:Core/Src/main.c ****           lcd_send_string("of the hill!");
 546              		.loc 1 416 11 view .LVU116
 547 00c2 2146     		mov	r1, r4
 548 00c4 0120     		movs	r0, #1
 549 00c6 FFF7FEFF 		bl	lcd_put_cur
 550              	.LVL35:
 417:Core/Src/main.c ****         }
 551              		.loc 1 417 11 view .LVU117
 552 00ca 2548     		ldr	r0, .L31+24
 553 00cc FFF7FEFF 		bl	lcd_send_string
 554              	.LVL36:
 555 00d0 A4E7     		b	.L20
 556              	.L23:
 422:Core/Src/main.c ****         {
ARM GAS  C:\Users\jdcox\AppData\Local\Temp\cc24BuqZ.s 			page 22


 557              		.loc 1 422 9 view .LVU118
 422:Core/Src/main.c ****         {
 558              		.loc 1 422 12 is_stmt 0 view .LVU119
 559 00d2 1E4B     		ldr	r3, .L31+4
 560 00d4 1B78     		ldrb	r3, [r3]	@ zero_extendqisi2
 422:Core/Src/main.c ****         {
 561              		.loc 1 422 11 view .LVU120
 562 00d6 002B     		cmp	r3, #0
 563 00d8 A0D0     		beq	.L20
 424:Core/Src/main.c ****           LED_OFF;
 564              		.loc 1 424 11 is_stmt 1 view .LVU121
 424:Core/Src/main.c ****           LED_OFF;
 565              		.loc 1 424 28 is_stmt 0 view .LVU122
 566 00da 0024     		movs	r4, #0
 567 00dc 1B4B     		ldr	r3, .L31+4
 568 00de 1C70     		strb	r4, [r3]
 425:Core/Src/main.c ****           lcd_clear();
 569              		.loc 1 425 11 is_stmt 1 view .LVU123
 570 00e0 0122     		movs	r2, #1
 571 00e2 0221     		movs	r1, #2
 572 00e4 1C48     		ldr	r0, .L31+16
 573 00e6 FFF7FEFF 		bl	HAL_GPIO_WritePin
 574              	.LVL37:
 426:Core/Src/main.c ****           lcd_put_cur(0,0);
 575              		.loc 1 426 11 view .LVU124
 576 00ea FFF7FEFF 		bl	lcd_clear
 577              	.LVL38:
 427:Core/Src/main.c ****           lcd_send_string("P1 wins!");
 578              		.loc 1 427 11 view .LVU125
 579 00ee 2146     		mov	r1, r4
 580 00f0 2046     		mov	r0, r4
 581 00f2 FFF7FEFF 		bl	lcd_put_cur
 582              	.LVL39:
 428:Core/Src/main.c ****           lcd_put_cur(1,0);
 583              		.loc 1 428 11 view .LVU126
 584 00f6 1C48     		ldr	r0, .L31+32
 585 00f8 FFF7FEFF 		bl	lcd_send_string
 586              	.LVL40:
 429:Core/Src/main.c ****           lcd_send_string("Score: _ to _");
 587              		.loc 1 429 11 view .LVU127
 588 00fc 2146     		mov	r1, r4
 589 00fe 0120     		movs	r0, #1
 590 0100 FFF7FEFF 		bl	lcd_put_cur
 591              	.LVL41:
 430:Core/Src/main.c ****         }
 592              		.loc 1 430 11 view .LVU128
 593 0104 1948     		ldr	r0, .L31+36
 594 0106 FFF7FEFF 		bl	lcd_send_string
 595              	.LVL42:
 596 010a 87E7     		b	.L20
 597              	.L21:
 435:Core/Src/main.c ****         {
 598              		.loc 1 435 9 view .LVU129
 435:Core/Src/main.c ****         {
 599              		.loc 1 435 12 is_stmt 0 view .LVU130
 600 010c 0F4B     		ldr	r3, .L31+4
 601 010e 1B78     		ldrb	r3, [r3]	@ zero_extendqisi2
ARM GAS  C:\Users\jdcox\AppData\Local\Temp\cc24BuqZ.s 			page 23


 435:Core/Src/main.c ****         {
 602              		.loc 1 435 11 view .LVU131
 603 0110 002B     		cmp	r3, #0
 604 0112 83D0     		beq	.L20
 437:Core/Src/main.c ****           LED_OFF;
 605              		.loc 1 437 11 is_stmt 1 view .LVU132
 437:Core/Src/main.c ****           LED_OFF;
 606              		.loc 1 437 28 is_stmt 0 view .LVU133
 607 0114 0024     		movs	r4, #0
 608 0116 0D4B     		ldr	r3, .L31+4
 609 0118 1C70     		strb	r4, [r3]
 438:Core/Src/main.c ****           lcd_clear();
 610              		.loc 1 438 11 is_stmt 1 view .LVU134
 611 011a 0122     		movs	r2, #1
 612 011c 0221     		movs	r1, #2
 613 011e 0E48     		ldr	r0, .L31+16
 614 0120 FFF7FEFF 		bl	HAL_GPIO_WritePin
 615              	.LVL43:
 439:Core/Src/main.c ****           lcd_put_cur(0,0);
 616              		.loc 1 439 11 view .LVU135
 617 0124 FFF7FEFF 		bl	lcd_clear
 618              	.LVL44:
 440:Core/Src/main.c ****           lcd_send_string("P2 wins!");
 619              		.loc 1 440 11 view .LVU136
 620 0128 2146     		mov	r1, r4
 621 012a 2046     		mov	r0, r4
 622 012c FFF7FEFF 		bl	lcd_put_cur
 623              	.LVL45:
 441:Core/Src/main.c ****           lcd_put_cur(1,0);
 624              		.loc 1 441 11 view .LVU137
 625 0130 0F48     		ldr	r0, .L31+40
 626 0132 FFF7FEFF 		bl	lcd_send_string
 627              	.LVL46:
 442:Core/Src/main.c ****           lcd_send_string("Score: _ to _");
 628              		.loc 1 442 11 view .LVU138
 629 0136 2146     		mov	r1, r4
 630 0138 0120     		movs	r0, #1
 631 013a FFF7FEFF 		bl	lcd_put_cur
 632              	.LVL47:
 443:Core/Src/main.c ****         }
 633              		.loc 1 443 11 view .LVU139
 634 013e 0B48     		ldr	r0, .L31+36
 635 0140 FFF7FEFF 		bl	lcd_send_string
 636              	.LVL48:
 637 0144 6AE7     		b	.L20
 638              	.L32:
 639 0146 00BF     		.align	2
 640              	.L31:
 641 0148 00000000 		.word	.LC6
 642 014c 00000000 		.word	stateChange_flag
 643 0150 00000000 		.word	gameState
 644 0154 14000000 		.word	.LC7
 645 0158 00040240 		.word	1073873920
 646 015c 24000000 		.word	.LC8
 647 0160 30000000 		.word	.LC9
 648 0164 40000000 		.word	.LC10
 649 0168 4C000000 		.word	.LC11
ARM GAS  C:\Users\jdcox\AppData\Local\Temp\cc24BuqZ.s 			page 24


 650 016c 58000000 		.word	.LC12
 651 0170 68000000 		.word	.LC13
 652              		.cfi_endproc
 653              	.LFE141:
 655              		.section	.text.HAL_GPIO_EXTI_Callback,"ax",%progbits
 656              		.align	1
 657              		.global	HAL_GPIO_EXTI_Callback
 658              		.syntax unified
 659              		.thumb
 660              		.thumb_func
 662              	HAL_GPIO_EXTI_Callback:
 663              	.LVL49:
 664              	.LFB145:
 505:Core/Src/main.c ****   if( (!debouncing_Flag) && (GPIO_Pin == BTN_IN_Pin) ) 
 665              		.loc 1 505 1 view -0
 666              		.cfi_startproc
 667              		@ args = 0, pretend = 0, frame = 0
 668              		@ frame_needed = 0, uses_anonymous_args = 0
 505:Core/Src/main.c ****   if( (!debouncing_Flag) && (GPIO_Pin == BTN_IN_Pin) ) 
 669              		.loc 1 505 1 is_stmt 0 view .LVU141
 670 0000 08B5     		push	{r3, lr}
 671              	.LCFI9:
 672              		.cfi_def_cfa_offset 8
 673              		.cfi_offset 3, -8
 674              		.cfi_offset 14, -4
 506:Core/Src/main.c ****   {
 675              		.loc 1 506 3 is_stmt 1 view .LVU142
 506:Core/Src/main.c ****   {
 676              		.loc 1 506 8 is_stmt 0 view .LVU143
 677 0002 0D4B     		ldr	r3, .L38
 678 0004 1B78     		ldrb	r3, [r3]	@ zero_extendqisi2
 506:Core/Src/main.c ****   {
 679              		.loc 1 506 5 view .LVU144
 680 0006 0BB9     		cbnz	r3, .L33
 506:Core/Src/main.c ****   {
 681              		.loc 1 506 26 discriminator 1 view .LVU145
 682 0008 0128     		cmp	r0, #1
 683 000a 00D0     		beq	.L37
 684              	.LVL50:
 685              	.L33:
 513:Core/Src/main.c **** 
 686              		.loc 1 513 1 view .LVU146
 687 000c 08BD     		pop	{r3, pc}
 688              	.LVL51:
 689              	.L37:
 508:Core/Src/main.c ****     stateChange_flag = 1; 
 690              		.loc 1 508 5 is_stmt 1 view .LVU147
 508:Core/Src/main.c ****     stateChange_flag = 1; 
 691              		.loc 1 508 21 is_stmt 0 view .LVU148
 692 000e 0123     		movs	r3, #1
 693 0010 094A     		ldr	r2, .L38
 694 0012 1370     		strb	r3, [r2]
 509:Core/Src/main.c ****     if(++gameState > p2Winner) gameState = waiting;
 695              		.loc 1 509 5 is_stmt 1 view .LVU149
 509:Core/Src/main.c ****     if(++gameState > p2Winner) gameState = waiting;
 696              		.loc 1 509 22 is_stmt 0 view .LVU150
 697 0014 094A     		ldr	r2, .L38+4
ARM GAS  C:\Users\jdcox\AppData\Local\Temp\cc24BuqZ.s 			page 25


 698 0016 1370     		strb	r3, [r2]
 510:Core/Src/main.c ****     osTimerStart(debounceTimerHandle, pdMS_TO_TICKS(250));
 699              		.loc 1 510 5 is_stmt 1 view .LVU151
 510:Core/Src/main.c ****     osTimerStart(debounceTimerHandle, pdMS_TO_TICKS(250));
 700              		.loc 1 510 8 is_stmt 0 view .LVU152
 701 0018 094A     		ldr	r2, .L38+8
 702 001a 1378     		ldrb	r3, [r2]	@ zero_extendqisi2
 703 001c 0133     		adds	r3, r3, #1
 704 001e DBB2     		uxtb	r3, r3
 510:Core/Src/main.c ****     osTimerStart(debounceTimerHandle, pdMS_TO_TICKS(250));
 705              		.loc 1 510 7 view .LVU153
 706 0020 1370     		strb	r3, [r2]
 707 0022 042B     		cmp	r3, #4
 708 0024 02D9     		bls	.L35
 510:Core/Src/main.c ****     osTimerStart(debounceTimerHandle, pdMS_TO_TICKS(250));
 709              		.loc 1 510 32 is_stmt 1 discriminator 1 view .LVU154
 510:Core/Src/main.c ****     osTimerStart(debounceTimerHandle, pdMS_TO_TICKS(250));
 710              		.loc 1 510 42 is_stmt 0 discriminator 1 view .LVU155
 711 0026 1346     		mov	r3, r2
 712 0028 0022     		movs	r2, #0
 713 002a 1A70     		strb	r2, [r3]
 714              	.L35:
 511:Core/Src/main.c ****   }
 715              		.loc 1 511 5 is_stmt 1 view .LVU156
 716 002c FA21     		movs	r1, #250
 717 002e 054B     		ldr	r3, .L38+12
 718 0030 1868     		ldr	r0, [r3]
 719              	.LVL52:
 511:Core/Src/main.c ****   }
 720              		.loc 1 511 5 is_stmt 0 view .LVU157
 721 0032 FFF7FEFF 		bl	osTimerStart
 722              	.LVL53:
 513:Core/Src/main.c **** 
 723              		.loc 1 513 1 view .LVU158
 724 0036 E9E7     		b	.L33
 725              	.L39:
 726              		.align	2
 727              	.L38:
 728 0038 00000000 		.word	debouncing_Flag
 729 003c 00000000 		.word	stateChange_flag
 730 0040 00000000 		.word	gameState
 731 0044 00000000 		.word	.LANCHOR0
 732              		.cfi_endproc
 733              	.LFE145:
 735              		.section	.text.HAL_TIM_PeriodElapsedCallback,"ax",%progbits
 736              		.align	1
 737              		.global	HAL_TIM_PeriodElapsedCallback
 738              		.syntax unified
 739              		.thumb
 740              		.thumb_func
 742              	HAL_TIM_PeriodElapsedCallback:
 743              	.LVL54:
 744              	.LFB147:
 521:Core/Src/main.c **** 
 522:Core/Src/main.c **** /**
 523:Core/Src/main.c ****   * @brief  Period elapsed callback in non blocking mode
 524:Core/Src/main.c ****   * @note   This function is called  when TIM1 interrupt took place, inside
ARM GAS  C:\Users\jdcox\AppData\Local\Temp\cc24BuqZ.s 			page 26


 525:Core/Src/main.c ****   * HAL_TIM_IRQHandler(). It makes a direct call to HAL_IncTick() to increment
 526:Core/Src/main.c ****   * a global variable "uwTick" used as application time base.
 527:Core/Src/main.c ****   * @param  htim : TIM handle
 528:Core/Src/main.c ****   * @retval None
 529:Core/Src/main.c ****   */
 530:Core/Src/main.c **** void HAL_TIM_PeriodElapsedCallback(TIM_HandleTypeDef *htim)
 531:Core/Src/main.c **** {
 745              		.loc 1 531 1 is_stmt 1 view -0
 746              		.cfi_startproc
 747              		@ args = 0, pretend = 0, frame = 0
 748              		@ frame_needed = 0, uses_anonymous_args = 0
 749              		.loc 1 531 1 is_stmt 0 view .LVU160
 750 0000 08B5     		push	{r3, lr}
 751              	.LCFI10:
 752              		.cfi_def_cfa_offset 8
 753              		.cfi_offset 3, -8
 754              		.cfi_offset 14, -4
 532:Core/Src/main.c ****   /* USER CODE BEGIN Callback 0 */
 533:Core/Src/main.c **** 
 534:Core/Src/main.c ****   /* USER CODE END Callback 0 */
 535:Core/Src/main.c ****   if (htim->Instance == TIM1) {
 755              		.loc 1 535 3 is_stmt 1 view .LVU161
 756              		.loc 1 535 11 is_stmt 0 view .LVU162
 757 0002 0268     		ldr	r2, [r0]
 758              		.loc 1 535 6 view .LVU163
 759 0004 034B     		ldr	r3, .L44
 760 0006 9A42     		cmp	r2, r3
 761 0008 00D0     		beq	.L43
 762              	.LVL55:
 763              	.L40:
 536:Core/Src/main.c ****     HAL_IncTick();
 537:Core/Src/main.c ****   }
 538:Core/Src/main.c ****   /* USER CODE BEGIN Callback 1 */
 539:Core/Src/main.c **** 
 540:Core/Src/main.c ****   /* USER CODE END Callback 1 */
 541:Core/Src/main.c **** }
 764              		.loc 1 541 1 view .LVU164
 765 000a 08BD     		pop	{r3, pc}
 766              	.LVL56:
 767              	.L43:
 536:Core/Src/main.c ****     HAL_IncTick();
 768              		.loc 1 536 5 is_stmt 1 view .LVU165
 769 000c FFF7FEFF 		bl	HAL_IncTick
 770              	.LVL57:
 771              		.loc 1 541 1 is_stmt 0 view .LVU166
 772 0010 FBE7     		b	.L40
 773              	.L45:
 774 0012 00BF     		.align	2
 775              	.L44:
 776 0014 00000140 		.word	1073807360
 777              		.cfi_endproc
 778              	.LFE147:
 780              		.section	.text.Error_Handler,"ax",%progbits
 781              		.align	1
 782              		.global	Error_Handler
 783              		.syntax unified
 784              		.thumb
ARM GAS  C:\Users\jdcox\AppData\Local\Temp\cc24BuqZ.s 			page 27


 785              		.thumb_func
 787              	Error_Handler:
 788              	.LFB148:
 542:Core/Src/main.c **** 
 543:Core/Src/main.c **** /**
 544:Core/Src/main.c ****   * @brief  This function is executed in case of error occurrence.
 545:Core/Src/main.c ****   * @retval None
 546:Core/Src/main.c ****   */
 547:Core/Src/main.c **** void Error_Handler(void)
 548:Core/Src/main.c **** {
 789              		.loc 1 548 1 is_stmt 1 view -0
 790              		.cfi_startproc
 791              		@ Volatile: function does not return.
 792              		@ args = 0, pretend = 0, frame = 0
 793              		@ frame_needed = 0, uses_anonymous_args = 0
 794              		@ link register save eliminated.
 549:Core/Src/main.c ****   /* USER CODE BEGIN Error_Handler_Debug */
 550:Core/Src/main.c ****   /* User can add his own implementation to report the HAL error return state */
 551:Core/Src/main.c ****   __disable_irq();
 795              		.loc 1 551 3 view .LVU168
 796              	.LBB8:
 797              	.LBI8:
 798              		.file 2 "Drivers/CMSIS/Include/cmsis_gcc.h"
   1:Drivers/CMSIS/Include/cmsis_gcc.h **** /**************************************************************************//**
   2:Drivers/CMSIS/Include/cmsis_gcc.h ****  * @file     cmsis_gcc.h
   3:Drivers/CMSIS/Include/cmsis_gcc.h ****  * @brief    CMSIS compiler GCC header file
   4:Drivers/CMSIS/Include/cmsis_gcc.h ****  * @version  V5.0.4
   5:Drivers/CMSIS/Include/cmsis_gcc.h ****  * @date     09. April 2018
   6:Drivers/CMSIS/Include/cmsis_gcc.h ****  ******************************************************************************/
   7:Drivers/CMSIS/Include/cmsis_gcc.h **** /*
   8:Drivers/CMSIS/Include/cmsis_gcc.h ****  * Copyright (c) 2009-2018 Arm Limited. All rights reserved.
   9:Drivers/CMSIS/Include/cmsis_gcc.h ****  *
  10:Drivers/CMSIS/Include/cmsis_gcc.h ****  * SPDX-License-Identifier: Apache-2.0
  11:Drivers/CMSIS/Include/cmsis_gcc.h ****  *
  12:Drivers/CMSIS/Include/cmsis_gcc.h ****  * Licensed under the Apache License, Version 2.0 (the License); you may
  13:Drivers/CMSIS/Include/cmsis_gcc.h ****  * not use this file except in compliance with the License.
  14:Drivers/CMSIS/Include/cmsis_gcc.h ****  * You may obtain a copy of the License at
  15:Drivers/CMSIS/Include/cmsis_gcc.h ****  *
  16:Drivers/CMSIS/Include/cmsis_gcc.h ****  * www.apache.org/licenses/LICENSE-2.0
  17:Drivers/CMSIS/Include/cmsis_gcc.h ****  *
  18:Drivers/CMSIS/Include/cmsis_gcc.h ****  * Unless required by applicable law or agreed to in writing, software
  19:Drivers/CMSIS/Include/cmsis_gcc.h ****  * distributed under the License is distributed on an AS IS BASIS, WITHOUT
  20:Drivers/CMSIS/Include/cmsis_gcc.h ****  * WARRANTIES OR CONDITIONS OF ANY KIND, either express or implied.
  21:Drivers/CMSIS/Include/cmsis_gcc.h ****  * See the License for the specific language governing permissions and
  22:Drivers/CMSIS/Include/cmsis_gcc.h ****  * limitations under the License.
  23:Drivers/CMSIS/Include/cmsis_gcc.h ****  */
  24:Drivers/CMSIS/Include/cmsis_gcc.h **** 
  25:Drivers/CMSIS/Include/cmsis_gcc.h **** #ifndef __CMSIS_GCC_H
  26:Drivers/CMSIS/Include/cmsis_gcc.h **** #define __CMSIS_GCC_H
  27:Drivers/CMSIS/Include/cmsis_gcc.h **** 
  28:Drivers/CMSIS/Include/cmsis_gcc.h **** /* ignore some GCC warnings */
  29:Drivers/CMSIS/Include/cmsis_gcc.h **** #pragma GCC diagnostic push
  30:Drivers/CMSIS/Include/cmsis_gcc.h **** #pragma GCC diagnostic ignored "-Wsign-conversion"
  31:Drivers/CMSIS/Include/cmsis_gcc.h **** #pragma GCC diagnostic ignored "-Wconversion"
  32:Drivers/CMSIS/Include/cmsis_gcc.h **** #pragma GCC diagnostic ignored "-Wunused-parameter"
  33:Drivers/CMSIS/Include/cmsis_gcc.h **** 
  34:Drivers/CMSIS/Include/cmsis_gcc.h **** /* Fallback for __has_builtin */
ARM GAS  C:\Users\jdcox\AppData\Local\Temp\cc24BuqZ.s 			page 28


  35:Drivers/CMSIS/Include/cmsis_gcc.h **** #ifndef __has_builtin
  36:Drivers/CMSIS/Include/cmsis_gcc.h ****   #define __has_builtin(x) (0)
  37:Drivers/CMSIS/Include/cmsis_gcc.h **** #endif
  38:Drivers/CMSIS/Include/cmsis_gcc.h **** 
  39:Drivers/CMSIS/Include/cmsis_gcc.h **** /* CMSIS compiler specific defines */
  40:Drivers/CMSIS/Include/cmsis_gcc.h **** #ifndef   __ASM
  41:Drivers/CMSIS/Include/cmsis_gcc.h ****   #define __ASM                                  __asm
  42:Drivers/CMSIS/Include/cmsis_gcc.h **** #endif
  43:Drivers/CMSIS/Include/cmsis_gcc.h **** #ifndef   __INLINE
  44:Drivers/CMSIS/Include/cmsis_gcc.h ****   #define __INLINE                               inline
  45:Drivers/CMSIS/Include/cmsis_gcc.h **** #endif
  46:Drivers/CMSIS/Include/cmsis_gcc.h **** #ifndef   __STATIC_INLINE
  47:Drivers/CMSIS/Include/cmsis_gcc.h ****   #define __STATIC_INLINE                        static inline
  48:Drivers/CMSIS/Include/cmsis_gcc.h **** #endif
  49:Drivers/CMSIS/Include/cmsis_gcc.h **** #ifndef   __STATIC_FORCEINLINE                 
  50:Drivers/CMSIS/Include/cmsis_gcc.h ****   #define __STATIC_FORCEINLINE                   __attribute__((always_inline)) static inline
  51:Drivers/CMSIS/Include/cmsis_gcc.h **** #endif                                           
  52:Drivers/CMSIS/Include/cmsis_gcc.h **** #ifndef   __NO_RETURN
  53:Drivers/CMSIS/Include/cmsis_gcc.h ****   #define __NO_RETURN                            __attribute__((__noreturn__))
  54:Drivers/CMSIS/Include/cmsis_gcc.h **** #endif
  55:Drivers/CMSIS/Include/cmsis_gcc.h **** #ifndef   __USED
  56:Drivers/CMSIS/Include/cmsis_gcc.h ****   #define __USED                                 __attribute__((used))
  57:Drivers/CMSIS/Include/cmsis_gcc.h **** #endif
  58:Drivers/CMSIS/Include/cmsis_gcc.h **** #ifndef   __WEAK
  59:Drivers/CMSIS/Include/cmsis_gcc.h ****   #define __WEAK                                 __attribute__((weak))
  60:Drivers/CMSIS/Include/cmsis_gcc.h **** #endif
  61:Drivers/CMSIS/Include/cmsis_gcc.h **** #ifndef   __PACKED
  62:Drivers/CMSIS/Include/cmsis_gcc.h ****   #define __PACKED                               __attribute__((packed, aligned(1)))
  63:Drivers/CMSIS/Include/cmsis_gcc.h **** #endif
  64:Drivers/CMSIS/Include/cmsis_gcc.h **** #ifndef   __PACKED_STRUCT
  65:Drivers/CMSIS/Include/cmsis_gcc.h ****   #define __PACKED_STRUCT                        struct __attribute__((packed, aligned(1)))
  66:Drivers/CMSIS/Include/cmsis_gcc.h **** #endif
  67:Drivers/CMSIS/Include/cmsis_gcc.h **** #ifndef   __PACKED_UNION
  68:Drivers/CMSIS/Include/cmsis_gcc.h ****   #define __PACKED_UNION                         union __attribute__((packed, aligned(1)))
  69:Drivers/CMSIS/Include/cmsis_gcc.h **** #endif
  70:Drivers/CMSIS/Include/cmsis_gcc.h **** #ifndef   __UNALIGNED_UINT32        /* deprecated */
  71:Drivers/CMSIS/Include/cmsis_gcc.h ****   #pragma GCC diagnostic push
  72:Drivers/CMSIS/Include/cmsis_gcc.h ****   #pragma GCC diagnostic ignored "-Wpacked"
  73:Drivers/CMSIS/Include/cmsis_gcc.h ****   #pragma GCC diagnostic ignored "-Wattributes"
  74:Drivers/CMSIS/Include/cmsis_gcc.h ****   struct __attribute__((packed)) T_UINT32 { uint32_t v; };
  75:Drivers/CMSIS/Include/cmsis_gcc.h ****   #pragma GCC diagnostic pop
  76:Drivers/CMSIS/Include/cmsis_gcc.h ****   #define __UNALIGNED_UINT32(x)                  (((struct T_UINT32 *)(x))->v)
  77:Drivers/CMSIS/Include/cmsis_gcc.h **** #endif
  78:Drivers/CMSIS/Include/cmsis_gcc.h **** #ifndef   __UNALIGNED_UINT16_WRITE
  79:Drivers/CMSIS/Include/cmsis_gcc.h ****   #pragma GCC diagnostic push
  80:Drivers/CMSIS/Include/cmsis_gcc.h ****   #pragma GCC diagnostic ignored "-Wpacked"
  81:Drivers/CMSIS/Include/cmsis_gcc.h ****   #pragma GCC diagnostic ignored "-Wattributes"
  82:Drivers/CMSIS/Include/cmsis_gcc.h ****   __PACKED_STRUCT T_UINT16_WRITE { uint16_t v; };
  83:Drivers/CMSIS/Include/cmsis_gcc.h ****   #pragma GCC diagnostic pop
  84:Drivers/CMSIS/Include/cmsis_gcc.h ****   #define __UNALIGNED_UINT16_WRITE(addr, val)    (void)((((struct T_UINT16_WRITE *)(void *)(addr))-
  85:Drivers/CMSIS/Include/cmsis_gcc.h **** #endif
  86:Drivers/CMSIS/Include/cmsis_gcc.h **** #ifndef   __UNALIGNED_UINT16_READ
  87:Drivers/CMSIS/Include/cmsis_gcc.h ****   #pragma GCC diagnostic push
  88:Drivers/CMSIS/Include/cmsis_gcc.h ****   #pragma GCC diagnostic ignored "-Wpacked"
  89:Drivers/CMSIS/Include/cmsis_gcc.h ****   #pragma GCC diagnostic ignored "-Wattributes"
  90:Drivers/CMSIS/Include/cmsis_gcc.h ****   __PACKED_STRUCT T_UINT16_READ { uint16_t v; };
  91:Drivers/CMSIS/Include/cmsis_gcc.h ****   #pragma GCC diagnostic pop
ARM GAS  C:\Users\jdcox\AppData\Local\Temp\cc24BuqZ.s 			page 29


  92:Drivers/CMSIS/Include/cmsis_gcc.h ****   #define __UNALIGNED_UINT16_READ(addr)          (((const struct T_UINT16_READ *)(const void *)(add
  93:Drivers/CMSIS/Include/cmsis_gcc.h **** #endif
  94:Drivers/CMSIS/Include/cmsis_gcc.h **** #ifndef   __UNALIGNED_UINT32_WRITE
  95:Drivers/CMSIS/Include/cmsis_gcc.h ****   #pragma GCC diagnostic push
  96:Drivers/CMSIS/Include/cmsis_gcc.h ****   #pragma GCC diagnostic ignored "-Wpacked"
  97:Drivers/CMSIS/Include/cmsis_gcc.h ****   #pragma GCC diagnostic ignored "-Wattributes"
  98:Drivers/CMSIS/Include/cmsis_gcc.h ****   __PACKED_STRUCT T_UINT32_WRITE { uint32_t v; };
  99:Drivers/CMSIS/Include/cmsis_gcc.h ****   #pragma GCC diagnostic pop
 100:Drivers/CMSIS/Include/cmsis_gcc.h ****   #define __UNALIGNED_UINT32_WRITE(addr, val)    (void)((((struct T_UINT32_WRITE *)(void *)(addr))-
 101:Drivers/CMSIS/Include/cmsis_gcc.h **** #endif
 102:Drivers/CMSIS/Include/cmsis_gcc.h **** #ifndef   __UNALIGNED_UINT32_READ
 103:Drivers/CMSIS/Include/cmsis_gcc.h ****   #pragma GCC diagnostic push
 104:Drivers/CMSIS/Include/cmsis_gcc.h ****   #pragma GCC diagnostic ignored "-Wpacked"
 105:Drivers/CMSIS/Include/cmsis_gcc.h ****   #pragma GCC diagnostic ignored "-Wattributes"
 106:Drivers/CMSIS/Include/cmsis_gcc.h ****   __PACKED_STRUCT T_UINT32_READ { uint32_t v; };
 107:Drivers/CMSIS/Include/cmsis_gcc.h ****   #pragma GCC diagnostic pop
 108:Drivers/CMSIS/Include/cmsis_gcc.h ****   #define __UNALIGNED_UINT32_READ(addr)          (((const struct T_UINT32_READ *)(const void *)(add
 109:Drivers/CMSIS/Include/cmsis_gcc.h **** #endif
 110:Drivers/CMSIS/Include/cmsis_gcc.h **** #ifndef   __ALIGNED
 111:Drivers/CMSIS/Include/cmsis_gcc.h ****   #define __ALIGNED(x)                           __attribute__((aligned(x)))
 112:Drivers/CMSIS/Include/cmsis_gcc.h **** #endif
 113:Drivers/CMSIS/Include/cmsis_gcc.h **** #ifndef   __RESTRICT
 114:Drivers/CMSIS/Include/cmsis_gcc.h ****   #define __RESTRICT                             __restrict
 115:Drivers/CMSIS/Include/cmsis_gcc.h **** #endif
 116:Drivers/CMSIS/Include/cmsis_gcc.h **** 
 117:Drivers/CMSIS/Include/cmsis_gcc.h **** 
 118:Drivers/CMSIS/Include/cmsis_gcc.h **** /* ###########################  Core Function Access  ########################### */
 119:Drivers/CMSIS/Include/cmsis_gcc.h **** /** \ingroup  CMSIS_Core_FunctionInterface
 120:Drivers/CMSIS/Include/cmsis_gcc.h ****     \defgroup CMSIS_Core_RegAccFunctions CMSIS Core Register Access Functions
 121:Drivers/CMSIS/Include/cmsis_gcc.h ****   @{
 122:Drivers/CMSIS/Include/cmsis_gcc.h ****  */
 123:Drivers/CMSIS/Include/cmsis_gcc.h **** 
 124:Drivers/CMSIS/Include/cmsis_gcc.h **** /**
 125:Drivers/CMSIS/Include/cmsis_gcc.h ****   \brief   Enable IRQ Interrupts
 126:Drivers/CMSIS/Include/cmsis_gcc.h ****   \details Enables IRQ interrupts by clearing the I-bit in the CPSR.
 127:Drivers/CMSIS/Include/cmsis_gcc.h ****            Can only be executed in Privileged modes.
 128:Drivers/CMSIS/Include/cmsis_gcc.h ****  */
 129:Drivers/CMSIS/Include/cmsis_gcc.h **** __STATIC_FORCEINLINE void __enable_irq(void)
 130:Drivers/CMSIS/Include/cmsis_gcc.h **** {
 131:Drivers/CMSIS/Include/cmsis_gcc.h ****   __ASM volatile ("cpsie i" : : : "memory");
 132:Drivers/CMSIS/Include/cmsis_gcc.h **** }
 133:Drivers/CMSIS/Include/cmsis_gcc.h **** 
 134:Drivers/CMSIS/Include/cmsis_gcc.h **** 
 135:Drivers/CMSIS/Include/cmsis_gcc.h **** /**
 136:Drivers/CMSIS/Include/cmsis_gcc.h ****   \brief   Disable IRQ Interrupts
 137:Drivers/CMSIS/Include/cmsis_gcc.h ****   \details Disables IRQ interrupts by setting the I-bit in the CPSR.
 138:Drivers/CMSIS/Include/cmsis_gcc.h ****            Can only be executed in Privileged modes.
 139:Drivers/CMSIS/Include/cmsis_gcc.h ****  */
 140:Drivers/CMSIS/Include/cmsis_gcc.h **** __STATIC_FORCEINLINE void __disable_irq(void)
 799              		.loc 2 140 27 view .LVU169
 800              	.LBB9:
 141:Drivers/CMSIS/Include/cmsis_gcc.h **** {
 142:Drivers/CMSIS/Include/cmsis_gcc.h ****   __ASM volatile ("cpsid i" : : : "memory");
 801              		.loc 2 142 3 view .LVU170
 802              		.syntax unified
 803              	@ 142 "Drivers/CMSIS/Include/cmsis_gcc.h" 1
 804 0000 72B6     		cpsid i
ARM GAS  C:\Users\jdcox\AppData\Local\Temp\cc24BuqZ.s 			page 30


 805              	@ 0 "" 2
 806              		.thumb
 807              		.syntax unified
 808              	.L47:
 809              	.LBE9:
 810              	.LBE8:
 552:Core/Src/main.c ****   while (1)
 811              		.loc 1 552 3 discriminator 1 view .LVU171
 553:Core/Src/main.c ****   {
 554:Core/Src/main.c ****   }
 812              		.loc 1 554 3 discriminator 1 view .LVU172
 552:Core/Src/main.c ****   while (1)
 813              		.loc 1 552 9 discriminator 1 view .LVU173
 814 0002 FEE7     		b	.L47
 815              		.cfi_endproc
 816              	.LFE148:
 818              		.section	.text.MX_SPI1_Init,"ax",%progbits
 819              		.align	1
 820              		.syntax unified
 821              		.thumb
 822              		.thumb_func
 824              	MX_SPI1_Init:
 825              	.LFB138:
 263:Core/Src/main.c **** 
 826              		.loc 1 263 1 view -0
 827              		.cfi_startproc
 828              		@ args = 0, pretend = 0, frame = 0
 829              		@ frame_needed = 0, uses_anonymous_args = 0
 830 0000 08B5     		push	{r3, lr}
 831              	.LCFI11:
 832              		.cfi_def_cfa_offset 8
 833              		.cfi_offset 3, -8
 834              		.cfi_offset 14, -4
 273:Core/Src/main.c ****   hspi1.Init.Mode = SPI_MODE_MASTER;
 835              		.loc 1 273 3 view .LVU175
 273:Core/Src/main.c ****   hspi1.Init.Mode = SPI_MODE_MASTER;
 836              		.loc 1 273 18 is_stmt 0 view .LVU176
 837 0002 0D48     		ldr	r0, .L52
 838 0004 0D4B     		ldr	r3, .L52+4
 839 0006 0360     		str	r3, [r0]
 274:Core/Src/main.c ****   hspi1.Init.Direction = SPI_DIRECTION_2LINES;
 840              		.loc 1 274 3 is_stmt 1 view .LVU177
 274:Core/Src/main.c ****   hspi1.Init.Direction = SPI_DIRECTION_2LINES;
 841              		.loc 1 274 19 is_stmt 0 view .LVU178
 842 0008 4FF48273 		mov	r3, #260
 843 000c 4360     		str	r3, [r0, #4]
 275:Core/Src/main.c ****   hspi1.Init.DataSize = SPI_DATASIZE_8BIT;
 844              		.loc 1 275 3 is_stmt 1 view .LVU179
 275:Core/Src/main.c ****   hspi1.Init.DataSize = SPI_DATASIZE_8BIT;
 845              		.loc 1 275 24 is_stmt 0 view .LVU180
 846 000e 0023     		movs	r3, #0
 847 0010 8360     		str	r3, [r0, #8]
 276:Core/Src/main.c ****   hspi1.Init.CLKPolarity = SPI_POLARITY_LOW;
 848              		.loc 1 276 3 is_stmt 1 view .LVU181
 276:Core/Src/main.c ****   hspi1.Init.CLKPolarity = SPI_POLARITY_LOW;
 849              		.loc 1 276 23 is_stmt 0 view .LVU182
 850 0012 C360     		str	r3, [r0, #12]
ARM GAS  C:\Users\jdcox\AppData\Local\Temp\cc24BuqZ.s 			page 31


 277:Core/Src/main.c ****   hspi1.Init.CLKPhase = SPI_PHASE_1EDGE;
 851              		.loc 1 277 3 is_stmt 1 view .LVU183
 277:Core/Src/main.c ****   hspi1.Init.CLKPhase = SPI_PHASE_1EDGE;
 852              		.loc 1 277 26 is_stmt 0 view .LVU184
 853 0014 0361     		str	r3, [r0, #16]
 278:Core/Src/main.c ****   hspi1.Init.NSS = SPI_NSS_SOFT;
 854              		.loc 1 278 3 is_stmt 1 view .LVU185
 278:Core/Src/main.c ****   hspi1.Init.NSS = SPI_NSS_SOFT;
 855              		.loc 1 278 23 is_stmt 0 view .LVU186
 856 0016 4361     		str	r3, [r0, #20]
 279:Core/Src/main.c ****   hspi1.Init.BaudRatePrescaler = SPI_BAUDRATEPRESCALER_16;
 857              		.loc 1 279 3 is_stmt 1 view .LVU187
 279:Core/Src/main.c ****   hspi1.Init.BaudRatePrescaler = SPI_BAUDRATEPRESCALER_16;
 858              		.loc 1 279 18 is_stmt 0 view .LVU188
 859 0018 4FF40072 		mov	r2, #512
 860 001c 8261     		str	r2, [r0, #24]
 280:Core/Src/main.c ****   hspi1.Init.FirstBit = SPI_FIRSTBIT_MSB;
 861              		.loc 1 280 3 is_stmt 1 view .LVU189
 280:Core/Src/main.c ****   hspi1.Init.FirstBit = SPI_FIRSTBIT_MSB;
 862              		.loc 1 280 32 is_stmt 0 view .LVU190
 863 001e 1822     		movs	r2, #24
 864 0020 C261     		str	r2, [r0, #28]
 281:Core/Src/main.c ****   hspi1.Init.TIMode = SPI_TIMODE_DISABLE;
 865              		.loc 1 281 3 is_stmt 1 view .LVU191
 281:Core/Src/main.c ****   hspi1.Init.TIMode = SPI_TIMODE_DISABLE;
 866              		.loc 1 281 23 is_stmt 0 view .LVU192
 867 0022 0362     		str	r3, [r0, #32]
 282:Core/Src/main.c ****   hspi1.Init.CRCCalculation = SPI_CRCCALCULATION_DISABLE;
 868              		.loc 1 282 3 is_stmt 1 view .LVU193
 282:Core/Src/main.c ****   hspi1.Init.CRCCalculation = SPI_CRCCALCULATION_DISABLE;
 869              		.loc 1 282 21 is_stmt 0 view .LVU194
 870 0024 4362     		str	r3, [r0, #36]
 283:Core/Src/main.c ****   hspi1.Init.CRCPolynomial = 10;
 871              		.loc 1 283 3 is_stmt 1 view .LVU195
 283:Core/Src/main.c ****   hspi1.Init.CRCPolynomial = 10;
 872              		.loc 1 283 29 is_stmt 0 view .LVU196
 873 0026 8362     		str	r3, [r0, #40]
 284:Core/Src/main.c ****   if (HAL_SPI_Init(&hspi1) != HAL_OK)
 874              		.loc 1 284 3 is_stmt 1 view .LVU197
 284:Core/Src/main.c ****   if (HAL_SPI_Init(&hspi1) != HAL_OK)
 875              		.loc 1 284 28 is_stmt 0 view .LVU198
 876 0028 0A23     		movs	r3, #10
 877 002a C362     		str	r3, [r0, #44]
 285:Core/Src/main.c ****   {
 878              		.loc 1 285 3 is_stmt 1 view .LVU199
 285:Core/Src/main.c ****   {
 879              		.loc 1 285 7 is_stmt 0 view .LVU200
 880 002c FFF7FEFF 		bl	HAL_SPI_Init
 881              	.LVL58:
 285:Core/Src/main.c ****   {
 882              		.loc 1 285 6 view .LVU201
 883 0030 00B9     		cbnz	r0, .L51
 293:Core/Src/main.c **** 
 884              		.loc 1 293 1 view .LVU202
 885 0032 08BD     		pop	{r3, pc}
 886              	.L51:
 287:Core/Src/main.c ****   }
ARM GAS  C:\Users\jdcox\AppData\Local\Temp\cc24BuqZ.s 			page 32


 887              		.loc 1 287 5 is_stmt 1 view .LVU203
 888 0034 FFF7FEFF 		bl	Error_Handler
 889              	.LVL59:
 890              	.L53:
 891              		.align	2
 892              	.L52:
 893 0038 00000000 		.word	.LANCHOR1
 894 003c 00300140 		.word	1073819648
 895              		.cfi_endproc
 896              	.LFE138:
 898              		.section	.text.MX_I2C1_Init,"ax",%progbits
 899              		.align	1
 900              		.syntax unified
 901              		.thumb
 902              		.thumb_func
 904              	MX_I2C1_Init:
 905              	.LFB137:
 229:Core/Src/main.c **** 
 906              		.loc 1 229 1 view -0
 907              		.cfi_startproc
 908              		@ args = 0, pretend = 0, frame = 0
 909              		@ frame_needed = 0, uses_anonymous_args = 0
 910 0000 08B5     		push	{r3, lr}
 911              	.LCFI12:
 912              		.cfi_def_cfa_offset 8
 913              		.cfi_offset 3, -8
 914              		.cfi_offset 14, -4
 238:Core/Src/main.c ****   hi2c1.Init.ClockSpeed = 100000;
 915              		.loc 1 238 3 view .LVU205
 238:Core/Src/main.c ****   hi2c1.Init.ClockSpeed = 100000;
 916              		.loc 1 238 18 is_stmt 0 view .LVU206
 917 0002 0B48     		ldr	r0, .L58
 918 0004 0B4B     		ldr	r3, .L58+4
 919 0006 0360     		str	r3, [r0]
 239:Core/Src/main.c ****   hi2c1.Init.DutyCycle = I2C_DUTYCYCLE_2;
 920              		.loc 1 239 3 is_stmt 1 view .LVU207
 239:Core/Src/main.c ****   hi2c1.Init.DutyCycle = I2C_DUTYCYCLE_2;
 921              		.loc 1 239 25 is_stmt 0 view .LVU208
 922 0008 0B4B     		ldr	r3, .L58+8
 923 000a 4360     		str	r3, [r0, #4]
 240:Core/Src/main.c ****   hi2c1.Init.OwnAddress1 = 78;
 924              		.loc 1 240 3 is_stmt 1 view .LVU209
 240:Core/Src/main.c ****   hi2c1.Init.OwnAddress1 = 78;
 925              		.loc 1 240 24 is_stmt 0 view .LVU210
 926 000c 0023     		movs	r3, #0
 927 000e 8360     		str	r3, [r0, #8]
 241:Core/Src/main.c ****   hi2c1.Init.AddressingMode = I2C_ADDRESSINGMODE_7BIT;
 928              		.loc 1 241 3 is_stmt 1 view .LVU211
 241:Core/Src/main.c ****   hi2c1.Init.AddressingMode = I2C_ADDRESSINGMODE_7BIT;
 929              		.loc 1 241 26 is_stmt 0 view .LVU212
 930 0010 4E22     		movs	r2, #78
 931 0012 C260     		str	r2, [r0, #12]
 242:Core/Src/main.c ****   hi2c1.Init.DualAddressMode = I2C_DUALADDRESS_DISABLE;
 932              		.loc 1 242 3 is_stmt 1 view .LVU213
 242:Core/Src/main.c ****   hi2c1.Init.DualAddressMode = I2C_DUALADDRESS_DISABLE;
 933              		.loc 1 242 29 is_stmt 0 view .LVU214
 934 0014 4FF48042 		mov	r2, #16384
ARM GAS  C:\Users\jdcox\AppData\Local\Temp\cc24BuqZ.s 			page 33


 935 0018 0261     		str	r2, [r0, #16]
 243:Core/Src/main.c ****   hi2c1.Init.OwnAddress2 = 0;
 936              		.loc 1 243 3 is_stmt 1 view .LVU215
 243:Core/Src/main.c ****   hi2c1.Init.OwnAddress2 = 0;
 937              		.loc 1 243 30 is_stmt 0 view .LVU216
 938 001a 4361     		str	r3, [r0, #20]
 244:Core/Src/main.c ****   hi2c1.Init.GeneralCallMode = I2C_GENERALCALL_DISABLE;
 939              		.loc 1 244 3 is_stmt 1 view .LVU217
 244:Core/Src/main.c ****   hi2c1.Init.GeneralCallMode = I2C_GENERALCALL_DISABLE;
 940              		.loc 1 244 26 is_stmt 0 view .LVU218
 941 001c 8361     		str	r3, [r0, #24]
 245:Core/Src/main.c ****   hi2c1.Init.NoStretchMode = I2C_NOSTRETCH_DISABLE;
 942              		.loc 1 245 3 is_stmt 1 view .LVU219
 245:Core/Src/main.c ****   hi2c1.Init.NoStretchMode = I2C_NOSTRETCH_DISABLE;
 943              		.loc 1 245 30 is_stmt 0 view .LVU220
 944 001e C361     		str	r3, [r0, #28]
 246:Core/Src/main.c ****   if (HAL_I2C_Init(&hi2c1) != HAL_OK)
 945              		.loc 1 246 3 is_stmt 1 view .LVU221
 246:Core/Src/main.c ****   if (HAL_I2C_Init(&hi2c1) != HAL_OK)
 946              		.loc 1 246 28 is_stmt 0 view .LVU222
 947 0020 0362     		str	r3, [r0, #32]
 247:Core/Src/main.c ****   {
 948              		.loc 1 247 3 is_stmt 1 view .LVU223
 247:Core/Src/main.c ****   {
 949              		.loc 1 247 7 is_stmt 0 view .LVU224
 950 0022 FFF7FEFF 		bl	HAL_I2C_Init
 951              	.LVL60:
 247:Core/Src/main.c ****   {
 952              		.loc 1 247 6 view .LVU225
 953 0026 00B9     		cbnz	r0, .L57
 255:Core/Src/main.c **** 
 954              		.loc 1 255 1 view .LVU226
 955 0028 08BD     		pop	{r3, pc}
 956              	.L57:
 249:Core/Src/main.c ****   }
 957              		.loc 1 249 5 is_stmt 1 view .LVU227
 958 002a FFF7FEFF 		bl	Error_Handler
 959              	.LVL61:
 960              	.L59:
 961 002e 00BF     		.align	2
 962              	.L58:
 963 0030 00000000 		.word	.LANCHOR2
 964 0034 00540040 		.word	1073763328
 965 0038 A0860100 		.word	100000
 966              		.cfi_endproc
 967              	.LFE137:
 969              		.section	.text.SystemClock_Config,"ax",%progbits
 970              		.align	1
 971              		.global	SystemClock_Config
 972              		.syntax unified
 973              		.thumb
 974              		.thumb_func
 976              	SystemClock_Config:
 977              	.LFB136:
 183:Core/Src/main.c ****   RCC_OscInitTypeDef RCC_OscInitStruct = {0};
 978              		.loc 1 183 1 view -0
 979              		.cfi_startproc
ARM GAS  C:\Users\jdcox\AppData\Local\Temp\cc24BuqZ.s 			page 34


 980              		@ args = 0, pretend = 0, frame = 80
 981              		@ frame_needed = 0, uses_anonymous_args = 0
 982 0000 00B5     		push	{lr}
 983              	.LCFI13:
 984              		.cfi_def_cfa_offset 4
 985              		.cfi_offset 14, -4
 986 0002 95B0     		sub	sp, sp, #84
 987              	.LCFI14:
 988              		.cfi_def_cfa_offset 88
 184:Core/Src/main.c ****   RCC_ClkInitTypeDef RCC_ClkInitStruct = {0};
 989              		.loc 1 184 3 view .LVU229
 184:Core/Src/main.c ****   RCC_ClkInitTypeDef RCC_ClkInitStruct = {0};
 990              		.loc 1 184 22 is_stmt 0 view .LVU230
 991 0004 3022     		movs	r2, #48
 992 0006 0021     		movs	r1, #0
 993 0008 08A8     		add	r0, sp, #32
 994 000a FFF7FEFF 		bl	memset
 995              	.LVL62:
 185:Core/Src/main.c **** 
 996              		.loc 1 185 3 is_stmt 1 view .LVU231
 185:Core/Src/main.c **** 
 997              		.loc 1 185 22 is_stmt 0 view .LVU232
 998 000e 0023     		movs	r3, #0
 999 0010 0393     		str	r3, [sp, #12]
 1000 0012 0493     		str	r3, [sp, #16]
 1001 0014 0593     		str	r3, [sp, #20]
 1002 0016 0693     		str	r3, [sp, #24]
 1003 0018 0793     		str	r3, [sp, #28]
 189:Core/Src/main.c ****   __HAL_PWR_VOLTAGESCALING_CONFIG(PWR_REGULATOR_VOLTAGE_SCALE2);
 1004              		.loc 1 189 3 is_stmt 1 view .LVU233
 1005              	.LBB10:
 189:Core/Src/main.c ****   __HAL_PWR_VOLTAGESCALING_CONFIG(PWR_REGULATOR_VOLTAGE_SCALE2);
 1006              		.loc 1 189 3 view .LVU234
 1007 001a 0193     		str	r3, [sp, #4]
 189:Core/Src/main.c ****   __HAL_PWR_VOLTAGESCALING_CONFIG(PWR_REGULATOR_VOLTAGE_SCALE2);
 1008              		.loc 1 189 3 view .LVU235
 1009 001c 214A     		ldr	r2, .L66
 1010 001e 116C     		ldr	r1, [r2, #64]
 1011 0020 41F08051 		orr	r1, r1, #268435456
 1012 0024 1164     		str	r1, [r2, #64]
 189:Core/Src/main.c ****   __HAL_PWR_VOLTAGESCALING_CONFIG(PWR_REGULATOR_VOLTAGE_SCALE2);
 1013              		.loc 1 189 3 view .LVU236
 1014 0026 126C     		ldr	r2, [r2, #64]
 1015 0028 02F08052 		and	r2, r2, #268435456
 1016 002c 0192     		str	r2, [sp, #4]
 189:Core/Src/main.c ****   __HAL_PWR_VOLTAGESCALING_CONFIG(PWR_REGULATOR_VOLTAGE_SCALE2);
 1017              		.loc 1 189 3 view .LVU237
 1018 002e 019A     		ldr	r2, [sp, #4]
 1019              	.LBE10:
 189:Core/Src/main.c ****   __HAL_PWR_VOLTAGESCALING_CONFIG(PWR_REGULATOR_VOLTAGE_SCALE2);
 1020              		.loc 1 189 3 view .LVU238
 190:Core/Src/main.c **** 
 1021              		.loc 1 190 3 view .LVU239
 1022              	.LBB11:
 190:Core/Src/main.c **** 
 1023              		.loc 1 190 3 view .LVU240
 1024 0030 0293     		str	r3, [sp, #8]
ARM GAS  C:\Users\jdcox\AppData\Local\Temp\cc24BuqZ.s 			page 35


 190:Core/Src/main.c **** 
 1025              		.loc 1 190 3 view .LVU241
 1026 0032 1D4A     		ldr	r2, .L66+4
 1027 0034 1368     		ldr	r3, [r2]
 1028 0036 23F44043 		bic	r3, r3, #49152
 1029 003a 43F40043 		orr	r3, r3, #32768
 1030 003e 1360     		str	r3, [r2]
 190:Core/Src/main.c **** 
 1031              		.loc 1 190 3 view .LVU242
 1032 0040 1368     		ldr	r3, [r2]
 1033 0042 03F44043 		and	r3, r3, #49152
 1034 0046 0293     		str	r3, [sp, #8]
 190:Core/Src/main.c **** 
 1035              		.loc 1 190 3 view .LVU243
 1036 0048 029B     		ldr	r3, [sp, #8]
 1037              	.LBE11:
 190:Core/Src/main.c **** 
 1038              		.loc 1 190 3 view .LVU244
 195:Core/Src/main.c ****   RCC_OscInitStruct.HSEState = RCC_HSE_ON;
 1039              		.loc 1 195 3 view .LVU245
 195:Core/Src/main.c ****   RCC_OscInitStruct.HSEState = RCC_HSE_ON;
 1040              		.loc 1 195 36 is_stmt 0 view .LVU246
 1041 004a 0123     		movs	r3, #1
 1042 004c 0893     		str	r3, [sp, #32]
 196:Core/Src/main.c ****   RCC_OscInitStruct.PLL.PLLState = RCC_PLL_ON;
 1043              		.loc 1 196 3 is_stmt 1 view .LVU247
 196:Core/Src/main.c ****   RCC_OscInitStruct.PLL.PLLState = RCC_PLL_ON;
 1044              		.loc 1 196 30 is_stmt 0 view .LVU248
 1045 004e 4FF48033 		mov	r3, #65536
 1046 0052 0993     		str	r3, [sp, #36]
 197:Core/Src/main.c ****   RCC_OscInitStruct.PLL.PLLSource = RCC_PLLSOURCE_HSE;
 1047              		.loc 1 197 3 is_stmt 1 view .LVU249
 197:Core/Src/main.c ****   RCC_OscInitStruct.PLL.PLLSource = RCC_PLLSOURCE_HSE;
 1048              		.loc 1 197 34 is_stmt 0 view .LVU250
 1049 0054 0223     		movs	r3, #2
 1050 0056 0E93     		str	r3, [sp, #56]
 198:Core/Src/main.c ****   RCC_OscInitStruct.PLL.PLLM = 25;
 1051              		.loc 1 198 3 is_stmt 1 view .LVU251
 198:Core/Src/main.c ****   RCC_OscInitStruct.PLL.PLLM = 25;
 1052              		.loc 1 198 35 is_stmt 0 view .LVU252
 1053 0058 4FF48003 		mov	r3, #4194304
 1054 005c 0F93     		str	r3, [sp, #60]
 199:Core/Src/main.c ****   RCC_OscInitStruct.PLL.PLLN = 336;
 1055              		.loc 1 199 3 is_stmt 1 view .LVU253
 199:Core/Src/main.c ****   RCC_OscInitStruct.PLL.PLLN = 336;
 1056              		.loc 1 199 30 is_stmt 0 view .LVU254
 1057 005e 1923     		movs	r3, #25
 1058 0060 1093     		str	r3, [sp, #64]
 200:Core/Src/main.c ****   RCC_OscInitStruct.PLL.PLLP = RCC_PLLP_DIV4;
 1059              		.loc 1 200 3 is_stmt 1 view .LVU255
 200:Core/Src/main.c ****   RCC_OscInitStruct.PLL.PLLP = RCC_PLLP_DIV4;
 1060              		.loc 1 200 30 is_stmt 0 view .LVU256
 1061 0062 4FF4A873 		mov	r3, #336
 1062 0066 1193     		str	r3, [sp, #68]
 201:Core/Src/main.c ****   RCC_OscInitStruct.PLL.PLLQ = 7;
 1063              		.loc 1 201 3 is_stmt 1 view .LVU257
 201:Core/Src/main.c ****   RCC_OscInitStruct.PLL.PLLQ = 7;
ARM GAS  C:\Users\jdcox\AppData\Local\Temp\cc24BuqZ.s 			page 36


 1064              		.loc 1 201 30 is_stmt 0 view .LVU258
 1065 0068 0423     		movs	r3, #4
 1066 006a 1293     		str	r3, [sp, #72]
 202:Core/Src/main.c ****   if (HAL_RCC_OscConfig(&RCC_OscInitStruct) != HAL_OK)
 1067              		.loc 1 202 3 is_stmt 1 view .LVU259
 202:Core/Src/main.c ****   if (HAL_RCC_OscConfig(&RCC_OscInitStruct) != HAL_OK)
 1068              		.loc 1 202 30 is_stmt 0 view .LVU260
 1069 006c 0723     		movs	r3, #7
 1070 006e 1393     		str	r3, [sp, #76]
 203:Core/Src/main.c ****   {
 1071              		.loc 1 203 3 is_stmt 1 view .LVU261
 203:Core/Src/main.c ****   {
 1072              		.loc 1 203 7 is_stmt 0 view .LVU262
 1073 0070 08A8     		add	r0, sp, #32
 1074 0072 FFF7FEFF 		bl	HAL_RCC_OscConfig
 1075              	.LVL63:
 203:Core/Src/main.c ****   {
 1076              		.loc 1 203 6 view .LVU263
 1077 0076 80B9     		cbnz	r0, .L64
 210:Core/Src/main.c ****                               |RCC_CLOCKTYPE_PCLK1|RCC_CLOCKTYPE_PCLK2;
 1078              		.loc 1 210 3 is_stmt 1 view .LVU264
 210:Core/Src/main.c ****                               |RCC_CLOCKTYPE_PCLK1|RCC_CLOCKTYPE_PCLK2;
 1079              		.loc 1 210 31 is_stmt 0 view .LVU265
 1080 0078 0F23     		movs	r3, #15
 1081 007a 0393     		str	r3, [sp, #12]
 212:Core/Src/main.c ****   RCC_ClkInitStruct.AHBCLKDivider = RCC_SYSCLK_DIV1;
 1082              		.loc 1 212 3 is_stmt 1 view .LVU266
 212:Core/Src/main.c ****   RCC_ClkInitStruct.AHBCLKDivider = RCC_SYSCLK_DIV1;
 1083              		.loc 1 212 34 is_stmt 0 view .LVU267
 1084 007c 0221     		movs	r1, #2
 1085 007e 0491     		str	r1, [sp, #16]
 213:Core/Src/main.c ****   RCC_ClkInitStruct.APB1CLKDivider = RCC_HCLK_DIV2;
 1086              		.loc 1 213 3 is_stmt 1 view .LVU268
 213:Core/Src/main.c ****   RCC_ClkInitStruct.APB1CLKDivider = RCC_HCLK_DIV2;
 1087              		.loc 1 213 35 is_stmt 0 view .LVU269
 1088 0080 0023     		movs	r3, #0
 1089 0082 0593     		str	r3, [sp, #20]
 214:Core/Src/main.c ****   RCC_ClkInitStruct.APB2CLKDivider = RCC_HCLK_DIV1;
 1090              		.loc 1 214 3 is_stmt 1 view .LVU270
 214:Core/Src/main.c ****   RCC_ClkInitStruct.APB2CLKDivider = RCC_HCLK_DIV1;
 1091              		.loc 1 214 36 is_stmt 0 view .LVU271
 1092 0084 4FF48052 		mov	r2, #4096
 1093 0088 0692     		str	r2, [sp, #24]
 215:Core/Src/main.c **** 
 1094              		.loc 1 215 3 is_stmt 1 view .LVU272
 215:Core/Src/main.c **** 
 1095              		.loc 1 215 36 is_stmt 0 view .LVU273
 1096 008a 0793     		str	r3, [sp, #28]
 217:Core/Src/main.c ****   {
 1097              		.loc 1 217 3 is_stmt 1 view .LVU274
 217:Core/Src/main.c ****   {
 1098              		.loc 1 217 7 is_stmt 0 view .LVU275
 1099 008c 03A8     		add	r0, sp, #12
 1100 008e FFF7FEFF 		bl	HAL_RCC_ClockConfig
 1101              	.LVL64:
 217:Core/Src/main.c ****   {
 1102              		.loc 1 217 6 view .LVU276
ARM GAS  C:\Users\jdcox\AppData\Local\Temp\cc24BuqZ.s 			page 37


 1103 0092 20B9     		cbnz	r0, .L65
 221:Core/Src/main.c **** 
 1104              		.loc 1 221 1 view .LVU277
 1105 0094 15B0     		add	sp, sp, #84
 1106              	.LCFI15:
 1107              		.cfi_remember_state
 1108              		.cfi_def_cfa_offset 4
 1109              		@ sp needed
 1110 0096 5DF804FB 		ldr	pc, [sp], #4
 1111              	.L64:
 1112              	.LCFI16:
 1113              		.cfi_restore_state
 205:Core/Src/main.c ****   }
 1114              		.loc 1 205 5 is_stmt 1 view .LVU278
 1115 009a FFF7FEFF 		bl	Error_Handler
 1116              	.LVL65:
 1117              	.L65:
 219:Core/Src/main.c ****   }
 1118              		.loc 1 219 5 view .LVU279
 1119 009e FFF7FEFF 		bl	Error_Handler
 1120              	.LVL66:
 1121              	.L67:
 1122 00a2 00BF     		.align	2
 1123              	.L66:
 1124 00a4 00380240 		.word	1073887232
 1125 00a8 00700040 		.word	1073770496
 1126              		.cfi_endproc
 1127              	.LFE136:
 1129              		.section	.text.main,"ax",%progbits
 1130              		.align	1
 1131              		.global	main
 1132              		.syntax unified
 1133              		.thumb
 1134              		.thumb_func
 1136              	main:
 1137              	.LFB135:
  85:Core/Src/main.c ****   /* USER CODE BEGIN 1 */
 1138              		.loc 1 85 1 view -0
 1139              		.cfi_startproc
 1140              		@ Volatile: function does not return.
 1141              		@ args = 0, pretend = 0, frame = 112
 1142              		@ frame_needed = 0, uses_anonymous_args = 0
 1143 0000 00B5     		push	{lr}
 1144              	.LCFI17:
 1145              		.cfi_def_cfa_offset 4
 1146              		.cfi_offset 14, -4
 1147 0002 9DB0     		sub	sp, sp, #116
 1148              	.LCFI18:
 1149              		.cfi_def_cfa_offset 120
  93:Core/Src/main.c **** 
 1150              		.loc 1 93 3 view .LVU281
 1151 0004 FFF7FEFF 		bl	HAL_Init
 1152              	.LVL67:
 100:Core/Src/main.c **** 
 1153              		.loc 1 100 3 view .LVU282
 1154 0008 FFF7FEFF 		bl	SystemClock_Config
 1155              	.LVL68:
ARM GAS  C:\Users\jdcox\AppData\Local\Temp\cc24BuqZ.s 			page 38


 107:Core/Src/main.c ****   MX_DMA_Init();
 1156              		.loc 1 107 3 view .LVU283
 1157 000c FFF7FEFF 		bl	MX_GPIO_Init
 1158              	.LVL69:
 108:Core/Src/main.c ****   MX_SPI1_Init();
 1159              		.loc 1 108 3 view .LVU284
 1160 0010 FFF7FEFF 		bl	MX_DMA_Init
 1161              	.LVL70:
 109:Core/Src/main.c ****   MX_I2C1_Init();
 1162              		.loc 1 109 3 view .LVU285
 1163 0014 FFF7FEFF 		bl	MX_SPI1_Init
 1164              	.LVL71:
 110:Core/Src/main.c ****   /* USER CODE BEGIN 2 */
 1165              		.loc 1 110 3 view .LVU286
 1166 0018 FFF7FEFF 		bl	MX_I2C1_Init
 1167              	.LVL72:
 117:Core/Src/main.c ****   lora_mutexHandle = osMutexCreate(osMutex(lora_mutex));
 1168              		.loc 1 117 3 view .LVU287
 1169 001c 0025     		movs	r5, #0
 1170 001e 1A95     		str	r5, [sp, #104]
 1171 0020 1B95     		str	r5, [sp, #108]
 118:Core/Src/main.c **** 
 1172              		.loc 1 118 3 view .LVU288
 118:Core/Src/main.c **** 
 1173              		.loc 1 118 22 is_stmt 0 view .LVU289
 1174 0022 1AA8     		add	r0, sp, #104
 1175 0024 FFF7FEFF 		bl	osMutexCreate
 1176              	.LVL73:
 118:Core/Src/main.c **** 
 1177              		.loc 1 118 20 view .LVU290
 1178 0028 274B     		ldr	r3, .L71
 1179 002a 1860     		str	r0, [r3]
 130:Core/Src/main.c ****   msTickHandle = osTimerCreate(osTimer(msTick), osTimerPeriodic, NULL);
 1180              		.loc 1 130 3 is_stmt 1 view .LVU291
 1181 002c 274B     		ldr	r3, .L71+4
 1182 002e 1893     		str	r3, [sp, #96]
 1183 0030 1995     		str	r5, [sp, #100]
 131:Core/Src/main.c **** 
 1184              		.loc 1 131 3 view .LVU292
 131:Core/Src/main.c **** 
 1185              		.loc 1 131 18 is_stmt 0 view .LVU293
 1186 0032 2A46     		mov	r2, r5
 1187 0034 0121     		movs	r1, #1
 1188 0036 18A8     		add	r0, sp, #96
 1189 0038 FFF7FEFF 		bl	osTimerCreate
 1190              	.LVL74:
 131:Core/Src/main.c **** 
 1191              		.loc 1 131 16 view .LVU294
 1192 003c 244B     		ldr	r3, .L71+8
 1193 003e 1860     		str	r0, [r3]
 134:Core/Src/main.c ****   debounceTimerHandle = osTimerCreate(osTimer(debounceTimer), osTimerOnce, NULL);
 1194              		.loc 1 134 3 is_stmt 1 view .LVU295
 1195 0040 244B     		ldr	r3, .L71+12
 1196 0042 1693     		str	r3, [sp, #88]
 1197 0044 1795     		str	r5, [sp, #92]
 135:Core/Src/main.c **** 
 1198              		.loc 1 135 3 view .LVU296
ARM GAS  C:\Users\jdcox\AppData\Local\Temp\cc24BuqZ.s 			page 39


 135:Core/Src/main.c **** 
 1199              		.loc 1 135 25 is_stmt 0 view .LVU297
 1200 0046 2A46     		mov	r2, r5
 1201 0048 2946     		mov	r1, r5
 1202 004a 16A8     		add	r0, sp, #88
 1203 004c FFF7FEFF 		bl	osTimerCreate
 1204              	.LVL75:
 135:Core/Src/main.c **** 
 1205              		.loc 1 135 23 view .LVU298
 1206 0050 214B     		ldr	r3, .L71+16
 1207 0052 1860     		str	r0, [r3]
 148:Core/Src/main.c ****   defaultTaskHandle = osThreadCreate(osThread(defaultTask), NULL);
 1208              		.loc 1 148 3 is_stmt 1 view .LVU299
 1209 0054 214C     		ldr	r4, .L71+20
 1210 0056 0DF13C0C 		add	ip, sp, #60
 1211 005a A646     		mov	lr, r4
 1212 005c BEE80F00 		ldmia	lr!, {r0, r1, r2, r3}
 1213 0060 ACE80F00 		stmia	ip!, {r0, r1, r2, r3}
 1214 0064 9EE80700 		ldm	lr, {r0, r1, r2}
 1215 0068 8CE80700 		stm	ip, {r0, r1, r2}
 149:Core/Src/main.c **** 
 1216              		.loc 1 149 3 view .LVU300
 149:Core/Src/main.c **** 
 1217              		.loc 1 149 23 is_stmt 0 view .LVU301
 1218 006c 2946     		mov	r1, r5
 1219 006e 0FA8     		add	r0, sp, #60
 1220 0070 FFF7FEFF 		bl	osThreadCreate
 1221              	.LVL76:
 149:Core/Src/main.c **** 
 1222              		.loc 1 149 21 view .LVU302
 1223 0074 1A4B     		ldr	r3, .L71+24
 1224 0076 1860     		str	r0, [r3]
 152:Core/Src/main.c ****   loraRXTaskHandle = osThreadCreate(osThread(loraRXTask), NULL);
 1225              		.loc 1 152 3 is_stmt 1 view .LVU303
 1226 0078 0DF1200C 		add	ip, sp, #32
 1227 007c 04F11C0E 		add	lr, r4, #28
 1228 0080 BEE80F00 		ldmia	lr!, {r0, r1, r2, r3}
 1229 0084 ACE80F00 		stmia	ip!, {r0, r1, r2, r3}
 1230 0088 9EE80700 		ldm	lr, {r0, r1, r2}
 1231 008c 8CE80700 		stm	ip, {r0, r1, r2}
 153:Core/Src/main.c **** 
 1232              		.loc 1 153 3 view .LVU304
 153:Core/Src/main.c **** 
 1233              		.loc 1 153 22 is_stmt 0 view .LVU305
 1234 0090 2946     		mov	r1, r5
 1235 0092 08A8     		add	r0, sp, #32
 1236 0094 FFF7FEFF 		bl	osThreadCreate
 1237              	.LVL77:
 153:Core/Src/main.c **** 
 1238              		.loc 1 153 20 view .LVU306
 1239 0098 124B     		ldr	r3, .L71+28
 1240 009a 1860     		str	r0, [r3]
 156:Core/Src/main.c ****   displayTaskHandle = osThreadCreate(osThread(displayTask), NULL);
 1241              		.loc 1 156 3 is_stmt 1 view .LVU307
 1242 009c 0DF1040E 		add	lr, sp, #4
 1243 00a0 04F1380C 		add	ip, r4, #56
 1244 00a4 BCE80F00 		ldmia	ip!, {r0, r1, r2, r3}
ARM GAS  C:\Users\jdcox\AppData\Local\Temp\cc24BuqZ.s 			page 40


 1245 00a8 AEE80F00 		stmia	lr!, {r0, r1, r2, r3}
 1246 00ac 9CE80700 		ldm	ip, {r0, r1, r2}
 1247 00b0 8EE80700 		stm	lr, {r0, r1, r2}
 157:Core/Src/main.c **** 
 1248              		.loc 1 157 3 view .LVU308
 157:Core/Src/main.c **** 
 1249              		.loc 1 157 23 is_stmt 0 view .LVU309
 1250 00b4 2946     		mov	r1, r5
 1251 00b6 01A8     		add	r0, sp, #4
 1252 00b8 FFF7FEFF 		bl	osThreadCreate
 1253              	.LVL78:
 157:Core/Src/main.c **** 
 1254              		.loc 1 157 21 view .LVU310
 1255 00bc 0A4B     		ldr	r3, .L71+32
 1256 00be 1860     		str	r0, [r3]
 164:Core/Src/main.c **** 
 1257              		.loc 1 164 3 is_stmt 1 view .LVU311
 1258 00c0 FFF7FEFF 		bl	osKernelStart
 1259              	.LVL79:
 1260              	.L69:
 169:Core/Src/main.c ****   {
 1261              		.loc 1 169 3 discriminator 1 view .LVU312
 174:Core/Src/main.c ****   /* USER CODE END 3 */
 1262              		.loc 1 174 3 discriminator 1 view .LVU313
 169:Core/Src/main.c ****   {
 1263              		.loc 1 169 9 discriminator 1 view .LVU314
 1264 00c4 FEE7     		b	.L69
 1265              	.L72:
 1266 00c6 00BF     		.align	2
 1267              	.L71:
 1268 00c8 00000000 		.word	.LANCHOR3
 1269 00cc 00000000 		.word	msTickCallback
 1270 00d0 00000000 		.word	.LANCHOR4
 1271 00d4 00000000 		.word	debounceCallback
 1272 00d8 00000000 		.word	.LANCHOR0
 1273 00dc 00000000 		.word	.LANCHOR5
 1274 00e0 00000000 		.word	.LANCHOR6
 1275 00e4 00000000 		.word	.LANCHOR7
 1276 00e8 00000000 		.word	.LANCHOR8
 1277              		.cfi_endproc
 1278              	.LFE135:
 1280              		.section	.rodata.str1.4,"aMS",%progbits,1
 1281              		.align	2
 1282              	.LC4:
 1283 0000 64697370 		.ascii	"displayTask\000"
 1283      6C617954 
 1283      61736B00 
 1284              		.align	2
 1285              	.LC2:
 1286 000c 6C6F7261 		.ascii	"loraRXTask\000"
 1286      52585461 
 1286      736B00
 1287 0017 00       		.align	2
 1288              	.LC0:
 1289 0018 64656661 		.ascii	"defaultTask\000"
 1289      756C7454 
 1289      61736B00 
ARM GAS  C:\Users\jdcox\AppData\Local\Temp\cc24BuqZ.s 			page 41


 1290              		.global	lora_mutexHandle
 1291              		.global	debounceTimerHandle
 1292              		.global	msTickHandle
 1293              		.global	displayTaskHandle
 1294              		.global	loraRXTaskHandle
 1295              		.global	defaultTaskHandle
 1296              		.global	hspi1
 1297              		.global	hdma_i2c1_tx
 1298              		.global	hi2c1
 1299              		.section	.rodata
 1300              		.align	2
 1301              		.set	.LANCHOR5,. + 0
 1302              	.LC14:
 1303 0000 18000000 		.word	.LC0
 1304 0004 00000000 		.word	StartDefaultTask
 1305 0008 0000     		.short	0
 1306 000a 0000     		.space	2
 1307 000c 00000000 		.word	0
 1308 0010 80000000 		.word	128
 1309 0014 00000000 		.word	0
 1310 0018 00000000 		.word	0
 1311              	.LC15:
 1312 001c 0C000000 		.word	.LC2
 1313 0020 00000000 		.word	StartLoraRXTask
 1314 0024 0100     		.short	1
 1315 0026 0000     		.space	2
 1316 0028 00000000 		.word	0
 1317 002c 80000000 		.word	128
 1318 0030 00000000 		.word	0
 1319 0034 00000000 		.word	0
 1320              	.LC16:
 1321 0038 00000000 		.word	.LC4
 1322 003c 00000000 		.word	StartDisplayTask
 1323 0040 0000     		.short	0
 1324 0042 0000     		.space	2
 1325 0044 00000000 		.word	0
 1326 0048 80000000 		.word	128
 1327 004c 00000000 		.word	0
 1328 0050 00000000 		.word	0
 1329              		.section	.bss.debounceTimerHandle,"aw",%nobits
 1330              		.align	2
 1331              		.set	.LANCHOR0,. + 0
 1334              	debounceTimerHandle:
 1335 0000 00000000 		.space	4
 1336              		.section	.bss.defaultTaskHandle,"aw",%nobits
 1337              		.align	2
 1338              		.set	.LANCHOR6,. + 0
 1341              	defaultTaskHandle:
 1342 0000 00000000 		.space	4
 1343              		.section	.bss.displayTaskHandle,"aw",%nobits
 1344              		.align	2
 1345              		.set	.LANCHOR8,. + 0
 1348              	displayTaskHandle:
 1349 0000 00000000 		.space	4
 1350              		.section	.bss.hdma_i2c1_tx,"aw",%nobits
 1351              		.align	2
 1354              	hdma_i2c1_tx:
ARM GAS  C:\Users\jdcox\AppData\Local\Temp\cc24BuqZ.s 			page 42


 1355 0000 00000000 		.space	96
 1355      00000000 
 1355      00000000 
 1355      00000000 
 1355      00000000 
 1356              		.section	.bss.hi2c1,"aw",%nobits
 1357              		.align	2
 1358              		.set	.LANCHOR2,. + 0
 1361              	hi2c1:
 1362 0000 00000000 		.space	84
 1362      00000000 
 1362      00000000 
 1362      00000000 
 1362      00000000 
 1363              		.section	.bss.hspi1,"aw",%nobits
 1364              		.align	2
 1365              		.set	.LANCHOR1,. + 0
 1368              	hspi1:
 1369 0000 00000000 		.space	88
 1369      00000000 
 1369      00000000 
 1369      00000000 
 1369      00000000 
 1370              		.section	.bss.loraRXTaskHandle,"aw",%nobits
 1371              		.align	2
 1372              		.set	.LANCHOR7,. + 0
 1375              	loraRXTaskHandle:
 1376 0000 00000000 		.space	4
 1377              		.section	.bss.lora_mutexHandle,"aw",%nobits
 1378              		.align	2
 1379              		.set	.LANCHOR3,. + 0
 1382              	lora_mutexHandle:
 1383 0000 00000000 		.space	4
 1384              		.section	.bss.msTickHandle,"aw",%nobits
 1385              		.align	2
 1386              		.set	.LANCHOR4,. + 0
 1389              	msTickHandle:
 1390 0000 00000000 		.space	4
 1391              		.text
 1392              	.Letext0:
 1393              		.file 3 "Drivers/CMSIS/Device/ST/STM32F4xx/Include/stm32f401xc.h"
 1394              		.file 4 "c:\\libraries\\gcc\\11.2 2022.02\\arm-none-eabi\\include\\machine\\_default_types.h"
 1395              		.file 5 "c:\\libraries\\gcc\\11.2 2022.02\\arm-none-eabi\\include\\sys\\_stdint.h"
 1396              		.file 6 "Drivers/CMSIS/Device/ST/STM32F4xx/Include/stm32f4xx.h"
 1397              		.file 7 "Drivers/STM32F4xx_HAL_Driver/Inc/stm32f4xx_hal_def.h"
 1398              		.file 8 "Drivers/STM32F4xx_HAL_Driver/Inc/stm32f4xx_hal_rcc_ex.h"
 1399              		.file 9 "Drivers/STM32F4xx_HAL_Driver/Inc/stm32f4xx_hal_rcc.h"
 1400              		.file 10 "Drivers/STM32F4xx_HAL_Driver/Inc/stm32f4xx_hal_gpio.h"
 1401              		.file 11 "Drivers/STM32F4xx_HAL_Driver/Inc/stm32f4xx_hal_dma.h"
 1402              		.file 12 "Drivers/STM32F4xx_HAL_Driver/Inc/stm32f4xx_hal_i2c.h"
 1403              		.file 13 "Drivers/STM32F4xx_HAL_Driver/Inc/stm32f4xx_hal_spi.h"
 1404              		.file 14 "Drivers/STM32F4xx_HAL_Driver/Inc/stm32f4xx_hal_tim.h"
 1405              		.file 15 "Middlewares/Third_Party/FreeRTOS/Source/include/projdefs.h"
 1406              		.file 16 "Middlewares/Third_Party/FreeRTOS/Source/portable/GCC/ARM_CM4F/portmacro.h"
 1407              		.file 17 "Middlewares/Third_Party/FreeRTOS/Source/include/FreeRTOS.h"
 1408              		.file 18 "Middlewares/Third_Party/FreeRTOS/Source/include/task.h"
 1409              		.file 19 "Middlewares/Third_Party/FreeRTOS/Source/include/timers.h"
ARM GAS  C:\Users\jdcox\AppData\Local\Temp\cc24BuqZ.s 			page 43


 1410              		.file 20 "Middlewares/Third_Party/FreeRTOS/Source/include/queue.h"
 1411              		.file 21 "Middlewares/Third_Party/FreeRTOS/Source/include/semphr.h"
 1412              		.file 22 "Middlewares/Third_Party/FreeRTOS/Source/CMSIS_RTOS/cmsis_os.h"
 1413              		.file 23 "Core/Inc/extern.h"
 1414              		.file 24 "Drivers/STM32F4xx_HAL_Driver/Inc/stm32f4xx_hal.h"
 1415              		.file 25 "Core/Inc/i2c-lcd.h"
 1416              		.file 26 "Drivers/STM32F4xx_HAL_Driver/Inc/stm32f4xx_hal_cortex.h"
 1417              		.file 27 "<built-in>"
ARM GAS  C:\Users\jdcox\AppData\Local\Temp\cc24BuqZ.s 			page 44


DEFINED SYMBOLS
                            *ABS*:00000000 main.c
C:\Users\jdcox\AppData\Local\Temp\cc24BuqZ.s:20     .text.msTickCallback:00000000 $t
C:\Users\jdcox\AppData\Local\Temp\cc24BuqZ.s:26     .text.msTickCallback:00000000 msTickCallback
C:\Users\jdcox\AppData\Local\Temp\cc24BuqZ.s:41     .text.debounceCallback:00000000 $t
C:\Users\jdcox\AppData\Local\Temp\cc24BuqZ.s:47     .text.debounceCallback:00000000 debounceCallback
C:\Users\jdcox\AppData\Local\Temp\cc24BuqZ.s:65     .text.debounceCallback:00000008 $d
C:\Users\jdcox\AppData\Local\Temp\cc24BuqZ.s:70     .text.MX_GPIO_Init:00000000 $t
C:\Users\jdcox\AppData\Local\Temp\cc24BuqZ.s:75     .text.MX_GPIO_Init:00000000 MX_GPIO_Init
C:\Users\jdcox\AppData\Local\Temp\cc24BuqZ.s:235    .text.MX_GPIO_Init:000000bc $d
C:\Users\jdcox\AppData\Local\Temp\cc24BuqZ.s:242    .text.MX_DMA_Init:00000000 $t
C:\Users\jdcox\AppData\Local\Temp\cc24BuqZ.s:247    .text.MX_DMA_Init:00000000 MX_DMA_Init
C:\Users\jdcox\AppData\Local\Temp\cc24BuqZ.s:296    .text.MX_DMA_Init:00000030 $d
C:\Users\jdcox\AppData\Local\Temp\cc24BuqZ.s:301    .text.StartLoraRXTask:00000000 $t
C:\Users\jdcox\AppData\Local\Temp\cc24BuqZ.s:307    .text.StartLoraRXTask:00000000 StartLoraRXTask
C:\Users\jdcox\AppData\Local\Temp\cc24BuqZ.s:334    .text.StartDisplayTask:00000000 $t
C:\Users\jdcox\AppData\Local\Temp\cc24BuqZ.s:340    .text.StartDisplayTask:00000000 StartDisplayTask
C:\Users\jdcox\AppData\Local\Temp\cc24BuqZ.s:367    .rodata.StartDefaultTask.str1.4:00000000 $d
C:\Users\jdcox\AppData\Local\Temp\cc24BuqZ.s:392    .text.StartDefaultTask:00000000 $t
C:\Users\jdcox\AppData\Local\Temp\cc24BuqZ.s:398    .text.StartDefaultTask:00000000 StartDefaultTask
C:\Users\jdcox\AppData\Local\Temp\cc24BuqZ.s:449    .text.StartDefaultTask:00000030 $d
C:\Users\jdcox\AppData\Local\Temp\cc24BuqZ.s:454    .text.StartDefaultTask:00000044 $t
C:\Users\jdcox\AppData\Local\Temp\cc24BuqZ.s:641    .text.StartDefaultTask:00000148 $d
C:\Users\jdcox\AppData\Local\Temp\cc24BuqZ.s:656    .text.HAL_GPIO_EXTI_Callback:00000000 $t
C:\Users\jdcox\AppData\Local\Temp\cc24BuqZ.s:662    .text.HAL_GPIO_EXTI_Callback:00000000 HAL_GPIO_EXTI_Callback
C:\Users\jdcox\AppData\Local\Temp\cc24BuqZ.s:728    .text.HAL_GPIO_EXTI_Callback:00000038 $d
C:\Users\jdcox\AppData\Local\Temp\cc24BuqZ.s:736    .text.HAL_TIM_PeriodElapsedCallback:00000000 $t
C:\Users\jdcox\AppData\Local\Temp\cc24BuqZ.s:742    .text.HAL_TIM_PeriodElapsedCallback:00000000 HAL_TIM_PeriodElapsedCallback
C:\Users\jdcox\AppData\Local\Temp\cc24BuqZ.s:776    .text.HAL_TIM_PeriodElapsedCallback:00000014 $d
C:\Users\jdcox\AppData\Local\Temp\cc24BuqZ.s:781    .text.Error_Handler:00000000 $t
C:\Users\jdcox\AppData\Local\Temp\cc24BuqZ.s:787    .text.Error_Handler:00000000 Error_Handler
C:\Users\jdcox\AppData\Local\Temp\cc24BuqZ.s:819    .text.MX_SPI1_Init:00000000 $t
C:\Users\jdcox\AppData\Local\Temp\cc24BuqZ.s:824    .text.MX_SPI1_Init:00000000 MX_SPI1_Init
C:\Users\jdcox\AppData\Local\Temp\cc24BuqZ.s:893    .text.MX_SPI1_Init:00000038 $d
C:\Users\jdcox\AppData\Local\Temp\cc24BuqZ.s:899    .text.MX_I2C1_Init:00000000 $t
C:\Users\jdcox\AppData\Local\Temp\cc24BuqZ.s:904    .text.MX_I2C1_Init:00000000 MX_I2C1_Init
C:\Users\jdcox\AppData\Local\Temp\cc24BuqZ.s:963    .text.MX_I2C1_Init:00000030 $d
C:\Users\jdcox\AppData\Local\Temp\cc24BuqZ.s:970    .text.SystemClock_Config:00000000 $t
C:\Users\jdcox\AppData\Local\Temp\cc24BuqZ.s:976    .text.SystemClock_Config:00000000 SystemClock_Config
C:\Users\jdcox\AppData\Local\Temp\cc24BuqZ.s:1124   .text.SystemClock_Config:000000a4 $d
C:\Users\jdcox\AppData\Local\Temp\cc24BuqZ.s:1130   .text.main:00000000 $t
C:\Users\jdcox\AppData\Local\Temp\cc24BuqZ.s:1136   .text.main:00000000 main
C:\Users\jdcox\AppData\Local\Temp\cc24BuqZ.s:1268   .text.main:000000c8 $d
C:\Users\jdcox\AppData\Local\Temp\cc24BuqZ.s:1281   .rodata.str1.4:00000000 $d
C:\Users\jdcox\AppData\Local\Temp\cc24BuqZ.s:1382   .bss.lora_mutexHandle:00000000 lora_mutexHandle
C:\Users\jdcox\AppData\Local\Temp\cc24BuqZ.s:1334   .bss.debounceTimerHandle:00000000 debounceTimerHandle
C:\Users\jdcox\AppData\Local\Temp\cc24BuqZ.s:1389   .bss.msTickHandle:00000000 msTickHandle
C:\Users\jdcox\AppData\Local\Temp\cc24BuqZ.s:1348   .bss.displayTaskHandle:00000000 displayTaskHandle
C:\Users\jdcox\AppData\Local\Temp\cc24BuqZ.s:1375   .bss.loraRXTaskHandle:00000000 loraRXTaskHandle
C:\Users\jdcox\AppData\Local\Temp\cc24BuqZ.s:1341   .bss.defaultTaskHandle:00000000 defaultTaskHandle
C:\Users\jdcox\AppData\Local\Temp\cc24BuqZ.s:1368   .bss.hspi1:00000000 hspi1
C:\Users\jdcox\AppData\Local\Temp\cc24BuqZ.s:1354   .bss.hdma_i2c1_tx:00000000 hdma_i2c1_tx
C:\Users\jdcox\AppData\Local\Temp\cc24BuqZ.s:1361   .bss.hi2c1:00000000 hi2c1
C:\Users\jdcox\AppData\Local\Temp\cc24BuqZ.s:1300   .rodata:00000000 $d
C:\Users\jdcox\AppData\Local\Temp\cc24BuqZ.s:1330   .bss.debounceTimerHandle:00000000 $d
C:\Users\jdcox\AppData\Local\Temp\cc24BuqZ.s:1337   .bss.defaultTaskHandle:00000000 $d
C:\Users\jdcox\AppData\Local\Temp\cc24BuqZ.s:1344   .bss.displayTaskHandle:00000000 $d
ARM GAS  C:\Users\jdcox\AppData\Local\Temp\cc24BuqZ.s 			page 45


C:\Users\jdcox\AppData\Local\Temp\cc24BuqZ.s:1351   .bss.hdma_i2c1_tx:00000000 $d
C:\Users\jdcox\AppData\Local\Temp\cc24BuqZ.s:1357   .bss.hi2c1:00000000 $d
C:\Users\jdcox\AppData\Local\Temp\cc24BuqZ.s:1364   .bss.hspi1:00000000 $d
C:\Users\jdcox\AppData\Local\Temp\cc24BuqZ.s:1371   .bss.loraRXTaskHandle:00000000 $d
C:\Users\jdcox\AppData\Local\Temp\cc24BuqZ.s:1378   .bss.lora_mutexHandle:00000000 $d
C:\Users\jdcox\AppData\Local\Temp\cc24BuqZ.s:1385   .bss.msTickHandle:00000000 $d

UNDEFINED SYMBOLS
debouncing_Flag
HAL_GPIO_WritePin
HAL_GPIO_Init
HAL_NVIC_SetPriority
HAL_NVIC_EnableIRQ
osDelay
lcd_init
lcd_send_string
lcd_clear
lcd_put_cur
stateChange_flag
gameState
osTimerStart
HAL_IncTick
HAL_SPI_Init
HAL_I2C_Init
memset
HAL_RCC_OscConfig
HAL_RCC_ClockConfig
HAL_Init
osMutexCreate
osTimerCreate
osThreadCreate
osKernelStart
