ARM GAS  C:\Users\jdcox\AppData\Local\Temp\cc7i9zXT.s 			page 1


   1              		.cpu cortex-m4
   2              		.arch armv7e-m
   3              		.fpu fpv4-sp-d16
   4              		.eabi_attribute 27, 1
   5              		.eabi_attribute 28, 1
   6              		.eabi_attribute 20, 1
   7              		.eabi_attribute 21, 1
   8              		.eabi_attribute 23, 3
   9              		.eabi_attribute 24, 1
  10              		.eabi_attribute 25, 1
  11              		.eabi_attribute 26, 1
  12              		.eabi_attribute 30, 1
  13              		.eabi_attribute 34, 1
  14              		.eabi_attribute 18, 4
  15              		.file	"main.c"
  16              		.text
  17              	.Ltext0:
  18              		.cfi_sections	.debug_frame
  19              		.section	.text.msTickCallback,"ax",%progbits
  20              		.align	1
  21              		.global	msTickCallback
  22              		.syntax unified
  23              		.thumb
  24              		.thumb_func
  26              	msTickCallback:
  27              	.LVL0:
  28              	.LFB147:
  29              		.file 1 "Core/Src/main.c"
   1:Core/Src/main.c **** /* USER CODE BEGIN Header */
   2:Core/Src/main.c **** /**
   3:Core/Src/main.c ****   ******************************************************************************
   4:Core/Src/main.c ****   * @file           : main.c
   5:Core/Src/main.c ****   * @brief          : Main program body
   6:Core/Src/main.c ****   ******************************************************************************
   7:Core/Src/main.c ****   * @attention
   8:Core/Src/main.c ****   *
   9:Core/Src/main.c ****   * Copyright (c) 2024 STMicroelectronics.
  10:Core/Src/main.c ****   * All rights reserved.
  11:Core/Src/main.c ****   *
  12:Core/Src/main.c ****   * This software is licensed under terms that can be found in the LICENSE file
  13:Core/Src/main.c ****   * in the root directory of this software component.
  14:Core/Src/main.c ****   * If no LICENSE file comes with this software, it is provided AS-IS.
  15:Core/Src/main.c ****   *
  16:Core/Src/main.c ****   ******************************************************************************
  17:Core/Src/main.c ****   */
  18:Core/Src/main.c **** /* USER CODE END Header */
  19:Core/Src/main.c **** /* Includes ------------------------------------------------------------------*/
  20:Core/Src/main.c **** #include "main.h"
  21:Core/Src/main.c **** #include "cmsis_os.h"
  22:Core/Src/main.c **** 
  23:Core/Src/main.c **** /* Private includes ----------------------------------------------------------*/
  24:Core/Src/main.c **** /* USER CODE BEGIN Includes */
  25:Core/Src/main.c **** #include "extern.h"
  26:Core/Src/main.c **** #include "i2c-lcd.h"
  27:Core/Src/main.c **** #include "lora_sx1276.h"
  28:Core/Src/main.c **** #include <string.h>
  29:Core/Src/main.c **** #include <stdio.h>
ARM GAS  C:\Users\jdcox\AppData\Local\Temp\cc7i9zXT.s 			page 2


  30:Core/Src/main.c **** #include "ssd1306.h"
  31:Core/Src/main.c **** #include "semphr.h"
  32:Core/Src/main.c **** 
  33:Core/Src/main.c **** 
  34:Core/Src/main.c **** /* USER CODE END Includes */
  35:Core/Src/main.c **** 
  36:Core/Src/main.c **** /* Private typedef -----------------------------------------------------------*/
  37:Core/Src/main.c **** /* USER CODE BEGIN PTD */
  38:Core/Src/main.c **** 
  39:Core/Src/main.c **** /* USER CODE END PTD */
  40:Core/Src/main.c **** 
  41:Core/Src/main.c **** /* Private define ------------------------------------------------------------*/
  42:Core/Src/main.c **** /* USER CODE BEGIN PD */
  43:Core/Src/main.c **** /* USER CODE END PD */
  44:Core/Src/main.c **** 
  45:Core/Src/main.c **** /* Private macro -------------------------------------------------------------*/
  46:Core/Src/main.c **** /* USER CODE BEGIN PM */
  47:Core/Src/main.c **** 
  48:Core/Src/main.c **** /* USER CODE END PM */
  49:Core/Src/main.c **** 
  50:Core/Src/main.c **** /* Private variables ---------------------------------------------------------*/
  51:Core/Src/main.c **** I2C_HandleTypeDef hi2c1;
  52:Core/Src/main.c **** DMA_HandleTypeDef hdma_i2c1_tx;
  53:Core/Src/main.c **** 
  54:Core/Src/main.c **** SPI_HandleTypeDef hspi1;
  55:Core/Src/main.c **** 
  56:Core/Src/main.c **** osThreadId defaultTaskHandle;
  57:Core/Src/main.c **** osThreadId loraRXTaskHandle;
  58:Core/Src/main.c **** osThreadId displayTaskHandle;
  59:Core/Src/main.c **** osTimerId msTickHandle;
  60:Core/Src/main.c **** osTimerId debounceTimerHandle;
  61:Core/Src/main.c **** osMutexId lora_mutexHandle;
  62:Core/Src/main.c **** /* USER CODE BEGIN PV */
  63:Core/Src/main.c **** SemaphoreHandle_t xloraMutex;
  64:Core/Src/main.c **** 
  65:Core/Src/main.c **** lora_sx1276 lora;
  66:Core/Src/main.c **** 
  67:Core/Src/main.c **** /* USER CODE END PV */
  68:Core/Src/main.c **** 
  69:Core/Src/main.c **** /* Private function prototypes -----------------------------------------------*/
  70:Core/Src/main.c **** void SystemClock_Config(void);
  71:Core/Src/main.c **** static void MX_GPIO_Init(void);
  72:Core/Src/main.c **** static void MX_DMA_Init(void);
  73:Core/Src/main.c **** static void MX_SPI1_Init(void);
  74:Core/Src/main.c **** static void MX_I2C1_Init(void);
  75:Core/Src/main.c **** void StartDefaultTask(void const * argument);
  76:Core/Src/main.c **** void StartLoraRXTask(void const * argument);
  77:Core/Src/main.c **** void StartDisplayTask(void const * argument);
  78:Core/Src/main.c **** void msTickCallback(void const * argument);
  79:Core/Src/main.c **** void debounceCallback(void const * argument);
  80:Core/Src/main.c **** 
  81:Core/Src/main.c **** /* USER CODE BEGIN PFP */
  82:Core/Src/main.c **** 
  83:Core/Src/main.c **** /* USER CODE END PFP */
  84:Core/Src/main.c **** 
  85:Core/Src/main.c **** /* Private user code ---------------------------------------------------------*/
  86:Core/Src/main.c **** /* USER CODE BEGIN 0 */
ARM GAS  C:\Users\jdcox\AppData\Local\Temp\cc7i9zXT.s 			page 3


  87:Core/Src/main.c **** 
  88:Core/Src/main.c **** /* USER CODE END 0 */
  89:Core/Src/main.c **** 
  90:Core/Src/main.c **** /**
  91:Core/Src/main.c ****   * @brief  The application entry point.
  92:Core/Src/main.c ****   * @retval int
  93:Core/Src/main.c ****   */
  94:Core/Src/main.c **** int main(void)
  95:Core/Src/main.c **** {
  96:Core/Src/main.c ****   /* USER CODE BEGIN 1 */
  97:Core/Src/main.c **** 
  98:Core/Src/main.c ****   /* USER CODE END 1 */
  99:Core/Src/main.c **** 
 100:Core/Src/main.c ****   /* MCU Configuration--------------------------------------------------------*/
 101:Core/Src/main.c **** 
 102:Core/Src/main.c ****   /* Reset of all peripherals, Initializes the Flash interface and the Systick. */
 103:Core/Src/main.c ****   HAL_Init();
 104:Core/Src/main.c **** 
 105:Core/Src/main.c ****   /* USER CODE BEGIN Init */
 106:Core/Src/main.c **** 
 107:Core/Src/main.c ****   /* USER CODE END Init */
 108:Core/Src/main.c **** 
 109:Core/Src/main.c ****   /* Configure the system clock */
 110:Core/Src/main.c ****   SystemClock_Config();
 111:Core/Src/main.c **** 
 112:Core/Src/main.c ****   /* USER CODE BEGIN SysInit */
 113:Core/Src/main.c **** 
 114:Core/Src/main.c ****   /* USER CODE END SysInit */
 115:Core/Src/main.c **** 
 116:Core/Src/main.c ****   /* Initialize all configured peripherals */
 117:Core/Src/main.c ****   MX_GPIO_Init();
 118:Core/Src/main.c ****   MX_DMA_Init();
 119:Core/Src/main.c ****   MX_SPI1_Init();
 120:Core/Src/main.c ****   MX_I2C1_Init();
 121:Core/Src/main.c ****   /* USER CODE BEGIN 2 */
 122:Core/Src/main.c **** 
 123:Core/Src/main.c **** 
 124:Core/Src/main.c **** 
 125:Core/Src/main.c ****   /* USER CODE END 2 */
 126:Core/Src/main.c **** 
 127:Core/Src/main.c ****   /* Create the mutex(es) */
 128:Core/Src/main.c ****   /* definition and creation of lora_mutex */
 129:Core/Src/main.c ****   //debug osMutexDef(lora_mutex);
 130:Core/Src/main.c ****   //debug lora_mutexHandle = osMutexCreate(osMutex(lora_mutex));
 131:Core/Src/main.c **** 
 132:Core/Src/main.c ****   /* USER CODE BEGIN RTOS_MUTEX */
 133:Core/Src/main.c ****   /* add mutexes, ... */
 134:Core/Src/main.c **** 
 135:Core/Src/main.c ****   xloraMutex = xSemaphoreCreateMutex();
 136:Core/Src/main.c **** 
 137:Core/Src/main.c ****   /* USER CODE END RTOS_MUTEX */
 138:Core/Src/main.c **** 
 139:Core/Src/main.c ****   /* USER CODE BEGIN RTOS_SEMAPHORES */
 140:Core/Src/main.c ****   /* add semaphores, ... */
 141:Core/Src/main.c ****   /* USER CODE END RTOS_SEMAPHORES */
 142:Core/Src/main.c **** 
 143:Core/Src/main.c ****   /* Create the timer(s) */
ARM GAS  C:\Users\jdcox\AppData\Local\Temp\cc7i9zXT.s 			page 4


 144:Core/Src/main.c ****   /* definition and creation of msTick */
 145:Core/Src/main.c ****   osTimerDef(msTick, msTickCallback);
 146:Core/Src/main.c ****   msTickHandle = osTimerCreate(osTimer(msTick), osTimerPeriodic, NULL);
 147:Core/Src/main.c **** 
 148:Core/Src/main.c ****   /* definition and creation of debounceTimer */
 149:Core/Src/main.c ****   osTimerDef(debounceTimer, debounceCallback);
 150:Core/Src/main.c ****   debounceTimerHandle = osTimerCreate(osTimer(debounceTimer), osTimerOnce, NULL);
 151:Core/Src/main.c **** 
 152:Core/Src/main.c ****   /* USER CODE BEGIN RTOS_TIMERS */
 153:Core/Src/main.c ****   /* start timers, add new ones, ... */
 154:Core/Src/main.c ****  
 155:Core/Src/main.c ****   /* USER CODE END RTOS_TIMERS */
 156:Core/Src/main.c **** 
 157:Core/Src/main.c ****   /* USER CODE BEGIN RTOS_QUEUES */
 158:Core/Src/main.c ****   /* add queues, ... */
 159:Core/Src/main.c ****   /* USER CODE END RTOS_QUEUES */
 160:Core/Src/main.c **** 
 161:Core/Src/main.c ****   /* Create the thread(s) */
 162:Core/Src/main.c ****   /* definition and creation of defaultTask */
 163:Core/Src/main.c ****   osThreadDef(defaultTask, StartDefaultTask, osPriorityNormal, 0, 128);
 164:Core/Src/main.c ****   defaultTaskHandle = osThreadCreate(osThread(defaultTask), NULL);
 165:Core/Src/main.c **** 
 166:Core/Src/main.c ****   /* definition and creation of loraRXTask */
 167:Core/Src/main.c ****   osThreadDef(loraRXTask, StartLoraRXTask, osPriorityAboveNormal, 0, 128);
 168:Core/Src/main.c ****   loraRXTaskHandle = osThreadCreate(osThread(loraRXTask), NULL);
 169:Core/Src/main.c **** 
 170:Core/Src/main.c ****   /* definition and creation of displayTask */
 171:Core/Src/main.c ****   osThreadDef(displayTask, StartDisplayTask, osPriorityNormal, 0, 128);
 172:Core/Src/main.c ****   displayTaskHandle = osThreadCreate(osThread(displayTask), NULL);
 173:Core/Src/main.c **** 
 174:Core/Src/main.c ****   /* USER CODE BEGIN RTOS_THREADS */
 175:Core/Src/main.c ****   /* add threads, ... */
 176:Core/Src/main.c ****   /* USER CODE END RTOS_THREADS */
 177:Core/Src/main.c **** 
 178:Core/Src/main.c ****   /* Start scheduler */
 179:Core/Src/main.c ****   osKernelStart();
 180:Core/Src/main.c **** 
 181:Core/Src/main.c ****   /* We should never get here as control is now taken by the scheduler */
 182:Core/Src/main.c ****   /* Infinite loop */
 183:Core/Src/main.c ****   /* USER CODE BEGIN WHILE */
 184:Core/Src/main.c ****   while (1)
 185:Core/Src/main.c ****   {
 186:Core/Src/main.c ****     /* USER CODE END WHILE */
 187:Core/Src/main.c **** 
 188:Core/Src/main.c ****     /* USER CODE BEGIN 3 */
 189:Core/Src/main.c ****   }
 190:Core/Src/main.c ****   /* USER CODE END 3 */
 191:Core/Src/main.c **** }
 192:Core/Src/main.c **** 
 193:Core/Src/main.c **** /**
 194:Core/Src/main.c ****   * @brief System Clock Configuration
 195:Core/Src/main.c ****   * @retval None
 196:Core/Src/main.c ****   */
 197:Core/Src/main.c **** void SystemClock_Config(void)
 198:Core/Src/main.c **** {
 199:Core/Src/main.c ****   RCC_OscInitTypeDef RCC_OscInitStruct = {0};
 200:Core/Src/main.c ****   RCC_ClkInitTypeDef RCC_ClkInitStruct = {0};
ARM GAS  C:\Users\jdcox\AppData\Local\Temp\cc7i9zXT.s 			page 5


 201:Core/Src/main.c **** 
 202:Core/Src/main.c ****   /** Configure the main internal regulator output voltage
 203:Core/Src/main.c ****   */
 204:Core/Src/main.c ****   __HAL_RCC_PWR_CLK_ENABLE();
 205:Core/Src/main.c ****   __HAL_PWR_VOLTAGESCALING_CONFIG(PWR_REGULATOR_VOLTAGE_SCALE2);
 206:Core/Src/main.c **** 
 207:Core/Src/main.c ****   /** Initializes the RCC Oscillators according to the specified parameters
 208:Core/Src/main.c ****   * in the RCC_OscInitTypeDef structure.
 209:Core/Src/main.c ****   */
 210:Core/Src/main.c ****   RCC_OscInitStruct.OscillatorType = RCC_OSCILLATORTYPE_HSE;
 211:Core/Src/main.c ****   RCC_OscInitStruct.HSEState = RCC_HSE_ON;
 212:Core/Src/main.c ****   RCC_OscInitStruct.PLL.PLLState = RCC_PLL_ON;
 213:Core/Src/main.c ****   RCC_OscInitStruct.PLL.PLLSource = RCC_PLLSOURCE_HSE;
 214:Core/Src/main.c ****   RCC_OscInitStruct.PLL.PLLM = 25;
 215:Core/Src/main.c ****   RCC_OscInitStruct.PLL.PLLN = 336;
 216:Core/Src/main.c ****   RCC_OscInitStruct.PLL.PLLP = RCC_PLLP_DIV4;
 217:Core/Src/main.c ****   RCC_OscInitStruct.PLL.PLLQ = 7;
 218:Core/Src/main.c ****   if (HAL_RCC_OscConfig(&RCC_OscInitStruct) != HAL_OK)
 219:Core/Src/main.c ****   {
 220:Core/Src/main.c ****     Error_Handler();
 221:Core/Src/main.c ****   }
 222:Core/Src/main.c **** 
 223:Core/Src/main.c ****   /** Initializes the CPU, AHB and APB buses clocks
 224:Core/Src/main.c ****   */
 225:Core/Src/main.c ****   RCC_ClkInitStruct.ClockType = RCC_CLOCKTYPE_HCLK|RCC_CLOCKTYPE_SYSCLK
 226:Core/Src/main.c ****                               |RCC_CLOCKTYPE_PCLK1|RCC_CLOCKTYPE_PCLK2;
 227:Core/Src/main.c ****   RCC_ClkInitStruct.SYSCLKSource = RCC_SYSCLKSOURCE_PLLCLK;
 228:Core/Src/main.c ****   RCC_ClkInitStruct.AHBCLKDivider = RCC_SYSCLK_DIV1;
 229:Core/Src/main.c ****   RCC_ClkInitStruct.APB1CLKDivider = RCC_HCLK_DIV2;
 230:Core/Src/main.c ****   RCC_ClkInitStruct.APB2CLKDivider = RCC_HCLK_DIV1;
 231:Core/Src/main.c **** 
 232:Core/Src/main.c ****   if (HAL_RCC_ClockConfig(&RCC_ClkInitStruct, FLASH_LATENCY_2) != HAL_OK)
 233:Core/Src/main.c ****   {
 234:Core/Src/main.c ****     Error_Handler();
 235:Core/Src/main.c ****   }
 236:Core/Src/main.c **** }
 237:Core/Src/main.c **** 
 238:Core/Src/main.c **** /**
 239:Core/Src/main.c ****   * @brief I2C1 Initialization Function
 240:Core/Src/main.c ****   * @param None
 241:Core/Src/main.c ****   * @retval None
 242:Core/Src/main.c ****   */
 243:Core/Src/main.c **** static void MX_I2C1_Init(void)
 244:Core/Src/main.c **** {
 245:Core/Src/main.c **** 
 246:Core/Src/main.c ****   /* USER CODE BEGIN I2C1_Init 0 */
 247:Core/Src/main.c **** 
 248:Core/Src/main.c ****   /* USER CODE END I2C1_Init 0 */
 249:Core/Src/main.c **** 
 250:Core/Src/main.c ****   /* USER CODE BEGIN I2C1_Init 1 */
 251:Core/Src/main.c **** 
 252:Core/Src/main.c ****   /* USER CODE END I2C1_Init 1 */
 253:Core/Src/main.c ****   hi2c1.Instance = I2C1;
 254:Core/Src/main.c ****   hi2c1.Init.ClockSpeed = 100000;
 255:Core/Src/main.c ****   hi2c1.Init.DutyCycle = I2C_DUTYCYCLE_2;
 256:Core/Src/main.c ****   hi2c1.Init.OwnAddress1 = 78;
 257:Core/Src/main.c ****   hi2c1.Init.AddressingMode = I2C_ADDRESSINGMODE_7BIT;
ARM GAS  C:\Users\jdcox\AppData\Local\Temp\cc7i9zXT.s 			page 6


 258:Core/Src/main.c ****   hi2c1.Init.DualAddressMode = I2C_DUALADDRESS_DISABLE;
 259:Core/Src/main.c ****   hi2c1.Init.OwnAddress2 = 0;
 260:Core/Src/main.c ****   hi2c1.Init.GeneralCallMode = I2C_GENERALCALL_DISABLE;
 261:Core/Src/main.c ****   hi2c1.Init.NoStretchMode = I2C_NOSTRETCH_DISABLE;
 262:Core/Src/main.c ****   if (HAL_I2C_Init(&hi2c1) != HAL_OK)
 263:Core/Src/main.c ****   {
 264:Core/Src/main.c ****     Error_Handler();
 265:Core/Src/main.c ****   }
 266:Core/Src/main.c ****   /* USER CODE BEGIN I2C1_Init 2 */
 267:Core/Src/main.c **** 
 268:Core/Src/main.c ****   /* USER CODE END I2C1_Init 2 */
 269:Core/Src/main.c **** 
 270:Core/Src/main.c **** }
 271:Core/Src/main.c **** 
 272:Core/Src/main.c **** /**
 273:Core/Src/main.c ****   * @brief SPI1 Initialization Function
 274:Core/Src/main.c ****   * @param None
 275:Core/Src/main.c ****   * @retval None
 276:Core/Src/main.c ****   */
 277:Core/Src/main.c **** static void MX_SPI1_Init(void)
 278:Core/Src/main.c **** {
 279:Core/Src/main.c **** 
 280:Core/Src/main.c ****   /* USER CODE BEGIN SPI1_Init 0 */
 281:Core/Src/main.c **** 
 282:Core/Src/main.c ****   /* USER CODE END SPI1_Init 0 */
 283:Core/Src/main.c **** 
 284:Core/Src/main.c ****   /* USER CODE BEGIN SPI1_Init 1 */
 285:Core/Src/main.c **** 
 286:Core/Src/main.c ****   /* USER CODE END SPI1_Init 1 */
 287:Core/Src/main.c ****   /* SPI1 parameter configuration*/
 288:Core/Src/main.c ****   hspi1.Instance = SPI1;
 289:Core/Src/main.c ****   hspi1.Init.Mode = SPI_MODE_MASTER;
 290:Core/Src/main.c ****   hspi1.Init.Direction = SPI_DIRECTION_2LINES;
 291:Core/Src/main.c ****   hspi1.Init.DataSize = SPI_DATASIZE_8BIT;
 292:Core/Src/main.c ****   hspi1.Init.CLKPolarity = SPI_POLARITY_LOW;
 293:Core/Src/main.c ****   hspi1.Init.CLKPhase = SPI_PHASE_1EDGE;
 294:Core/Src/main.c ****   hspi1.Init.NSS = SPI_NSS_SOFT;
 295:Core/Src/main.c ****   hspi1.Init.BaudRatePrescaler = SPI_BAUDRATEPRESCALER_16;
 296:Core/Src/main.c ****   hspi1.Init.FirstBit = SPI_FIRSTBIT_MSB;
 297:Core/Src/main.c ****   hspi1.Init.TIMode = SPI_TIMODE_DISABLE;
 298:Core/Src/main.c ****   hspi1.Init.CRCCalculation = SPI_CRCCALCULATION_DISABLE;
 299:Core/Src/main.c ****   hspi1.Init.CRCPolynomial = 10;
 300:Core/Src/main.c ****   if (HAL_SPI_Init(&hspi1) != HAL_OK)
 301:Core/Src/main.c ****   {
 302:Core/Src/main.c ****     Error_Handler();
 303:Core/Src/main.c ****   }
 304:Core/Src/main.c ****   /* USER CODE BEGIN SPI1_Init 2 */
 305:Core/Src/main.c **** 
 306:Core/Src/main.c ****   /* USER CODE END SPI1_Init 2 */
 307:Core/Src/main.c **** 
 308:Core/Src/main.c **** }
 309:Core/Src/main.c **** 
 310:Core/Src/main.c **** /**
 311:Core/Src/main.c ****   * Enable DMA controller clock
 312:Core/Src/main.c ****   */
 313:Core/Src/main.c **** static void MX_DMA_Init(void)
 314:Core/Src/main.c **** {
ARM GAS  C:\Users\jdcox\AppData\Local\Temp\cc7i9zXT.s 			page 7


 315:Core/Src/main.c **** 
 316:Core/Src/main.c ****   /* DMA controller clock enable */
 317:Core/Src/main.c ****   __HAL_RCC_DMA1_CLK_ENABLE();
 318:Core/Src/main.c **** 
 319:Core/Src/main.c ****   /* DMA interrupt init */
 320:Core/Src/main.c ****   /* DMA1_Stream6_IRQn interrupt configuration */
 321:Core/Src/main.c ****   HAL_NVIC_SetPriority(DMA1_Stream6_IRQn, 5, 0);
 322:Core/Src/main.c ****   HAL_NVIC_EnableIRQ(DMA1_Stream6_IRQn);
 323:Core/Src/main.c **** 
 324:Core/Src/main.c **** }
 325:Core/Src/main.c **** 
 326:Core/Src/main.c **** /**
 327:Core/Src/main.c ****   * @brief GPIO Initialization Function
 328:Core/Src/main.c ****   * @param None
 329:Core/Src/main.c ****   * @retval None
 330:Core/Src/main.c ****   */
 331:Core/Src/main.c **** static void MX_GPIO_Init(void)
 332:Core/Src/main.c **** {
 333:Core/Src/main.c ****   GPIO_InitTypeDef GPIO_InitStruct = {0};
 334:Core/Src/main.c **** 
 335:Core/Src/main.c ****   /* GPIO Ports Clock Enable */
 336:Core/Src/main.c ****   __HAL_RCC_GPIOH_CLK_ENABLE();
 337:Core/Src/main.c ****   __HAL_RCC_GPIOA_CLK_ENABLE();
 338:Core/Src/main.c ****   __HAL_RCC_GPIOB_CLK_ENABLE();
 339:Core/Src/main.c **** 
 340:Core/Src/main.c ****   /*Configure GPIO pin Output Level */
 341:Core/Src/main.c ****   HAL_GPIO_WritePin(GPIOB, LED1_Pin|LED2_Pin, GPIO_PIN_RESET);
 342:Core/Src/main.c **** 
 343:Core/Src/main.c ****   /*Configure GPIO pin Output Level */
 344:Core/Src/main.c ****   HAL_GPIO_WritePin(LORA_CS_GPIO_Port, LORA_CS_Pin, GPIO_PIN_RESET);
 345:Core/Src/main.c **** 
 346:Core/Src/main.c ****   /*Configure GPIO pin : BTN_IN_Pin */
 347:Core/Src/main.c ****   GPIO_InitStruct.Pin = BTN_IN_Pin;
 348:Core/Src/main.c ****   GPIO_InitStruct.Mode = GPIO_MODE_IT_FALLING;
 349:Core/Src/main.c ****   GPIO_InitStruct.Pull = GPIO_PULLUP;
 350:Core/Src/main.c ****   HAL_GPIO_Init(BTN_IN_GPIO_Port, &GPIO_InitStruct);
 351:Core/Src/main.c **** 
 352:Core/Src/main.c ****   /*Configure GPIO pins : LED1_Pin LED2_Pin */
 353:Core/Src/main.c ****   GPIO_InitStruct.Pin = LED1_Pin|LED2_Pin;
 354:Core/Src/main.c ****   GPIO_InitStruct.Mode = GPIO_MODE_OUTPUT_PP;
 355:Core/Src/main.c ****   GPIO_InitStruct.Pull = GPIO_NOPULL;
 356:Core/Src/main.c ****   GPIO_InitStruct.Speed = GPIO_SPEED_FREQ_LOW;
 357:Core/Src/main.c ****   HAL_GPIO_Init(GPIOB, &GPIO_InitStruct);
 358:Core/Src/main.c **** 
 359:Core/Src/main.c ****   /*Configure GPIO pin : LORA_CS_Pin */
 360:Core/Src/main.c ****   GPIO_InitStruct.Pin = LORA_CS_Pin;
 361:Core/Src/main.c ****   GPIO_InitStruct.Mode = GPIO_MODE_OUTPUT_PP;
 362:Core/Src/main.c ****   GPIO_InitStruct.Pull = GPIO_NOPULL;
 363:Core/Src/main.c ****   GPIO_InitStruct.Speed = GPIO_SPEED_FREQ_LOW;
 364:Core/Src/main.c ****   HAL_GPIO_Init(LORA_CS_GPIO_Port, &GPIO_InitStruct);
 365:Core/Src/main.c **** 
 366:Core/Src/main.c ****   /* EXTI interrupt init*/
 367:Core/Src/main.c ****   HAL_NVIC_SetPriority(EXTI0_IRQn, 5, 0);
 368:Core/Src/main.c ****   HAL_NVIC_EnableIRQ(EXTI0_IRQn);
 369:Core/Src/main.c **** 
 370:Core/Src/main.c **** }
 371:Core/Src/main.c **** 
ARM GAS  C:\Users\jdcox\AppData\Local\Temp\cc7i9zXT.s 			page 8


 372:Core/Src/main.c **** /* USER CODE BEGIN 4 */
 373:Core/Src/main.c **** 
 374:Core/Src/main.c **** /* USER CODE END 4 */
 375:Core/Src/main.c **** 
 376:Core/Src/main.c **** /* USER CODE BEGIN Header_StartDefaultTask */
 377:Core/Src/main.c **** /**
 378:Core/Src/main.c ****   * @brief  Function implementing the defaultTask thread.
 379:Core/Src/main.c ****   * @param  argument: Not used
 380:Core/Src/main.c ****   * @retval None
 381:Core/Src/main.c ****   */
 382:Core/Src/main.c **** /* USER CODE END Header_StartDefaultTask */
 383:Core/Src/main.c **** void StartDefaultTask(void const * argument)
 384:Core/Src/main.c **** {
 385:Core/Src/main.c ****   /* USER CODE BEGIN 5 */
 386:Core/Src/main.c ****   xloraMutex = xSemaphoreCreateMutex();
 387:Core/Src/main.c ****   // debug osMutexWait(lora_mutexHandle, osWaitForever);
 388:Core/Src/main.c ****   xSemaphoreTake(xloraMutex, portMAX_DELAY);
 389:Core/Src/main.c ****   uint8_t res = lora_init(&lora, &hspi1, LORA_CS_GPIO_Port, LORA_CS_Pin, LORA_BASE_FREQUENCY_CH);
 390:Core/Src/main.c ****   if (res != LORA_OK) {
 391:Core/Src/main.c ****     // Initialization failed
 392:Core/Src/main.c ****     uint8_t debugBuddy;
 393:Core/Src/main.c ****     debugBuddy = res;
 394:Core/Src/main.c ****     debugBuddy++;
 395:Core/Src/main.c ****   }
 396:Core/Src/main.c ****   xSemaphoreGive(xloraMutex);
 397:Core/Src/main.c ****   //debug osMutexRelease(lora_mutexHandle);
 398:Core/Src/main.c **** 
 399:Core/Src/main.c **** 
 400:Core/Src/main.c ****   P1LED_OFF;
 401:Core/Src/main.c ****   ssd1306_Init();
 402:Core/Src/main.c ****   ssd1306_SetCursor(0,0);
 403:Core/Src/main.c ****   ssd1306_WriteString("KING",Font_16x24,1);
 404:Core/Src/main.c ****   ssd1306_UpdateScreen();
 405:Core/Src/main.c ****   osDelay(750);
 406:Core/Src/main.c ****   ssd1306_Fill(0);
 407:Core/Src/main.c ****   ssd1306_SetCursor(64,0);
 408:Core/Src/main.c ****   ssd1306_WriteString("OF",Font_16x24,1);
 409:Core/Src/main.c ****   ssd1306_UpdateScreen();
 410:Core/Src/main.c ****   osDelay(750);
 411:Core/Src/main.c ****   ssd1306_Fill(0);
 412:Core/Src/main.c ****   ssd1306_SetCursor(0,8);
 413:Core/Src/main.c ****   ssd1306_WriteString("THE",Font_16x24,1);
 414:Core/Src/main.c ****   ssd1306_UpdateScreen();
 415:Core/Src/main.c ****   osDelay(750);
 416:Core/Src/main.c ****   ssd1306_Fill(0);
 417:Core/Src/main.c ****   ssd1306_SetCursor(64,8);
 418:Core/Src/main.c ****   ssd1306_WriteString("HILL",Font_16x24,1);
 419:Core/Src/main.c ****   ssd1306_UpdateScreen();
 420:Core/Src/main.c **** 
 421:Core/Src/main.c ****   lora_mode_receive_continuous(&lora);
 422:Core/Src/main.c **** 
 423:Core/Src/main.c ****   osDelay(2000);
 424:Core/Src/main.c **** 
 425:Core/Src/main.c ****   gameState = waiting;
 426:Core/Src/main.c ****   stateChange_flag = 1;
 427:Core/Src/main.c ****   
 428:Core/Src/main.c **** 
ARM GAS  C:\Users\jdcox\AppData\Local\Temp\cc7i9zXT.s 			page 9


 429:Core/Src/main.c ****   /* Infinite loop */
 430:Core/Src/main.c ****   for(;;)
 431:Core/Src/main.c ****   {
 432:Core/Src/main.c ****     //debug
 433:Core/Src/main.c ****     HAL_GPIO_TogglePin(LED1_GPIO_Port,LED1_Pin);
 434:Core/Src/main.c ****     
 435:Core/Src/main.c ****     switch (gameState)
 436:Core/Src/main.c ****     {
 437:Core/Src/main.c ****       case waiting:
 438:Core/Src/main.c ****         if(stateChange_flag)
 439:Core/Src/main.c ****         {
 440:Core/Src/main.c ****           stateChange_flag = 0;
 441:Core/Src/main.c ****           ssd1306_Fill(0); 
 442:Core/Src/main.c ****           ssd1306_SetCursor(0,0);
 443:Core/Src/main.c ****           ssd1306_WriteString("Push to play",Font_7x10,1);
 444:Core/Src/main.c ****           ssd1306_UpdateScreen();
 445:Core/Src/main.c ****         }
 446:Core/Src/main.c ****       break;
 447:Core/Src/main.c **** 
 448:Core/Src/main.c ****       case p1King:
 449:Core/Src/main.c ****         if(stateChange_flag)
 450:Core/Src/main.c ****         {
 451:Core/Src/main.c ****           stateChange_flag = 0;
 452:Core/Src/main.c ****           P1LED_OFF; // The hill is yours
 453:Core/Src/main.c ****           ssd1306_Fill(0);
 454:Core/Src/main.c ****           ssd1306_SetCursor(0,0);
 455:Core/Src/main.c ****           ssd1306_WriteString("You are king",Font_7x10,1);
 456:Core/Src/main.c ****           ssd1306_SetCursor(0,10);
 457:Core/Src/main.c ****           ssd1306_WriteString("of the hill!",Font_7x10,1);
 458:Core/Src/main.c ****           ssd1306_UpdateScreen();
 459:Core/Src/main.c ****         }
 460:Core/Src/main.c ****       break;
 461:Core/Src/main.c **** 
 462:Core/Src/main.c ****       case p2King:
 463:Core/Src/main.c ****         if(stateChange_flag)
 464:Core/Src/main.c ****         {
 465:Core/Src/main.c ****           stateChange_flag = 0;
 466:Core/Src/main.c ****           P1LED_ON; // Better push the button!
 467:Core/Src/main.c ****           ssd1306_Fill(0);
 468:Core/Src/main.c ****           ssd1306_SetCursor(0,0);
 469:Core/Src/main.c ****           ssd1306_WriteString("Take the hill!!",Font_7x10,1);
 470:Core/Src/main.c ****           ssd1306_UpdateScreen();
 471:Core/Src/main.c ****         }
 472:Core/Src/main.c ****       break;
 473:Core/Src/main.c **** 
 474:Core/Src/main.c ****       case p1Winner:
 475:Core/Src/main.c ****         if(stateChange_flag)
 476:Core/Src/main.c ****         {
 477:Core/Src/main.c ****           stateChange_flag = 0;
 478:Core/Src/main.c ****           P1LED_OFF;
 479:Core/Src/main.c ****           ssd1306_Fill(0);
 480:Core/Src/main.c ****           ssd1306_SetCursor(0,0);
 481:Core/Src/main.c ****           ssd1306_WriteString("P1 wins!",Font_7x10,1);
 482:Core/Src/main.c ****           char score [16];
 483:Core/Src/main.c ****           uint16_t difference = p1King_counter - p2King_counter;
 484:Core/Src/main.c ****           sprintf(score, "Won by %ums", difference);
 485:Core/Src/main.c ****           lcd_put_cur(1,0);
ARM GAS  C:\Users\jdcox\AppData\Local\Temp\cc7i9zXT.s 			page 10


 486:Core/Src/main.c ****           ssd1306_WriteString(score,Font_7x10,1);
 487:Core/Src/main.c ****           ssd1306_UpdateScreen();
 488:Core/Src/main.c **** 
 489:Core/Src/main.c ****         }
 490:Core/Src/main.c ****       break;
 491:Core/Src/main.c **** 
 492:Core/Src/main.c ****       case p2Winner:
 493:Core/Src/main.c ****         if(stateChange_flag)
 494:Core/Src/main.c ****         {
 495:Core/Src/main.c ****           stateChange_flag = 0;
 496:Core/Src/main.c ****           P1LED_OFF;
 497:Core/Src/main.c ****           ssd1306_Fill(0);
 498:Core/Src/main.c ****           ssd1306_SetCursor(0,0);
 499:Core/Src/main.c ****           ssd1306_WriteString("P2 wins!",Font_7x10,1);
 500:Core/Src/main.c ****           char score [16];
 501:Core/Src/main.c ****           uint16_t difference = p2King_counter - p1King_counter;
 502:Core/Src/main.c ****           sprintf(score, "Won by %ums", difference);
 503:Core/Src/main.c ****           lcd_put_cur(1,0);
 504:Core/Src/main.c ****           ssd1306_WriteString(score,Font_7x10,1);
 505:Core/Src/main.c ****           ssd1306_UpdateScreen();
 506:Core/Src/main.c ****         }
 507:Core/Src/main.c ****       break;
 508:Core/Src/main.c **** 
 509:Core/Src/main.c ****         case penalty:
 510:Core/Src/main.c ****         if(stateChange_flag)
 511:Core/Src/main.c ****         {
 512:Core/Src/main.c ****           stateChange_flag = 0;
 513:Core/Src/main.c ****           P1LED_OFF;
 514:Core/Src/main.c ****           ssd1306_Fill(0); 
 515:Core/Src/main.c ****           ssd1306_SetCursor(0,0);
 516:Core/Src/main.c ****           ssd1306_WriteString("Penalty!",Font_7x10,1);
 517:Core/Src/main.c ****           ssd1306_UpdateScreen();
 518:Core/Src/main.c ****         }
 519:Core/Src/main.c **** 
 520:Core/Src/main.c ****       break;
 521:Core/Src/main.c ****       
 522:Core/Src/main.c ****     }
 523:Core/Src/main.c **** 
 524:Core/Src/main.c **** 
 525:Core/Src/main.c ****     osDelay(1);
 526:Core/Src/main.c ****    
 527:Core/Src/main.c **** 
 528:Core/Src/main.c **** 
 529:Core/Src/main.c ****   }
 530:Core/Src/main.c ****   /* USER CODE END 5 */
 531:Core/Src/main.c **** }
 532:Core/Src/main.c **** 
 533:Core/Src/main.c **** /* USER CODE BEGIN Header_StartLoraRXTask */
 534:Core/Src/main.c **** /**
 535:Core/Src/main.c **** * @brief Function implementing the loraRXTask thread.
 536:Core/Src/main.c **** * @param argument: Not used
 537:Core/Src/main.c **** * @retval None
 538:Core/Src/main.c **** */
 539:Core/Src/main.c **** /* USER CODE END Header_StartLoraRXTask */
 540:Core/Src/main.c **** void StartLoraRXTask(void const * argument)
 541:Core/Src/main.c **** {
 542:Core/Src/main.c ****   /* USER CODE BEGIN StartLoraRXTask */
ARM GAS  C:\Users\jdcox\AppData\Local\Temp\cc7i9zXT.s 			page 11


 543:Core/Src/main.c ****   /* Infinite loop */
 544:Core/Src/main.c ****   for(;;)
 545:Core/Src/main.c ****   {
 546:Core/Src/main.c ****     //debug
 547:Core/Src/main.c ****     HAL_GPIO_TogglePin(LED2_GPIO_Port,LED2_Pin);
 548:Core/Src/main.c **** 
 549:Core/Src/main.c ****     // Wait for LoRa availability
 550:Core/Src/main.c ****     xSemaphoreTake(xloraMutex, portMAX_DELAY);
 551:Core/Src/main.c **** 
 552:Core/Src/main.c ****     // Check for a new packet
 553:Core/Src/main.c ****     if(lora_is_packet_available(&lora) > 0)
 554:Core/Src/main.c ****     {
 555:Core/Src/main.c ****       //release mutex
 556:Core/Src/main.c ****       xSemaphoreGive(xloraMutex);
 557:Core/Src/main.c ****       
 558:Core/Src/main.c ****       // Get the data
 559:Core/Src/main.c ****       getKOTHPacket();
 560:Core/Src/main.c **** 
 561:Core/Src/main.c ****     }
 562:Core/Src/main.c **** 
 563:Core/Src/main.c ****     
 564:Core/Src/main.c ****     
 565:Core/Src/main.c ****     osDelay(25);
 566:Core/Src/main.c **** 
 567:Core/Src/main.c ****   }
 568:Core/Src/main.c ****   /* USER CODE END StartLoraRXTask */
 569:Core/Src/main.c **** }
 570:Core/Src/main.c **** 
 571:Core/Src/main.c **** /* USER CODE BEGIN Header_StartDisplayTask */
 572:Core/Src/main.c **** /**
 573:Core/Src/main.c **** * @brief Function implementing the displayTask thread.
 574:Core/Src/main.c **** * @param argument: Not used
 575:Core/Src/main.c **** * @retval None
 576:Core/Src/main.c **** */
 577:Core/Src/main.c **** /* USER CODE END Header_StartDisplayTask */
 578:Core/Src/main.c **** void StartDisplayTask(void const * argument)
 579:Core/Src/main.c **** {
 580:Core/Src/main.c ****   /* USER CODE BEGIN StartDisplayTask */
 581:Core/Src/main.c ****   /* Infinite loop */
 582:Core/Src/main.c ****   for(;;)
 583:Core/Src/main.c ****   {
 584:Core/Src/main.c **** 
 585:Core/Src/main.c ****     osDelay(100);
 586:Core/Src/main.c ****   }
 587:Core/Src/main.c ****   /* USER CODE END StartDisplayTask */
 588:Core/Src/main.c **** }
 589:Core/Src/main.c **** 
 590:Core/Src/main.c **** /* msTickCallback function */
 591:Core/Src/main.c **** void msTickCallback(void const * argument)
 592:Core/Src/main.c **** {
  30              		.loc 1 592 1 view -0
  31              		.cfi_startproc
  32              		@ args = 0, pretend = 0, frame = 0
  33              		@ frame_needed = 0, uses_anonymous_args = 0
  34              		@ link register save eliminated.
 593:Core/Src/main.c ****   /* USER CODE BEGIN msTickCallback */
 594:Core/Src/main.c ****     if(p1King_flag == 1)
ARM GAS  C:\Users\jdcox\AppData\Local\Temp\cc7i9zXT.s 			page 12


  35              		.loc 1 594 5 view .LVU1
  36              		.loc 1 594 20 is_stmt 0 view .LVU2
  37 0000 134B     		ldr	r3, .L6
  38 0002 1B78     		ldrb	r3, [r3]	@ zero_extendqisi2
  39              		.loc 1 594 7 view .LVU3
  40 0004 012B     		cmp	r3, #1
  41 0006 04D0     		beq	.L4
  42              	.L2:
 595:Core/Src/main.c ****     {
 596:Core/Src/main.c ****       if(++p1King_counter >= 10000)
 597:Core/Src/main.c ****       {
 598:Core/Src/main.c ****         p1King_flag = 0;
 599:Core/Src/main.c ****         gameState = p1Winner;
 600:Core/Src/main.c ****       }
 601:Core/Src/main.c ****     }
 602:Core/Src/main.c **** 
 603:Core/Src/main.c ****     if(p2King_flag == 1)
  43              		.loc 1 603 5 is_stmt 1 view .LVU4
  44              		.loc 1 603 20 is_stmt 0 view .LVU5
  45 0008 124B     		ldr	r3, .L6+4
  46 000a 1B78     		ldrb	r3, [r3]	@ zero_extendqisi2
  47              		.loc 1 603 7 view .LVU6
  48 000c 012B     		cmp	r3, #1
  49 000e 0FD0     		beq	.L5
  50              	.L1:
 604:Core/Src/main.c ****     {
 605:Core/Src/main.c ****       if(++p2King_counter >= 10000)
 606:Core/Src/main.c ****       { 
 607:Core/Src/main.c ****         p2King_flag = 0;
 608:Core/Src/main.c ****         gameState = p2Winner;
 609:Core/Src/main.c ****       }
 610:Core/Src/main.c ****     }
 611:Core/Src/main.c ****   /* USER CODE END msTickCallback */
 612:Core/Src/main.c **** }
  51              		.loc 1 612 1 view .LVU7
  52 0010 7047     		bx	lr
  53              	.L4:
 596:Core/Src/main.c ****       {
  54              		.loc 1 596 7 is_stmt 1 view .LVU8
 596:Core/Src/main.c ****       {
  55              		.loc 1 596 10 is_stmt 0 view .LVU9
  56 0012 114A     		ldr	r2, .L6+8
  57 0014 1368     		ldr	r3, [r2]
  58 0016 0133     		adds	r3, r3, #1
 596:Core/Src/main.c ****       {
  59              		.loc 1 596 9 view .LVU10
  60 0018 1360     		str	r3, [r2]
  61 001a 42F20F72 		movw	r2, #9999
  62 001e 9342     		cmp	r3, r2
  63 0020 F2D9     		bls	.L2
 598:Core/Src/main.c ****         gameState = p1Winner;
  64              		.loc 1 598 9 is_stmt 1 view .LVU11
 598:Core/Src/main.c ****         gameState = p1Winner;
  65              		.loc 1 598 21 is_stmt 0 view .LVU12
  66 0022 0B4B     		ldr	r3, .L6
  67 0024 0022     		movs	r2, #0
  68 0026 1A70     		strb	r2, [r3]
ARM GAS  C:\Users\jdcox\AppData\Local\Temp\cc7i9zXT.s 			page 13


 599:Core/Src/main.c ****       }
  69              		.loc 1 599 9 is_stmt 1 view .LVU13
 599:Core/Src/main.c ****       }
  70              		.loc 1 599 19 is_stmt 0 view .LVU14
  71 0028 0C4B     		ldr	r3, .L6+12
  72 002a 0322     		movs	r2, #3
  73 002c 1A70     		strb	r2, [r3]
  74 002e EBE7     		b	.L2
  75              	.L5:
 605:Core/Src/main.c ****       { 
  76              		.loc 1 605 7 is_stmt 1 view .LVU15
 605:Core/Src/main.c ****       { 
  77              		.loc 1 605 10 is_stmt 0 view .LVU16
  78 0030 0B4A     		ldr	r2, .L6+16
  79 0032 1368     		ldr	r3, [r2]
  80 0034 0133     		adds	r3, r3, #1
 605:Core/Src/main.c ****       { 
  81              		.loc 1 605 9 view .LVU17
  82 0036 1360     		str	r3, [r2]
  83 0038 42F20F72 		movw	r2, #9999
  84 003c 9342     		cmp	r3, r2
  85 003e E7D9     		bls	.L1
 607:Core/Src/main.c ****         gameState = p2Winner;
  86              		.loc 1 607 9 is_stmt 1 view .LVU18
 607:Core/Src/main.c ****         gameState = p2Winner;
  87              		.loc 1 607 21 is_stmt 0 view .LVU19
  88 0040 044B     		ldr	r3, .L6+4
  89 0042 0022     		movs	r2, #0
  90 0044 1A70     		strb	r2, [r3]
 608:Core/Src/main.c ****       }
  91              		.loc 1 608 9 is_stmt 1 view .LVU20
 608:Core/Src/main.c ****       }
  92              		.loc 1 608 19 is_stmt 0 view .LVU21
  93 0046 054B     		ldr	r3, .L6+12
  94 0048 0422     		movs	r2, #4
  95 004a 1A70     		strb	r2, [r3]
  96              		.loc 1 612 1 view .LVU22
  97 004c E0E7     		b	.L1
  98              	.L7:
  99 004e 00BF     		.align	2
 100              	.L6:
 101 0050 00000000 		.word	p1King_flag
 102 0054 00000000 		.word	p2King_flag
 103 0058 00000000 		.word	p1King_counter
 104 005c 00000000 		.word	gameState
 105 0060 00000000 		.word	p2King_counter
 106              		.cfi_endproc
 107              	.LFE147:
 109              		.section	.text.debounceCallback,"ax",%progbits
 110              		.align	1
 111              		.global	debounceCallback
 112              		.syntax unified
 113              		.thumb
 114              		.thumb_func
 116              	debounceCallback:
 117              	.LVL1:
 118              	.LFB149:
ARM GAS  C:\Users\jdcox\AppData\Local\Temp\cc7i9zXT.s 			page 14


 613:Core/Src/main.c **** 
 614:Core/Src/main.c **** /* debounceCallback function */
 615:Core/Src/main.c **** 
 616:Core/Src/main.c **** void HAL_GPIO_EXTI_Callback(uint16_t GPIO_Pin)
 617:Core/Src/main.c **** {
 618:Core/Src/main.c ****   if( (!debouncing_Flag) && (GPIO_Pin == BTN_IN_Pin) ) 
 619:Core/Src/main.c ****   {
 620:Core/Src/main.c **** 
 621:Core/Src/main.c ****     debouncing_Flag = 1;
 622:Core/Src/main.c ****     btnPressed();
 623:Core/Src/main.c ****     osTimerStart(debounceTimerHandle, pdMS_TO_TICKS(250));
 624:Core/Src/main.c **** 
 625:Core/Src/main.c ****   }
 626:Core/Src/main.c **** }
 627:Core/Src/main.c **** 
 628:Core/Src/main.c **** void debounceCallback(void const * argument)
 629:Core/Src/main.c **** {
 119              		.loc 1 629 1 is_stmt 1 view -0
 120              		.cfi_startproc
 121              		@ args = 0, pretend = 0, frame = 0
 122              		@ frame_needed = 0, uses_anonymous_args = 0
 123              		@ link register save eliminated.
 630:Core/Src/main.c ****   /* USER CODE BEGIN debounceCallback */
 631:Core/Src/main.c ****   debouncing_Flag = 0;
 124              		.loc 1 631 3 view .LVU24
 125              		.loc 1 631 19 is_stmt 0 view .LVU25
 126 0000 014B     		ldr	r3, .L9
 127 0002 0022     		movs	r2, #0
 128 0004 1A70     		strb	r2, [r3]
 632:Core/Src/main.c ****   /* USER CODE END debounceCallback */
 633:Core/Src/main.c **** }
 129              		.loc 1 633 1 view .LVU26
 130 0006 7047     		bx	lr
 131              	.L10:
 132              		.align	2
 133              	.L9:
 134 0008 00000000 		.word	debouncing_Flag
 135              		.cfi_endproc
 136              	.LFE149:
 138              		.section	.text.MX_GPIO_Init,"ax",%progbits
 139              		.align	1
 140              		.syntax unified
 141              		.thumb
 142              		.thumb_func
 144              	MX_GPIO_Init:
 145              	.LFB143:
 332:Core/Src/main.c ****   GPIO_InitTypeDef GPIO_InitStruct = {0};
 146              		.loc 1 332 1 is_stmt 1 view -0
 147              		.cfi_startproc
 148              		@ args = 0, pretend = 0, frame = 32
 149              		@ frame_needed = 0, uses_anonymous_args = 0
 150 0000 2DE9F041 		push	{r4, r5, r6, r7, r8, lr}
 151              	.LCFI0:
 152              		.cfi_def_cfa_offset 24
 153              		.cfi_offset 4, -24
 154              		.cfi_offset 5, -20
 155              		.cfi_offset 6, -16
ARM GAS  C:\Users\jdcox\AppData\Local\Temp\cc7i9zXT.s 			page 15


 156              		.cfi_offset 7, -12
 157              		.cfi_offset 8, -8
 158              		.cfi_offset 14, -4
 159 0004 88B0     		sub	sp, sp, #32
 160              	.LCFI1:
 161              		.cfi_def_cfa_offset 56
 333:Core/Src/main.c **** 
 162              		.loc 1 333 3 view .LVU28
 333:Core/Src/main.c **** 
 163              		.loc 1 333 20 is_stmt 0 view .LVU29
 164 0006 0024     		movs	r4, #0
 165 0008 0394     		str	r4, [sp, #12]
 166 000a 0494     		str	r4, [sp, #16]
 167 000c 0594     		str	r4, [sp, #20]
 168 000e 0694     		str	r4, [sp, #24]
 169 0010 0794     		str	r4, [sp, #28]
 336:Core/Src/main.c ****   __HAL_RCC_GPIOA_CLK_ENABLE();
 170              		.loc 1 336 3 is_stmt 1 view .LVU30
 171              	.LBB4:
 336:Core/Src/main.c ****   __HAL_RCC_GPIOA_CLK_ENABLE();
 172              		.loc 1 336 3 view .LVU31
 173 0012 0094     		str	r4, [sp]
 336:Core/Src/main.c ****   __HAL_RCC_GPIOA_CLK_ENABLE();
 174              		.loc 1 336 3 view .LVU32
 175 0014 294B     		ldr	r3, .L13
 176 0016 1A6B     		ldr	r2, [r3, #48]
 177 0018 42F08002 		orr	r2, r2, #128
 178 001c 1A63     		str	r2, [r3, #48]
 336:Core/Src/main.c ****   __HAL_RCC_GPIOA_CLK_ENABLE();
 179              		.loc 1 336 3 view .LVU33
 180 001e 1A6B     		ldr	r2, [r3, #48]
 181 0020 02F08002 		and	r2, r2, #128
 182 0024 0092     		str	r2, [sp]
 336:Core/Src/main.c ****   __HAL_RCC_GPIOA_CLK_ENABLE();
 183              		.loc 1 336 3 view .LVU34
 184 0026 009A     		ldr	r2, [sp]
 185              	.LBE4:
 336:Core/Src/main.c ****   __HAL_RCC_GPIOA_CLK_ENABLE();
 186              		.loc 1 336 3 view .LVU35
 337:Core/Src/main.c ****   __HAL_RCC_GPIOB_CLK_ENABLE();
 187              		.loc 1 337 3 view .LVU36
 188              	.LBB5:
 337:Core/Src/main.c ****   __HAL_RCC_GPIOB_CLK_ENABLE();
 189              		.loc 1 337 3 view .LVU37
 190 0028 0194     		str	r4, [sp, #4]
 337:Core/Src/main.c ****   __HAL_RCC_GPIOB_CLK_ENABLE();
 191              		.loc 1 337 3 view .LVU38
 192 002a 1A6B     		ldr	r2, [r3, #48]
 193 002c 42F00102 		orr	r2, r2, #1
 194 0030 1A63     		str	r2, [r3, #48]
 337:Core/Src/main.c ****   __HAL_RCC_GPIOB_CLK_ENABLE();
 195              		.loc 1 337 3 view .LVU39
 196 0032 1A6B     		ldr	r2, [r3, #48]
 197 0034 02F00102 		and	r2, r2, #1
 198 0038 0192     		str	r2, [sp, #4]
 337:Core/Src/main.c ****   __HAL_RCC_GPIOB_CLK_ENABLE();
 199              		.loc 1 337 3 view .LVU40
ARM GAS  C:\Users\jdcox\AppData\Local\Temp\cc7i9zXT.s 			page 16


 200 003a 019A     		ldr	r2, [sp, #4]
 201              	.LBE5:
 337:Core/Src/main.c ****   __HAL_RCC_GPIOB_CLK_ENABLE();
 202              		.loc 1 337 3 view .LVU41
 338:Core/Src/main.c **** 
 203              		.loc 1 338 3 view .LVU42
 204              	.LBB6:
 338:Core/Src/main.c **** 
 205              		.loc 1 338 3 view .LVU43
 206 003c 0294     		str	r4, [sp, #8]
 338:Core/Src/main.c **** 
 207              		.loc 1 338 3 view .LVU44
 208 003e 1A6B     		ldr	r2, [r3, #48]
 209 0040 42F00202 		orr	r2, r2, #2
 210 0044 1A63     		str	r2, [r3, #48]
 338:Core/Src/main.c **** 
 211              		.loc 1 338 3 view .LVU45
 212 0046 1B6B     		ldr	r3, [r3, #48]
 213 0048 03F00203 		and	r3, r3, #2
 214 004c 0293     		str	r3, [sp, #8]
 338:Core/Src/main.c **** 
 215              		.loc 1 338 3 view .LVU46
 216 004e 029B     		ldr	r3, [sp, #8]
 217              	.LBE6:
 338:Core/Src/main.c **** 
 218              		.loc 1 338 3 view .LVU47
 341:Core/Src/main.c **** 
 219              		.loc 1 341 3 view .LVU48
 220 0050 1B4F     		ldr	r7, .L13+4
 221 0052 2246     		mov	r2, r4
 222 0054 0621     		movs	r1, #6
 223 0056 3846     		mov	r0, r7
 224 0058 FFF7FEFF 		bl	HAL_GPIO_WritePin
 225              	.LVL2:
 344:Core/Src/main.c **** 
 226              		.loc 1 344 3 view .LVU49
 227 005c DFF86480 		ldr	r8, .L13+8
 228 0060 2246     		mov	r2, r4
 229 0062 4FF48061 		mov	r1, #1024
 230 0066 4046     		mov	r0, r8
 231 0068 FFF7FEFF 		bl	HAL_GPIO_WritePin
 232              	.LVL3:
 347:Core/Src/main.c ****   GPIO_InitStruct.Mode = GPIO_MODE_IT_FALLING;
 233              		.loc 1 347 3 view .LVU50
 347:Core/Src/main.c ****   GPIO_InitStruct.Mode = GPIO_MODE_IT_FALLING;
 234              		.loc 1 347 23 is_stmt 0 view .LVU51
 235 006c 0125     		movs	r5, #1
 236 006e 0395     		str	r5, [sp, #12]
 348:Core/Src/main.c ****   GPIO_InitStruct.Pull = GPIO_PULLUP;
 237              		.loc 1 348 3 is_stmt 1 view .LVU52
 348:Core/Src/main.c ****   GPIO_InitStruct.Pull = GPIO_PULLUP;
 238              		.loc 1 348 24 is_stmt 0 view .LVU53
 239 0070 4FF40413 		mov	r3, #2162688
 240 0074 0493     		str	r3, [sp, #16]
 349:Core/Src/main.c ****   HAL_GPIO_Init(BTN_IN_GPIO_Port, &GPIO_InitStruct);
 241              		.loc 1 349 3 is_stmt 1 view .LVU54
 349:Core/Src/main.c ****   HAL_GPIO_Init(BTN_IN_GPIO_Port, &GPIO_InitStruct);
ARM GAS  C:\Users\jdcox\AppData\Local\Temp\cc7i9zXT.s 			page 17


 242              		.loc 1 349 24 is_stmt 0 view .LVU55
 243 0076 0595     		str	r5, [sp, #20]
 350:Core/Src/main.c **** 
 244              		.loc 1 350 3 is_stmt 1 view .LVU56
 245 0078 03A9     		add	r1, sp, #12
 246 007a 3846     		mov	r0, r7
 247 007c FFF7FEFF 		bl	HAL_GPIO_Init
 248              	.LVL4:
 353:Core/Src/main.c ****   GPIO_InitStruct.Mode = GPIO_MODE_OUTPUT_PP;
 249              		.loc 1 353 3 view .LVU57
 353:Core/Src/main.c ****   GPIO_InitStruct.Mode = GPIO_MODE_OUTPUT_PP;
 250              		.loc 1 353 23 is_stmt 0 view .LVU58
 251 0080 0626     		movs	r6, #6
 252 0082 0396     		str	r6, [sp, #12]
 354:Core/Src/main.c ****   GPIO_InitStruct.Pull = GPIO_NOPULL;
 253              		.loc 1 354 3 is_stmt 1 view .LVU59
 354:Core/Src/main.c ****   GPIO_InitStruct.Pull = GPIO_NOPULL;
 254              		.loc 1 354 24 is_stmt 0 view .LVU60
 255 0084 0495     		str	r5, [sp, #16]
 355:Core/Src/main.c ****   GPIO_InitStruct.Speed = GPIO_SPEED_FREQ_LOW;
 256              		.loc 1 355 3 is_stmt 1 view .LVU61
 355:Core/Src/main.c ****   GPIO_InitStruct.Speed = GPIO_SPEED_FREQ_LOW;
 257              		.loc 1 355 24 is_stmt 0 view .LVU62
 258 0086 0594     		str	r4, [sp, #20]
 356:Core/Src/main.c ****   HAL_GPIO_Init(GPIOB, &GPIO_InitStruct);
 259              		.loc 1 356 3 is_stmt 1 view .LVU63
 356:Core/Src/main.c ****   HAL_GPIO_Init(GPIOB, &GPIO_InitStruct);
 260              		.loc 1 356 25 is_stmt 0 view .LVU64
 261 0088 0694     		str	r4, [sp, #24]
 357:Core/Src/main.c **** 
 262              		.loc 1 357 3 is_stmt 1 view .LVU65
 263 008a 03A9     		add	r1, sp, #12
 264 008c 3846     		mov	r0, r7
 265 008e FFF7FEFF 		bl	HAL_GPIO_Init
 266              	.LVL5:
 360:Core/Src/main.c ****   GPIO_InitStruct.Mode = GPIO_MODE_OUTPUT_PP;
 267              		.loc 1 360 3 view .LVU66
 360:Core/Src/main.c ****   GPIO_InitStruct.Mode = GPIO_MODE_OUTPUT_PP;
 268              		.loc 1 360 23 is_stmt 0 view .LVU67
 269 0092 4FF48063 		mov	r3, #1024
 270 0096 0393     		str	r3, [sp, #12]
 361:Core/Src/main.c ****   GPIO_InitStruct.Pull = GPIO_NOPULL;
 271              		.loc 1 361 3 is_stmt 1 view .LVU68
 361:Core/Src/main.c ****   GPIO_InitStruct.Pull = GPIO_NOPULL;
 272              		.loc 1 361 24 is_stmt 0 view .LVU69
 273 0098 0495     		str	r5, [sp, #16]
 362:Core/Src/main.c ****   GPIO_InitStruct.Speed = GPIO_SPEED_FREQ_LOW;
 274              		.loc 1 362 3 is_stmt 1 view .LVU70
 362:Core/Src/main.c ****   GPIO_InitStruct.Speed = GPIO_SPEED_FREQ_LOW;
 275              		.loc 1 362 24 is_stmt 0 view .LVU71
 276 009a 0594     		str	r4, [sp, #20]
 363:Core/Src/main.c ****   HAL_GPIO_Init(LORA_CS_GPIO_Port, &GPIO_InitStruct);
 277              		.loc 1 363 3 is_stmt 1 view .LVU72
 363:Core/Src/main.c ****   HAL_GPIO_Init(LORA_CS_GPIO_Port, &GPIO_InitStruct);
 278              		.loc 1 363 25 is_stmt 0 view .LVU73
 279 009c 0694     		str	r4, [sp, #24]
 364:Core/Src/main.c **** 
ARM GAS  C:\Users\jdcox\AppData\Local\Temp\cc7i9zXT.s 			page 18


 280              		.loc 1 364 3 is_stmt 1 view .LVU74
 281 009e 03A9     		add	r1, sp, #12
 282 00a0 4046     		mov	r0, r8
 283 00a2 FFF7FEFF 		bl	HAL_GPIO_Init
 284              	.LVL6:
 367:Core/Src/main.c ****   HAL_NVIC_EnableIRQ(EXTI0_IRQn);
 285              		.loc 1 367 3 view .LVU75
 286 00a6 2246     		mov	r2, r4
 287 00a8 0521     		movs	r1, #5
 288 00aa 3046     		mov	r0, r6
 289 00ac FFF7FEFF 		bl	HAL_NVIC_SetPriority
 290              	.LVL7:
 368:Core/Src/main.c **** 
 291              		.loc 1 368 3 view .LVU76
 292 00b0 3046     		mov	r0, r6
 293 00b2 FFF7FEFF 		bl	HAL_NVIC_EnableIRQ
 294              	.LVL8:
 370:Core/Src/main.c **** 
 295              		.loc 1 370 1 is_stmt 0 view .LVU77
 296 00b6 08B0     		add	sp, sp, #32
 297              	.LCFI2:
 298              		.cfi_def_cfa_offset 24
 299              		@ sp needed
 300 00b8 BDE8F081 		pop	{r4, r5, r6, r7, r8, pc}
 301              	.L14:
 302              		.align	2
 303              	.L13:
 304 00bc 00380240 		.word	1073887232
 305 00c0 00040240 		.word	1073873920
 306 00c4 00000240 		.word	1073872896
 307              		.cfi_endproc
 308              	.LFE143:
 310              		.section	.text.MX_DMA_Init,"ax",%progbits
 311              		.align	1
 312              		.syntax unified
 313              		.thumb
 314              		.thumb_func
 316              	MX_DMA_Init:
 317              	.LFB142:
 314:Core/Src/main.c **** 
 318              		.loc 1 314 1 is_stmt 1 view -0
 319              		.cfi_startproc
 320              		@ args = 0, pretend = 0, frame = 8
 321              		@ frame_needed = 0, uses_anonymous_args = 0
 322 0000 00B5     		push	{lr}
 323              	.LCFI3:
 324              		.cfi_def_cfa_offset 4
 325              		.cfi_offset 14, -4
 326 0002 83B0     		sub	sp, sp, #12
 327              	.LCFI4:
 328              		.cfi_def_cfa_offset 16
 317:Core/Src/main.c **** 
 329              		.loc 1 317 3 view .LVU79
 330              	.LBB7:
 317:Core/Src/main.c **** 
 331              		.loc 1 317 3 view .LVU80
 332 0004 0022     		movs	r2, #0
ARM GAS  C:\Users\jdcox\AppData\Local\Temp\cc7i9zXT.s 			page 19


 333 0006 0192     		str	r2, [sp, #4]
 317:Core/Src/main.c **** 
 334              		.loc 1 317 3 view .LVU81
 335 0008 094B     		ldr	r3, .L17
 336 000a 196B     		ldr	r1, [r3, #48]
 337 000c 41F40011 		orr	r1, r1, #2097152
 338 0010 1963     		str	r1, [r3, #48]
 317:Core/Src/main.c **** 
 339              		.loc 1 317 3 view .LVU82
 340 0012 1B6B     		ldr	r3, [r3, #48]
 341 0014 03F40013 		and	r3, r3, #2097152
 342 0018 0193     		str	r3, [sp, #4]
 317:Core/Src/main.c **** 
 343              		.loc 1 317 3 view .LVU83
 344 001a 019B     		ldr	r3, [sp, #4]
 345              	.LBE7:
 317:Core/Src/main.c **** 
 346              		.loc 1 317 3 view .LVU84
 321:Core/Src/main.c ****   HAL_NVIC_EnableIRQ(DMA1_Stream6_IRQn);
 347              		.loc 1 321 3 view .LVU85
 348 001c 0521     		movs	r1, #5
 349 001e 1120     		movs	r0, #17
 350 0020 FFF7FEFF 		bl	HAL_NVIC_SetPriority
 351              	.LVL9:
 322:Core/Src/main.c **** 
 352              		.loc 1 322 3 view .LVU86
 353 0024 1120     		movs	r0, #17
 354 0026 FFF7FEFF 		bl	HAL_NVIC_EnableIRQ
 355              	.LVL10:
 324:Core/Src/main.c **** 
 356              		.loc 1 324 1 is_stmt 0 view .LVU87
 357 002a 03B0     		add	sp, sp, #12
 358              	.LCFI5:
 359              		.cfi_def_cfa_offset 4
 360              		@ sp needed
 361 002c 5DF804FB 		ldr	pc, [sp], #4
 362              	.L18:
 363              		.align	2
 364              	.L17:
 365 0030 00380240 		.word	1073887232
 366              		.cfi_endproc
 367              	.LFE142:
 369              		.section	.text.StartDisplayTask,"ax",%progbits
 370              		.align	1
 371              		.global	StartDisplayTask
 372              		.syntax unified
 373              		.thumb
 374              		.thumb_func
 376              	StartDisplayTask:
 377              	.LFB146:
 579:Core/Src/main.c ****   /* USER CODE BEGIN StartDisplayTask */
 378              		.loc 1 579 1 is_stmt 1 view -0
 379              		.cfi_startproc
 380              		@ Volatile: function does not return.
 381              		@ args = 0, pretend = 0, frame = 0
 382              		@ frame_needed = 0, uses_anonymous_args = 0
 383              	.LVL11:
ARM GAS  C:\Users\jdcox\AppData\Local\Temp\cc7i9zXT.s 			page 20


 579:Core/Src/main.c ****   /* USER CODE BEGIN StartDisplayTask */
 384              		.loc 1 579 1 is_stmt 0 view .LVU89
 385 0000 08B5     		push	{r3, lr}
 386              	.LCFI6:
 387              		.cfi_def_cfa_offset 8
 388              		.cfi_offset 3, -8
 389              		.cfi_offset 14, -4
 390              	.LVL12:
 391              	.L20:
 582:Core/Src/main.c ****   {
 392              		.loc 1 582 3 is_stmt 1 discriminator 1 view .LVU90
 585:Core/Src/main.c ****   }
 393              		.loc 1 585 5 discriminator 1 view .LVU91
 394 0002 6420     		movs	r0, #100
 395 0004 FFF7FEFF 		bl	osDelay
 396              	.LVL13:
 582:Core/Src/main.c ****   {
 397              		.loc 1 582 3 discriminator 1 view .LVU92
 398 0008 FBE7     		b	.L20
 399              		.cfi_endproc
 400              	.LFE146:
 402              		.section	.rodata.StartDefaultTask.str1.4,"aMS",%progbits,1
 403              		.align	2
 404              	.LC6:
 405 0000 4B494E47 		.ascii	"KING\000"
 405      00
 406 0005 000000   		.align	2
 407              	.LC7:
 408 0008 4F4600   		.ascii	"OF\000"
 409 000b 00       		.align	2
 410              	.LC8:
 411 000c 54484500 		.ascii	"THE\000"
 412              		.align	2
 413              	.LC9:
 414 0010 48494C4C 		.ascii	"HILL\000"
 414      00
 415 0015 000000   		.align	2
 416              	.LC10:
 417 0018 50757368 		.ascii	"Push to play\000"
 417      20746F20 
 417      706C6179 
 417      00
 418 0025 000000   		.align	2
 419              	.LC11:
 420 0028 596F7520 		.ascii	"You are king\000"
 420      61726520 
 420      6B696E67 
 420      00
 421 0035 000000   		.align	2
 422              	.LC12:
 423 0038 6F662074 		.ascii	"of the hill!\000"
 423      68652068 
 423      696C6C21 
 423      00
 424 0045 000000   		.align	2
 425              	.LC13:
 426 0048 54616B65 		.ascii	"Take the hill!!\000"
ARM GAS  C:\Users\jdcox\AppData\Local\Temp\cc7i9zXT.s 			page 21


 426      20746865 
 426      2068696C 
 426      6C212100 
 427              		.align	2
 428              	.LC14:
 429 0058 50312077 		.ascii	"P1 wins!\000"
 429      696E7321 
 429      00
 430 0061 000000   		.align	2
 431              	.LC15:
 432 0064 576F6E20 		.ascii	"Won by %ums\000"
 432      62792025 
 432      756D7300 
 433              		.align	2
 434              	.LC16:
 435 0070 50322077 		.ascii	"P2 wins!\000"
 435      696E7321 
 435      00
 436 0079 000000   		.align	2
 437              	.LC17:
 438 007c 50656E61 		.ascii	"Penalty!\000"
 438      6C747921 
 438      00
 439              		.section	.text.StartDefaultTask,"ax",%progbits
 440              		.align	1
 441              		.global	StartDefaultTask
 442              		.syntax unified
 443              		.thumb
 444              		.thumb_func
 446              	StartDefaultTask:
 447              	.LVL14:
 448              	.LFB144:
 384:Core/Src/main.c ****   /* USER CODE BEGIN 5 */
 449              		.loc 1 384 1 view -0
 450              		.cfi_startproc
 451              		@ args = 0, pretend = 0, frame = 16
 452              		@ frame_needed = 0, uses_anonymous_args = 0
 384:Core/Src/main.c ****   /* USER CODE BEGIN 5 */
 453              		.loc 1 384 1 is_stmt 0 view .LVU94
 454 0000 30B5     		push	{r4, r5, lr}
 455              	.LCFI7:
 456              		.cfi_def_cfa_offset 12
 457              		.cfi_offset 4, -12
 458              		.cfi_offset 5, -8
 459              		.cfi_offset 14, -4
 460 0002 87B0     		sub	sp, sp, #28
 461              	.LCFI8:
 462              		.cfi_def_cfa_offset 40
 386:Core/Src/main.c ****   // debug osMutexWait(lora_mutexHandle, osWaitForever);
 463              		.loc 1 386 3 is_stmt 1 view .LVU95
 386:Core/Src/main.c ****   // debug osMutexWait(lora_mutexHandle, osWaitForever);
 464              		.loc 1 386 16 is_stmt 0 view .LVU96
 465 0004 0120     		movs	r0, #1
 466              	.LVL15:
 386:Core/Src/main.c ****   // debug osMutexWait(lora_mutexHandle, osWaitForever);
 467              		.loc 1 386 16 view .LVU97
 468 0006 FFF7FEFF 		bl	xQueueCreateMutex
ARM GAS  C:\Users\jdcox\AppData\Local\Temp\cc7i9zXT.s 			page 22


 469              	.LVL16:
 386:Core/Src/main.c ****   // debug osMutexWait(lora_mutexHandle, osWaitForever);
 470              		.loc 1 386 14 view .LVU98
 471 000a B54C     		ldr	r4, .L35+8
 472 000c 2060     		str	r0, [r4]
 388:Core/Src/main.c ****   uint8_t res = lora_init(&lora, &hspi1, LORA_CS_GPIO_Port, LORA_CS_Pin, LORA_BASE_FREQUENCY_CH);
 473              		.loc 1 388 3 is_stmt 1 view .LVU99
 474 000e 4FF0FF31 		mov	r1, #-1
 475 0012 FFF7FEFF 		bl	xQueueSemaphoreTake
 476              	.LVL17:
 389:Core/Src/main.c ****   if (res != LORA_OK) {
 477              		.loc 1 389 3 view .LVU100
 389:Core/Src/main.c ****   if (res != LORA_OK) {
 478              		.loc 1 389 17 is_stmt 0 view .LVU101
 479 0016 B34D     		ldr	r5, .L35+12
 480 0018 AFA3     		adr	r3, .L35
 481 001a D3E90023 		ldrd	r2, [r3]
 482 001e CDE90023 		strd	r2, [sp]
 483 0022 4FF48063 		mov	r3, #1024
 484 0026 B04A     		ldr	r2, .L35+16
 485 0028 B049     		ldr	r1, .L35+20
 486 002a 2846     		mov	r0, r5
 487 002c FFF7FEFF 		bl	lora_init
 488              	.LVL18:
 390:Core/Src/main.c ****     // Initialization failed
 489              		.loc 1 390 3 is_stmt 1 view .LVU102
 396:Core/Src/main.c ****   //debug osMutexRelease(lora_mutexHandle);
 490              		.loc 1 396 3 view .LVU103
 491 0030 0023     		movs	r3, #0
 492 0032 1A46     		mov	r2, r3
 493 0034 1946     		mov	r1, r3
 494 0036 2068     		ldr	r0, [r4]
 495 0038 FFF7FEFF 		bl	xQueueGenericSend
 496              	.LVL19:
 400:Core/Src/main.c ****   ssd1306_Init();
 497              		.loc 1 400 3 view .LVU104
 498 003c 0122     		movs	r2, #1
 499 003e 0221     		movs	r1, #2
 500 0040 AB48     		ldr	r0, .L35+24
 501 0042 FFF7FEFF 		bl	HAL_GPIO_WritePin
 502              	.LVL20:
 401:Core/Src/main.c ****   ssd1306_SetCursor(0,0);
 503              		.loc 1 401 3 view .LVU105
 504 0046 FFF7FEFF 		bl	ssd1306_Init
 505              	.LVL21:
 402:Core/Src/main.c ****   ssd1306_WriteString("KING",Font_16x24,1);
 506              		.loc 1 402 3 view .LVU106
 507 004a 0021     		movs	r1, #0
 508 004c 0846     		mov	r0, r1
 509 004e FFF7FEFF 		bl	ssd1306_SetCursor
 510              	.LVL22:
 403:Core/Src/main.c ****   ssd1306_UpdateScreen();
 511              		.loc 1 403 3 view .LVU107
 512 0052 A84C     		ldr	r4, .L35+28
 513 0054 0123     		movs	r3, #1
 514 0056 94E80600 		ldm	r4, {r1, r2}
 515 005a A748     		ldr	r0, .L35+32
ARM GAS  C:\Users\jdcox\AppData\Local\Temp\cc7i9zXT.s 			page 23


 516 005c FFF7FEFF 		bl	ssd1306_WriteString
 517              	.LVL23:
 404:Core/Src/main.c ****   osDelay(750);
 518              		.loc 1 404 3 view .LVU108
 519 0060 FFF7FEFF 		bl	ssd1306_UpdateScreen
 520              	.LVL24:
 405:Core/Src/main.c ****   ssd1306_Fill(0);
 521              		.loc 1 405 3 view .LVU109
 522 0064 40F2EE20 		movw	r0, #750
 523 0068 FFF7FEFF 		bl	osDelay
 524              	.LVL25:
 406:Core/Src/main.c ****   ssd1306_SetCursor(64,0);
 525              		.loc 1 406 3 view .LVU110
 526 006c 0020     		movs	r0, #0
 527 006e FFF7FEFF 		bl	ssd1306_Fill
 528              	.LVL26:
 407:Core/Src/main.c ****   ssd1306_WriteString("OF",Font_16x24,1);
 529              		.loc 1 407 3 view .LVU111
 530 0072 0021     		movs	r1, #0
 531 0074 4020     		movs	r0, #64
 532 0076 FFF7FEFF 		bl	ssd1306_SetCursor
 533              	.LVL27:
 408:Core/Src/main.c ****   ssd1306_UpdateScreen();
 534              		.loc 1 408 3 view .LVU112
 535 007a 0123     		movs	r3, #1
 536 007c 94E80600 		ldm	r4, {r1, r2}
 537 0080 9E48     		ldr	r0, .L35+36
 538 0082 FFF7FEFF 		bl	ssd1306_WriteString
 539              	.LVL28:
 409:Core/Src/main.c ****   osDelay(750);
 540              		.loc 1 409 3 view .LVU113
 541 0086 FFF7FEFF 		bl	ssd1306_UpdateScreen
 542              	.LVL29:
 410:Core/Src/main.c ****   ssd1306_Fill(0);
 543              		.loc 1 410 3 view .LVU114
 544 008a 40F2EE20 		movw	r0, #750
 545 008e FFF7FEFF 		bl	osDelay
 546              	.LVL30:
 411:Core/Src/main.c ****   ssd1306_SetCursor(0,8);
 547              		.loc 1 411 3 view .LVU115
 548 0092 0020     		movs	r0, #0
 549 0094 FFF7FEFF 		bl	ssd1306_Fill
 550              	.LVL31:
 412:Core/Src/main.c ****   ssd1306_WriteString("THE",Font_16x24,1);
 551              		.loc 1 412 3 view .LVU116
 552 0098 0821     		movs	r1, #8
 553 009a 0020     		movs	r0, #0
 554 009c FFF7FEFF 		bl	ssd1306_SetCursor
 555              	.LVL32:
 413:Core/Src/main.c ****   ssd1306_UpdateScreen();
 556              		.loc 1 413 3 view .LVU117
 557 00a0 0123     		movs	r3, #1
 558 00a2 94E80600 		ldm	r4, {r1, r2}
 559 00a6 9648     		ldr	r0, .L35+40
 560 00a8 FFF7FEFF 		bl	ssd1306_WriteString
 561              	.LVL33:
 414:Core/Src/main.c ****   osDelay(750);
ARM GAS  C:\Users\jdcox\AppData\Local\Temp\cc7i9zXT.s 			page 24


 562              		.loc 1 414 3 view .LVU118
 563 00ac FFF7FEFF 		bl	ssd1306_UpdateScreen
 564              	.LVL34:
 415:Core/Src/main.c ****   ssd1306_Fill(0);
 565              		.loc 1 415 3 view .LVU119
 566 00b0 40F2EE20 		movw	r0, #750
 567 00b4 FFF7FEFF 		bl	osDelay
 568              	.LVL35:
 416:Core/Src/main.c ****   ssd1306_SetCursor(64,8);
 569              		.loc 1 416 3 view .LVU120
 570 00b8 0020     		movs	r0, #0
 571 00ba FFF7FEFF 		bl	ssd1306_Fill
 572              	.LVL36:
 417:Core/Src/main.c ****   ssd1306_WriteString("HILL",Font_16x24,1);
 573              		.loc 1 417 3 view .LVU121
 574 00be 0821     		movs	r1, #8
 575 00c0 4020     		movs	r0, #64
 576 00c2 FFF7FEFF 		bl	ssd1306_SetCursor
 577              	.LVL37:
 418:Core/Src/main.c ****   ssd1306_UpdateScreen();
 578              		.loc 1 418 3 view .LVU122
 579 00c6 0123     		movs	r3, #1
 580 00c8 94E80600 		ldm	r4, {r1, r2}
 581 00cc 8D48     		ldr	r0, .L35+44
 582 00ce FFF7FEFF 		bl	ssd1306_WriteString
 583              	.LVL38:
 419:Core/Src/main.c **** 
 584              		.loc 1 419 3 view .LVU123
 585 00d2 FFF7FEFF 		bl	ssd1306_UpdateScreen
 586              	.LVL39:
 421:Core/Src/main.c **** 
 587              		.loc 1 421 3 view .LVU124
 588 00d6 2846     		mov	r0, r5
 589 00d8 FFF7FEFF 		bl	lora_mode_receive_continuous
 590              	.LVL40:
 423:Core/Src/main.c **** 
 591              		.loc 1 423 3 view .LVU125
 592 00dc 4FF4FA60 		mov	r0, #2000
 593 00e0 FFF7FEFF 		bl	osDelay
 594              	.LVL41:
 425:Core/Src/main.c ****   stateChange_flag = 1;
 595              		.loc 1 425 3 view .LVU126
 425:Core/Src/main.c ****   stateChange_flag = 1;
 596              		.loc 1 425 13 is_stmt 0 view .LVU127
 597 00e4 884B     		ldr	r3, .L35+48
 598 00e6 0022     		movs	r2, #0
 599 00e8 1A70     		strb	r2, [r3]
 426:Core/Src/main.c ****   
 600              		.loc 1 426 3 is_stmt 1 view .LVU128
 426:Core/Src/main.c ****   
 601              		.loc 1 426 20 is_stmt 0 view .LVU129
 602 00ea 884B     		ldr	r3, .L35+52
 603 00ec 0122     		movs	r2, #1
 604 00ee 1A70     		strb	r2, [r3]
 605 00f0 05E0     		b	.L31
 606              	.L30:
 438:Core/Src/main.c ****         {
ARM GAS  C:\Users\jdcox\AppData\Local\Temp\cc7i9zXT.s 			page 25


 607              		.loc 1 438 9 is_stmt 1 view .LVU130
 438:Core/Src/main.c ****         {
 608              		.loc 1 438 12 is_stmt 0 view .LVU131
 609 00f2 864B     		ldr	r3, .L35+52
 610 00f4 1B78     		ldrb	r3, [r3]	@ zero_extendqisi2
 438:Core/Src/main.c ****         {
 611              		.loc 1 438 11 view .LVU132
 612 00f6 CBB9     		cbnz	r3, .L34
 613              	.L23:
 525:Core/Src/main.c ****    
 614              		.loc 1 525 5 is_stmt 1 view .LVU133
 615 00f8 0120     		movs	r0, #1
 616 00fa FFF7FEFF 		bl	osDelay
 617              	.LVL42:
 430:Core/Src/main.c ****   {
 618              		.loc 1 430 3 view .LVU134
 619              	.L31:
 430:Core/Src/main.c ****   {
 620              		.loc 1 430 3 view .LVU135
 433:Core/Src/main.c ****     
 621              		.loc 1 433 5 view .LVU136
 622 00fe 0221     		movs	r1, #2
 623 0100 7B48     		ldr	r0, .L35+24
 624 0102 FFF7FEFF 		bl	HAL_GPIO_TogglePin
 625              	.LVL43:
 435:Core/Src/main.c ****     {
 626              		.loc 1 435 5 view .LVU137
 627 0106 804B     		ldr	r3, .L35+48
 628 0108 1B78     		ldrb	r3, [r3]	@ zero_extendqisi2
 629 010a 052B     		cmp	r3, #5
 630 010c F4D8     		bhi	.L23
 631 010e 01A2     		adr	r2, .L25
 632 0110 52F823F0 		ldr	pc, [r2, r3, lsl #2]
 633              		.p2align 2
 634              	.L25:
 635 0114 F3000000 		.word	.L30+1
 636 0118 53010000 		.word	.L29+1
 637 011c A1010000 		.word	.L28+1
 638 0120 D9010000 		.word	.L27+1
 639 0124 3B020000 		.word	.L26+1
 640 0128 9F020000 		.word	.L24+1
 641              		.p2align 1
 642              	.L34:
 440:Core/Src/main.c ****           ssd1306_Fill(0); 
 643              		.loc 1 440 11 view .LVU138
 440:Core/Src/main.c ****           ssd1306_Fill(0); 
 644              		.loc 1 440 28 is_stmt 0 view .LVU139
 645 012c 0024     		movs	r4, #0
 646 012e 774B     		ldr	r3, .L35+52
 647 0130 1C70     		strb	r4, [r3]
 441:Core/Src/main.c ****           ssd1306_SetCursor(0,0);
 648              		.loc 1 441 11 is_stmt 1 view .LVU140
 649 0132 2046     		mov	r0, r4
 650 0134 FFF7FEFF 		bl	ssd1306_Fill
 651              	.LVL44:
 442:Core/Src/main.c ****           ssd1306_WriteString("Push to play",Font_7x10,1);
 652              		.loc 1 442 11 view .LVU141
ARM GAS  C:\Users\jdcox\AppData\Local\Temp\cc7i9zXT.s 			page 26


 653 0138 2146     		mov	r1, r4
 654 013a 2046     		mov	r0, r4
 655 013c FFF7FEFF 		bl	ssd1306_SetCursor
 656              	.LVL45:
 443:Core/Src/main.c ****           ssd1306_UpdateScreen();
 657              		.loc 1 443 11 view .LVU142
 658 0140 734A     		ldr	r2, .L35+56
 659 0142 0123     		movs	r3, #1
 660 0144 06CA     		ldm	r2, {r1, r2}
 661 0146 7348     		ldr	r0, .L35+60
 662 0148 FFF7FEFF 		bl	ssd1306_WriteString
 663              	.LVL46:
 444:Core/Src/main.c ****         }
 664              		.loc 1 444 11 view .LVU143
 665 014c FFF7FEFF 		bl	ssd1306_UpdateScreen
 666              	.LVL47:
 667 0150 D2E7     		b	.L23
 668              	.L29:
 449:Core/Src/main.c ****         {
 669              		.loc 1 449 9 view .LVU144
 449:Core/Src/main.c ****         {
 670              		.loc 1 449 12 is_stmt 0 view .LVU145
 671 0152 6E4B     		ldr	r3, .L35+52
 672 0154 1B78     		ldrb	r3, [r3]	@ zero_extendqisi2
 449:Core/Src/main.c ****         {
 673              		.loc 1 449 11 view .LVU146
 674 0156 002B     		cmp	r3, #0
 675 0158 CED0     		beq	.L23
 451:Core/Src/main.c ****           P1LED_OFF; // The hill is yours
 676              		.loc 1 451 11 is_stmt 1 view .LVU147
 451:Core/Src/main.c ****           P1LED_OFF; // The hill is yours
 677              		.loc 1 451 28 is_stmt 0 view .LVU148
 678 015a 0024     		movs	r4, #0
 679 015c 6B4B     		ldr	r3, .L35+52
 680 015e 1C70     		strb	r4, [r3]
 452:Core/Src/main.c ****           ssd1306_Fill(0);
 681              		.loc 1 452 11 is_stmt 1 view .LVU149
 682 0160 0122     		movs	r2, #1
 683 0162 0221     		movs	r1, #2
 684 0164 6248     		ldr	r0, .L35+24
 685 0166 FFF7FEFF 		bl	HAL_GPIO_WritePin
 686              	.LVL48:
 453:Core/Src/main.c ****           ssd1306_SetCursor(0,0);
 687              		.loc 1 453 11 view .LVU150
 688 016a 2046     		mov	r0, r4
 689 016c FFF7FEFF 		bl	ssd1306_Fill
 690              	.LVL49:
 454:Core/Src/main.c ****           ssd1306_WriteString("You are king",Font_7x10,1);
 691              		.loc 1 454 11 view .LVU151
 692 0170 2146     		mov	r1, r4
 693 0172 2046     		mov	r0, r4
 694 0174 FFF7FEFF 		bl	ssd1306_SetCursor
 695              	.LVL50:
 455:Core/Src/main.c ****           ssd1306_SetCursor(0,10);
 696              		.loc 1 455 11 view .LVU152
 697 0178 654D     		ldr	r5, .L35+56
 698 017a 0123     		movs	r3, #1
ARM GAS  C:\Users\jdcox\AppData\Local\Temp\cc7i9zXT.s 			page 27


 699 017c 95E80600 		ldm	r5, {r1, r2}
 700 0180 6548     		ldr	r0, .L35+64
 701 0182 FFF7FEFF 		bl	ssd1306_WriteString
 702              	.LVL51:
 456:Core/Src/main.c ****           ssd1306_WriteString("of the hill!",Font_7x10,1);
 703              		.loc 1 456 11 view .LVU153
 704 0186 0A21     		movs	r1, #10
 705 0188 2046     		mov	r0, r4
 706 018a FFF7FEFF 		bl	ssd1306_SetCursor
 707              	.LVL52:
 457:Core/Src/main.c ****           ssd1306_UpdateScreen();
 708              		.loc 1 457 11 view .LVU154
 709 018e 0123     		movs	r3, #1
 710 0190 95E80600 		ldm	r5, {r1, r2}
 711 0194 6148     		ldr	r0, .L35+68
 712 0196 FFF7FEFF 		bl	ssd1306_WriteString
 713              	.LVL53:
 458:Core/Src/main.c ****         }
 714              		.loc 1 458 11 view .LVU155
 715 019a FFF7FEFF 		bl	ssd1306_UpdateScreen
 716              	.LVL54:
 717 019e ABE7     		b	.L23
 718              	.L28:
 463:Core/Src/main.c ****         {
 719              		.loc 1 463 9 view .LVU156
 463:Core/Src/main.c ****         {
 720              		.loc 1 463 12 is_stmt 0 view .LVU157
 721 01a0 5A4B     		ldr	r3, .L35+52
 722 01a2 1B78     		ldrb	r3, [r3]	@ zero_extendqisi2
 463:Core/Src/main.c ****         {
 723              		.loc 1 463 11 view .LVU158
 724 01a4 002B     		cmp	r3, #0
 725 01a6 A7D0     		beq	.L23
 465:Core/Src/main.c ****           P1LED_ON; // Better push the button!
 726              		.loc 1 465 11 is_stmt 1 view .LVU159
 465:Core/Src/main.c ****           P1LED_ON; // Better push the button!
 727              		.loc 1 465 28 is_stmt 0 view .LVU160
 728 01a8 0024     		movs	r4, #0
 729 01aa 584B     		ldr	r3, .L35+52
 730 01ac 1C70     		strb	r4, [r3]
 466:Core/Src/main.c ****           ssd1306_Fill(0);
 731              		.loc 1 466 11 is_stmt 1 view .LVU161
 732 01ae 2246     		mov	r2, r4
 733 01b0 0221     		movs	r1, #2
 734 01b2 4F48     		ldr	r0, .L35+24
 735 01b4 FFF7FEFF 		bl	HAL_GPIO_WritePin
 736              	.LVL55:
 467:Core/Src/main.c ****           ssd1306_SetCursor(0,0);
 737              		.loc 1 467 11 view .LVU162
 738 01b8 2046     		mov	r0, r4
 739 01ba FFF7FEFF 		bl	ssd1306_Fill
 740              	.LVL56:
 468:Core/Src/main.c ****           ssd1306_WriteString("Take the hill!!",Font_7x10,1);
 741              		.loc 1 468 11 view .LVU163
 742 01be 2146     		mov	r1, r4
 743 01c0 2046     		mov	r0, r4
 744 01c2 FFF7FEFF 		bl	ssd1306_SetCursor
ARM GAS  C:\Users\jdcox\AppData\Local\Temp\cc7i9zXT.s 			page 28


 745              	.LVL57:
 469:Core/Src/main.c ****           ssd1306_UpdateScreen();
 746              		.loc 1 469 11 view .LVU164
 747 01c6 524A     		ldr	r2, .L35+56
 748 01c8 0123     		movs	r3, #1
 749 01ca 06CA     		ldm	r2, {r1, r2}
 750 01cc 5448     		ldr	r0, .L35+72
 751 01ce FFF7FEFF 		bl	ssd1306_WriteString
 752              	.LVL58:
 470:Core/Src/main.c ****         }
 753              		.loc 1 470 11 view .LVU165
 754 01d2 FFF7FEFF 		bl	ssd1306_UpdateScreen
 755              	.LVL59:
 756 01d6 8FE7     		b	.L23
 757              	.L27:
 475:Core/Src/main.c ****         {
 758              		.loc 1 475 9 view .LVU166
 475:Core/Src/main.c ****         {
 759              		.loc 1 475 12 is_stmt 0 view .LVU167
 760 01d8 4C4B     		ldr	r3, .L35+52
 761 01da 1B78     		ldrb	r3, [r3]	@ zero_extendqisi2
 475:Core/Src/main.c ****         {
 762              		.loc 1 475 11 view .LVU168
 763 01dc 002B     		cmp	r3, #0
 764 01de 8BD0     		beq	.L23
 765              	.LBB8:
 477:Core/Src/main.c ****           P1LED_OFF;
 766              		.loc 1 477 11 is_stmt 1 view .LVU169
 477:Core/Src/main.c ****           P1LED_OFF;
 767              		.loc 1 477 28 is_stmt 0 view .LVU170
 768 01e0 0024     		movs	r4, #0
 769 01e2 4A4B     		ldr	r3, .L35+52
 770 01e4 1C70     		strb	r4, [r3]
 478:Core/Src/main.c ****           ssd1306_Fill(0);
 771              		.loc 1 478 11 is_stmt 1 view .LVU171
 772 01e6 0122     		movs	r2, #1
 773 01e8 0221     		movs	r1, #2
 774 01ea 4148     		ldr	r0, .L35+24
 775 01ec FFF7FEFF 		bl	HAL_GPIO_WritePin
 776              	.LVL60:
 479:Core/Src/main.c ****           ssd1306_SetCursor(0,0);
 777              		.loc 1 479 11 view .LVU172
 778 01f0 2046     		mov	r0, r4
 779 01f2 FFF7FEFF 		bl	ssd1306_Fill
 780              	.LVL61:
 480:Core/Src/main.c ****           ssd1306_WriteString("P1 wins!",Font_7x10,1);
 781              		.loc 1 480 11 view .LVU173
 782 01f6 2146     		mov	r1, r4
 783 01f8 2046     		mov	r0, r4
 784 01fa FFF7FEFF 		bl	ssd1306_SetCursor
 785              	.LVL62:
 481:Core/Src/main.c ****           char score [16];
 786              		.loc 1 481 11 view .LVU174
 787 01fe 444D     		ldr	r5, .L35+56
 788 0200 0123     		movs	r3, #1
 789 0202 95E80600 		ldm	r5, {r1, r2}
 790 0206 4748     		ldr	r0, .L35+76
ARM GAS  C:\Users\jdcox\AppData\Local\Temp\cc7i9zXT.s 			page 29


 791 0208 FFF7FEFF 		bl	ssd1306_WriteString
 792              	.LVL63:
 482:Core/Src/main.c ****           uint16_t difference = p1King_counter - p2King_counter;
 793              		.loc 1 482 11 view .LVU175
 483:Core/Src/main.c ****           sprintf(score, "Won by %ums", difference);
 794              		.loc 1 483 11 view .LVU176
 483:Core/Src/main.c ****           sprintf(score, "Won by %ums", difference);
 795              		.loc 1 483 48 is_stmt 0 view .LVU177
 796 020c 464B     		ldr	r3, .L35+80
 797 020e 1A88     		ldrh	r2, [r3]
 798 0210 464B     		ldr	r3, .L35+84
 799 0212 1B88     		ldrh	r3, [r3]
 483:Core/Src/main.c ****           sprintf(score, "Won by %ums", difference);
 800              		.loc 1 483 20 view .LVU178
 801 0214 D21A     		subs	r2, r2, r3
 802              	.LVL64:
 484:Core/Src/main.c ****           lcd_put_cur(1,0);
 803              		.loc 1 484 11 is_stmt 1 view .LVU179
 804 0216 92B2     		uxth	r2, r2
 484:Core/Src/main.c ****           lcd_put_cur(1,0);
 805              		.loc 1 484 11 is_stmt 0 view .LVU180
 806 0218 4549     		ldr	r1, .L35+88
 807 021a 02A8     		add	r0, sp, #8
 808 021c FFF7FEFF 		bl	sprintf
 809              	.LVL65:
 485:Core/Src/main.c ****           ssd1306_WriteString(score,Font_7x10,1);
 810              		.loc 1 485 11 is_stmt 1 view .LVU181
 811 0220 2146     		mov	r1, r4
 812 0222 0120     		movs	r0, #1
 813 0224 FFF7FEFF 		bl	lcd_put_cur
 814              	.LVL66:
 486:Core/Src/main.c ****           ssd1306_UpdateScreen();
 815              		.loc 1 486 11 view .LVU182
 816 0228 0123     		movs	r3, #1
 817 022a 95E80600 		ldm	r5, {r1, r2}
 818 022e 02A8     		add	r0, sp, #8
 819 0230 FFF7FEFF 		bl	ssd1306_WriteString
 820              	.LVL67:
 487:Core/Src/main.c **** 
 821              		.loc 1 487 11 view .LVU183
 822 0234 FFF7FEFF 		bl	ssd1306_UpdateScreen
 823              	.LVL68:
 824 0238 5EE7     		b	.L23
 825              	.L26:
 487:Core/Src/main.c **** 
 826              		.loc 1 487 11 is_stmt 0 view .LVU184
 827              	.LBE8:
 493:Core/Src/main.c ****         {
 828              		.loc 1 493 9 is_stmt 1 view .LVU185
 493:Core/Src/main.c ****         {
 829              		.loc 1 493 12 is_stmt 0 view .LVU186
 830 023a 344B     		ldr	r3, .L35+52
 831 023c 1B78     		ldrb	r3, [r3]	@ zero_extendqisi2
 493:Core/Src/main.c ****         {
 832              		.loc 1 493 11 view .LVU187
 833 023e 002B     		cmp	r3, #0
 834 0240 3FF45AAF 		beq	.L23
ARM GAS  C:\Users\jdcox\AppData\Local\Temp\cc7i9zXT.s 			page 30


 835              	.LBB9:
 495:Core/Src/main.c ****           P1LED_OFF;
 836              		.loc 1 495 11 is_stmt 1 view .LVU188
 495:Core/Src/main.c ****           P1LED_OFF;
 837              		.loc 1 495 28 is_stmt 0 view .LVU189
 838 0244 0024     		movs	r4, #0
 839 0246 314B     		ldr	r3, .L35+52
 840 0248 1C70     		strb	r4, [r3]
 496:Core/Src/main.c ****           ssd1306_Fill(0);
 841              		.loc 1 496 11 is_stmt 1 view .LVU190
 842 024a 0122     		movs	r2, #1
 843 024c 0221     		movs	r1, #2
 844 024e 2848     		ldr	r0, .L35+24
 845 0250 FFF7FEFF 		bl	HAL_GPIO_WritePin
 846              	.LVL69:
 497:Core/Src/main.c ****           ssd1306_SetCursor(0,0);
 847              		.loc 1 497 11 view .LVU191
 848 0254 2046     		mov	r0, r4
 849 0256 FFF7FEFF 		bl	ssd1306_Fill
 850              	.LVL70:
 498:Core/Src/main.c ****           ssd1306_WriteString("P2 wins!",Font_7x10,1);
 851              		.loc 1 498 11 view .LVU192
 852 025a 2146     		mov	r1, r4
 853 025c 2046     		mov	r0, r4
 854 025e FFF7FEFF 		bl	ssd1306_SetCursor
 855              	.LVL71:
 499:Core/Src/main.c ****           char score [16];
 856              		.loc 1 499 11 view .LVU193
 857 0262 2B4D     		ldr	r5, .L35+56
 858 0264 0123     		movs	r3, #1
 859 0266 95E80600 		ldm	r5, {r1, r2}
 860 026a 3248     		ldr	r0, .L35+92
 861 026c FFF7FEFF 		bl	ssd1306_WriteString
 862              	.LVL72:
 500:Core/Src/main.c ****           uint16_t difference = p2King_counter - p1King_counter;
 863              		.loc 1 500 11 view .LVU194
 501:Core/Src/main.c ****           sprintf(score, "Won by %ums", difference);
 864              		.loc 1 501 11 view .LVU195
 501:Core/Src/main.c ****           sprintf(score, "Won by %ums", difference);
 865              		.loc 1 501 48 is_stmt 0 view .LVU196
 866 0270 2E4B     		ldr	r3, .L35+84
 867 0272 1A88     		ldrh	r2, [r3]
 868 0274 2C4B     		ldr	r3, .L35+80
 869 0276 1B88     		ldrh	r3, [r3]
 501:Core/Src/main.c ****           sprintf(score, "Won by %ums", difference);
 870              		.loc 1 501 20 view .LVU197
 871 0278 D21A     		subs	r2, r2, r3
 872              	.LVL73:
 502:Core/Src/main.c ****           lcd_put_cur(1,0);
 873              		.loc 1 502 11 is_stmt 1 view .LVU198
 874 027a 92B2     		uxth	r2, r2
 502:Core/Src/main.c ****           lcd_put_cur(1,0);
 875              		.loc 1 502 11 is_stmt 0 view .LVU199
 876 027c 2C49     		ldr	r1, .L35+88
 877 027e 02A8     		add	r0, sp, #8
 878 0280 FFF7FEFF 		bl	sprintf
 879              	.LVL74:
ARM GAS  C:\Users\jdcox\AppData\Local\Temp\cc7i9zXT.s 			page 31


 503:Core/Src/main.c ****           ssd1306_WriteString(score,Font_7x10,1);
 880              		.loc 1 503 11 is_stmt 1 view .LVU200
 881 0284 2146     		mov	r1, r4
 882 0286 0120     		movs	r0, #1
 883 0288 FFF7FEFF 		bl	lcd_put_cur
 884              	.LVL75:
 504:Core/Src/main.c ****           ssd1306_UpdateScreen();
 885              		.loc 1 504 11 view .LVU201
 886 028c 0123     		movs	r3, #1
 887 028e 95E80600 		ldm	r5, {r1, r2}
 888 0292 02A8     		add	r0, sp, #8
 889 0294 FFF7FEFF 		bl	ssd1306_WriteString
 890              	.LVL76:
 505:Core/Src/main.c ****         }
 891              		.loc 1 505 11 view .LVU202
 892 0298 FFF7FEFF 		bl	ssd1306_UpdateScreen
 893              	.LVL77:
 894 029c 2CE7     		b	.L23
 895              	.L24:
 505:Core/Src/main.c ****         }
 896              		.loc 1 505 11 is_stmt 0 view .LVU203
 897              	.LBE9:
 510:Core/Src/main.c ****         {
 898              		.loc 1 510 9 is_stmt 1 view .LVU204
 510:Core/Src/main.c ****         {
 899              		.loc 1 510 12 is_stmt 0 view .LVU205
 900 029e 1B4B     		ldr	r3, .L35+52
 901 02a0 1B78     		ldrb	r3, [r3]	@ zero_extendqisi2
 510:Core/Src/main.c ****         {
 902              		.loc 1 510 11 view .LVU206
 903 02a2 002B     		cmp	r3, #0
 904 02a4 3FF428AF 		beq	.L23
 512:Core/Src/main.c ****           P1LED_OFF;
 905              		.loc 1 512 11 is_stmt 1 view .LVU207
 512:Core/Src/main.c ****           P1LED_OFF;
 906              		.loc 1 512 28 is_stmt 0 view .LVU208
 907 02a8 0024     		movs	r4, #0
 908 02aa 184B     		ldr	r3, .L35+52
 909 02ac 1C70     		strb	r4, [r3]
 513:Core/Src/main.c ****           ssd1306_Fill(0); 
 910              		.loc 1 513 11 is_stmt 1 view .LVU209
 911 02ae 0122     		movs	r2, #1
 912 02b0 0221     		movs	r1, #2
 913 02b2 0F48     		ldr	r0, .L35+24
 914 02b4 FFF7FEFF 		bl	HAL_GPIO_WritePin
 915              	.LVL78:
 514:Core/Src/main.c ****           ssd1306_SetCursor(0,0);
 916              		.loc 1 514 11 view .LVU210
 917 02b8 2046     		mov	r0, r4
 918 02ba FFF7FEFF 		bl	ssd1306_Fill
 919              	.LVL79:
 515:Core/Src/main.c ****           ssd1306_WriteString("Penalty!",Font_7x10,1);
 920              		.loc 1 515 11 view .LVU211
 921 02be 2146     		mov	r1, r4
 922 02c0 2046     		mov	r0, r4
 923 02c2 FFF7FEFF 		bl	ssd1306_SetCursor
 924              	.LVL80:
ARM GAS  C:\Users\jdcox\AppData\Local\Temp\cc7i9zXT.s 			page 32


 516:Core/Src/main.c ****           ssd1306_UpdateScreen();
 925              		.loc 1 516 11 view .LVU212
 926 02c6 124A     		ldr	r2, .L35+56
 927 02c8 0123     		movs	r3, #1
 928 02ca 06CA     		ldm	r2, {r1, r2}
 929 02cc 1A48     		ldr	r0, .L35+96
 930 02ce FFF7FEFF 		bl	ssd1306_WriteString
 931              	.LVL81:
 517:Core/Src/main.c ****         }
 932              		.loc 1 517 11 view .LVU213
 933 02d2 FFF7FEFF 		bl	ssd1306_UpdateScreen
 934              	.LVL82:
 935 02d6 0FE7     		b	.L23
 936              	.L36:
 937              		.align	3
 938              	.L35:
 939 02d8 400ECF19 		.word	433000000
 940 02dc 00000000 		.word	0
 941 02e0 00000000 		.word	.LANCHOR0
 942 02e4 00000000 		.word	.LANCHOR2
 943 02e8 00000240 		.word	1073872896
 944 02ec 00000000 		.word	.LANCHOR1
 945 02f0 00040240 		.word	1073873920
 946 02f4 00000000 		.word	Font_16x24
 947 02f8 00000000 		.word	.LC6
 948 02fc 08000000 		.word	.LC7
 949 0300 0C000000 		.word	.LC8
 950 0304 10000000 		.word	.LC9
 951 0308 00000000 		.word	gameState
 952 030c 00000000 		.word	stateChange_flag
 953 0310 00000000 		.word	Font_7x10
 954 0314 18000000 		.word	.LC10
 955 0318 28000000 		.word	.LC11
 956 031c 38000000 		.word	.LC12
 957 0320 48000000 		.word	.LC13
 958 0324 58000000 		.word	.LC14
 959 0328 00000000 		.word	p1King_counter
 960 032c 00000000 		.word	p2King_counter
 961 0330 64000000 		.word	.LC15
 962 0334 70000000 		.word	.LC16
 963 0338 7C000000 		.word	.LC17
 964              		.cfi_endproc
 965              	.LFE144:
 967              		.section	.text.StartLoraRXTask,"ax",%progbits
 968              		.align	1
 969              		.global	StartLoraRXTask
 970              		.syntax unified
 971              		.thumb
 972              		.thumb_func
 974              	StartLoraRXTask:
 975              	.LFB145:
 541:Core/Src/main.c ****   /* USER CODE BEGIN StartLoraRXTask */
 976              		.loc 1 541 1 view -0
 977              		.cfi_startproc
 978              		@ Volatile: function does not return.
 979              		@ args = 0, pretend = 0, frame = 0
 980              		@ frame_needed = 0, uses_anonymous_args = 0
ARM GAS  C:\Users\jdcox\AppData\Local\Temp\cc7i9zXT.s 			page 33


 981              	.LVL83:
 541:Core/Src/main.c ****   /* USER CODE BEGIN StartLoraRXTask */
 982              		.loc 1 541 1 is_stmt 0 view .LVU215
 983 0000 08B5     		push	{r3, lr}
 984              	.LCFI9:
 985              		.cfi_def_cfa_offset 8
 986              		.cfi_offset 3, -8
 987              		.cfi_offset 14, -4
 988 0002 0BE0     		b	.L39
 989              	.LVL84:
 990              	.L41:
 556:Core/Src/main.c ****       
 991              		.loc 1 556 7 is_stmt 1 view .LVU216
 992 0004 0023     		movs	r3, #0
 993 0006 1A46     		mov	r2, r3
 994 0008 1946     		mov	r1, r3
 995 000a 0C48     		ldr	r0, .L42
 996 000c 0068     		ldr	r0, [r0]
 997 000e FFF7FEFF 		bl	xQueueGenericSend
 998              	.LVL85:
 559:Core/Src/main.c **** 
 999              		.loc 1 559 7 view .LVU217
 1000 0012 FFF7FEFF 		bl	getKOTHPacket
 1001              	.LVL86:
 1002              	.L38:
 565:Core/Src/main.c **** 
 1003              		.loc 1 565 5 view .LVU218
 1004 0016 1920     		movs	r0, #25
 1005 0018 FFF7FEFF 		bl	osDelay
 1006              	.LVL87:
 544:Core/Src/main.c ****   {
 1007              		.loc 1 544 3 view .LVU219
 1008              	.L39:
 544:Core/Src/main.c ****   {
 1009              		.loc 1 544 3 view .LVU220
 547:Core/Src/main.c **** 
 1010              		.loc 1 547 5 view .LVU221
 1011 001c 0421     		movs	r1, #4
 1012 001e 0848     		ldr	r0, .L42+4
 1013 0020 FFF7FEFF 		bl	HAL_GPIO_TogglePin
 1014              	.LVL88:
 550:Core/Src/main.c **** 
 1015              		.loc 1 550 5 view .LVU222
 1016 0024 4FF0FF31 		mov	r1, #-1
 1017 0028 044B     		ldr	r3, .L42
 1018 002a 1868     		ldr	r0, [r3]
 1019 002c FFF7FEFF 		bl	xQueueSemaphoreTake
 1020              	.LVL89:
 553:Core/Src/main.c ****     {
 1021              		.loc 1 553 5 view .LVU223
 553:Core/Src/main.c ****     {
 1022              		.loc 1 553 8 is_stmt 0 view .LVU224
 1023 0030 0448     		ldr	r0, .L42+8
 1024 0032 FFF7FEFF 		bl	lora_is_packet_available
 1025              	.LVL90:
 553:Core/Src/main.c ****     {
 1026              		.loc 1 553 7 view .LVU225
ARM GAS  C:\Users\jdcox\AppData\Local\Temp\cc7i9zXT.s 			page 34


 1027 0036 0028     		cmp	r0, #0
 1028 0038 E4D1     		bne	.L41
 1029 003a ECE7     		b	.L38
 1030              	.L43:
 1031              		.align	2
 1032              	.L42:
 1033 003c 00000000 		.word	.LANCHOR0
 1034 0040 00040240 		.word	1073873920
 1035 0044 00000000 		.word	.LANCHOR2
 1036              		.cfi_endproc
 1037              	.LFE145:
 1039              		.section	.text.HAL_GPIO_EXTI_Callback,"ax",%progbits
 1040              		.align	1
 1041              		.global	HAL_GPIO_EXTI_Callback
 1042              		.syntax unified
 1043              		.thumb
 1044              		.thumb_func
 1046              	HAL_GPIO_EXTI_Callback:
 1047              	.LVL91:
 1048              	.LFB148:
 617:Core/Src/main.c ****   if( (!debouncing_Flag) && (GPIO_Pin == BTN_IN_Pin) ) 
 1049              		.loc 1 617 1 is_stmt 1 view -0
 1050              		.cfi_startproc
 1051              		@ args = 0, pretend = 0, frame = 0
 1052              		@ frame_needed = 0, uses_anonymous_args = 0
 617:Core/Src/main.c ****   if( (!debouncing_Flag) && (GPIO_Pin == BTN_IN_Pin) ) 
 1053              		.loc 1 617 1 is_stmt 0 view .LVU227
 1054 0000 08B5     		push	{r3, lr}
 1055              	.LCFI10:
 1056              		.cfi_def_cfa_offset 8
 1057              		.cfi_offset 3, -8
 1058              		.cfi_offset 14, -4
 618:Core/Src/main.c ****   {
 1059              		.loc 1 618 3 is_stmt 1 view .LVU228
 618:Core/Src/main.c ****   {
 1060              		.loc 1 618 8 is_stmt 0 view .LVU229
 1061 0002 084B     		ldr	r3, .L48
 1062 0004 1B78     		ldrb	r3, [r3]	@ zero_extendqisi2
 618:Core/Src/main.c ****   {
 1063              		.loc 1 618 5 view .LVU230
 1064 0006 0BB9     		cbnz	r3, .L44
 618:Core/Src/main.c ****   {
 1065              		.loc 1 618 26 discriminator 1 view .LVU231
 1066 0008 0128     		cmp	r0, #1
 1067 000a 00D0     		beq	.L47
 1068              	.LVL92:
 1069              	.L44:
 626:Core/Src/main.c **** 
 1070              		.loc 1 626 1 view .LVU232
 1071 000c 08BD     		pop	{r3, pc}
 1072              	.LVL93:
 1073              	.L47:
 621:Core/Src/main.c ****     btnPressed();
 1074              		.loc 1 621 5 is_stmt 1 view .LVU233
 621:Core/Src/main.c ****     btnPressed();
 1075              		.loc 1 621 21 is_stmt 0 view .LVU234
 1076 000e 054B     		ldr	r3, .L48
ARM GAS  C:\Users\jdcox\AppData\Local\Temp\cc7i9zXT.s 			page 35


 1077 0010 0122     		movs	r2, #1
 1078 0012 1A70     		strb	r2, [r3]
 622:Core/Src/main.c ****     osTimerStart(debounceTimerHandle, pdMS_TO_TICKS(250));
 1079              		.loc 1 622 5 is_stmt 1 view .LVU235
 1080 0014 FFF7FEFF 		bl	btnPressed
 1081              	.LVL94:
 623:Core/Src/main.c **** 
 1082              		.loc 1 623 5 view .LVU236
 1083 0018 FA21     		movs	r1, #250
 1084 001a 034B     		ldr	r3, .L48+4
 1085 001c 1868     		ldr	r0, [r3]
 1086 001e FFF7FEFF 		bl	osTimerStart
 1087              	.LVL95:
 626:Core/Src/main.c **** 
 1088              		.loc 1 626 1 is_stmt 0 view .LVU237
 1089 0022 F3E7     		b	.L44
 1090              	.L49:
 1091              		.align	2
 1092              	.L48:
 1093 0024 00000000 		.word	debouncing_Flag
 1094 0028 00000000 		.word	.LANCHOR3
 1095              		.cfi_endproc
 1096              	.LFE148:
 1098              		.section	.text.HAL_TIM_PeriodElapsedCallback,"ax",%progbits
 1099              		.align	1
 1100              		.global	HAL_TIM_PeriodElapsedCallback
 1101              		.syntax unified
 1102              		.thumb
 1103              		.thumb_func
 1105              	HAL_TIM_PeriodElapsedCallback:
 1106              	.LVL96:
 1107              	.LFB150:
 634:Core/Src/main.c **** 
 635:Core/Src/main.c **** /**
 636:Core/Src/main.c ****   * @brief  Period elapsed callback in non blocking mode
 637:Core/Src/main.c ****   * @note   This function is called  when TIM1 interrupt took place, inside
 638:Core/Src/main.c ****   * HAL_TIM_IRQHandler(). It makes a direct call to HAL_IncTick() to increment
 639:Core/Src/main.c ****   * a global variable "uwTick" used as application time base.
 640:Core/Src/main.c ****   * @param  htim : TIM handle
 641:Core/Src/main.c ****   * @retval None
 642:Core/Src/main.c ****   */
 643:Core/Src/main.c **** void HAL_TIM_PeriodElapsedCallback(TIM_HandleTypeDef *htim)
 644:Core/Src/main.c **** {
 1108              		.loc 1 644 1 is_stmt 1 view -0
 1109              		.cfi_startproc
 1110              		@ args = 0, pretend = 0, frame = 0
 1111              		@ frame_needed = 0, uses_anonymous_args = 0
 1112              		.loc 1 644 1 is_stmt 0 view .LVU239
 1113 0000 08B5     		push	{r3, lr}
 1114              	.LCFI11:
 1115              		.cfi_def_cfa_offset 8
 1116              		.cfi_offset 3, -8
 1117              		.cfi_offset 14, -4
 645:Core/Src/main.c ****   /* USER CODE BEGIN Callback 0 */
 646:Core/Src/main.c **** 
 647:Core/Src/main.c ****   /* USER CODE END Callback 0 */
 648:Core/Src/main.c ****   if (htim->Instance == TIM1) {
ARM GAS  C:\Users\jdcox\AppData\Local\Temp\cc7i9zXT.s 			page 36


 1118              		.loc 1 648 3 is_stmt 1 view .LVU240
 1119              		.loc 1 648 11 is_stmt 0 view .LVU241
 1120 0002 0268     		ldr	r2, [r0]
 1121              		.loc 1 648 6 view .LVU242
 1122 0004 034B     		ldr	r3, .L54
 1123 0006 9A42     		cmp	r2, r3
 1124 0008 00D0     		beq	.L53
 1125              	.LVL97:
 1126              	.L50:
 649:Core/Src/main.c ****     HAL_IncTick();
 650:Core/Src/main.c ****   }
 651:Core/Src/main.c ****   /* USER CODE BEGIN Callback 1 */
 652:Core/Src/main.c **** 
 653:Core/Src/main.c ****   /* USER CODE END Callback 1 */
 654:Core/Src/main.c **** }
 1127              		.loc 1 654 1 view .LVU243
 1128 000a 08BD     		pop	{r3, pc}
 1129              	.LVL98:
 1130              	.L53:
 649:Core/Src/main.c ****     HAL_IncTick();
 1131              		.loc 1 649 5 is_stmt 1 view .LVU244
 1132 000c FFF7FEFF 		bl	HAL_IncTick
 1133              	.LVL99:
 1134              		.loc 1 654 1 is_stmt 0 view .LVU245
 1135 0010 FBE7     		b	.L50
 1136              	.L55:
 1137 0012 00BF     		.align	2
 1138              	.L54:
 1139 0014 00000140 		.word	1073807360
 1140              		.cfi_endproc
 1141              	.LFE150:
 1143              		.section	.text.Error_Handler,"ax",%progbits
 1144              		.align	1
 1145              		.global	Error_Handler
 1146              		.syntax unified
 1147              		.thumb
 1148              		.thumb_func
 1150              	Error_Handler:
 1151              	.LFB151:
 655:Core/Src/main.c **** 
 656:Core/Src/main.c **** /**
 657:Core/Src/main.c ****   * @brief  This function is executed in case of error occurrence.
 658:Core/Src/main.c ****   * @retval None
 659:Core/Src/main.c ****   */
 660:Core/Src/main.c **** void Error_Handler(void)
 661:Core/Src/main.c **** {
 1152              		.loc 1 661 1 is_stmt 1 view -0
 1153              		.cfi_startproc
 1154              		@ Volatile: function does not return.
 1155              		@ args = 0, pretend = 0, frame = 0
 1156              		@ frame_needed = 0, uses_anonymous_args = 0
 1157              		@ link register save eliminated.
 662:Core/Src/main.c ****   /* USER CODE BEGIN Error_Handler_Debug */
 663:Core/Src/main.c ****   /* User can add his own implementation to report the HAL error return state */
 664:Core/Src/main.c ****   __disable_irq();
 1158              		.loc 1 664 3 view .LVU247
 1159              	.LBB10:
ARM GAS  C:\Users\jdcox\AppData\Local\Temp\cc7i9zXT.s 			page 37


 1160              	.LBI10:
 1161              		.file 2 "Drivers/CMSIS/Include/cmsis_gcc.h"
   1:Drivers/CMSIS/Include/cmsis_gcc.h **** /**************************************************************************//**
   2:Drivers/CMSIS/Include/cmsis_gcc.h ****  * @file     cmsis_gcc.h
   3:Drivers/CMSIS/Include/cmsis_gcc.h ****  * @brief    CMSIS compiler GCC header file
   4:Drivers/CMSIS/Include/cmsis_gcc.h ****  * @version  V5.0.4
   5:Drivers/CMSIS/Include/cmsis_gcc.h ****  * @date     09. April 2018
   6:Drivers/CMSIS/Include/cmsis_gcc.h ****  ******************************************************************************/
   7:Drivers/CMSIS/Include/cmsis_gcc.h **** /*
   8:Drivers/CMSIS/Include/cmsis_gcc.h ****  * Copyright (c) 2009-2018 Arm Limited. All rights reserved.
   9:Drivers/CMSIS/Include/cmsis_gcc.h ****  *
  10:Drivers/CMSIS/Include/cmsis_gcc.h ****  * SPDX-License-Identifier: Apache-2.0
  11:Drivers/CMSIS/Include/cmsis_gcc.h ****  *
  12:Drivers/CMSIS/Include/cmsis_gcc.h ****  * Licensed under the Apache License, Version 2.0 (the License); you may
  13:Drivers/CMSIS/Include/cmsis_gcc.h ****  * not use this file except in compliance with the License.
  14:Drivers/CMSIS/Include/cmsis_gcc.h ****  * You may obtain a copy of the License at
  15:Drivers/CMSIS/Include/cmsis_gcc.h ****  *
  16:Drivers/CMSIS/Include/cmsis_gcc.h ****  * www.apache.org/licenses/LICENSE-2.0
  17:Drivers/CMSIS/Include/cmsis_gcc.h ****  *
  18:Drivers/CMSIS/Include/cmsis_gcc.h ****  * Unless required by applicable law or agreed to in writing, software
  19:Drivers/CMSIS/Include/cmsis_gcc.h ****  * distributed under the License is distributed on an AS IS BASIS, WITHOUT
  20:Drivers/CMSIS/Include/cmsis_gcc.h ****  * WARRANTIES OR CONDITIONS OF ANY KIND, either express or implied.
  21:Drivers/CMSIS/Include/cmsis_gcc.h ****  * See the License for the specific language governing permissions and
  22:Drivers/CMSIS/Include/cmsis_gcc.h ****  * limitations under the License.
  23:Drivers/CMSIS/Include/cmsis_gcc.h ****  */
  24:Drivers/CMSIS/Include/cmsis_gcc.h **** 
  25:Drivers/CMSIS/Include/cmsis_gcc.h **** #ifndef __CMSIS_GCC_H
  26:Drivers/CMSIS/Include/cmsis_gcc.h **** #define __CMSIS_GCC_H
  27:Drivers/CMSIS/Include/cmsis_gcc.h **** 
  28:Drivers/CMSIS/Include/cmsis_gcc.h **** /* ignore some GCC warnings */
  29:Drivers/CMSIS/Include/cmsis_gcc.h **** #pragma GCC diagnostic push
  30:Drivers/CMSIS/Include/cmsis_gcc.h **** #pragma GCC diagnostic ignored "-Wsign-conversion"
  31:Drivers/CMSIS/Include/cmsis_gcc.h **** #pragma GCC diagnostic ignored "-Wconversion"
  32:Drivers/CMSIS/Include/cmsis_gcc.h **** #pragma GCC diagnostic ignored "-Wunused-parameter"
  33:Drivers/CMSIS/Include/cmsis_gcc.h **** 
  34:Drivers/CMSIS/Include/cmsis_gcc.h **** /* Fallback for __has_builtin */
  35:Drivers/CMSIS/Include/cmsis_gcc.h **** #ifndef __has_builtin
  36:Drivers/CMSIS/Include/cmsis_gcc.h ****   #define __has_builtin(x) (0)
  37:Drivers/CMSIS/Include/cmsis_gcc.h **** #endif
  38:Drivers/CMSIS/Include/cmsis_gcc.h **** 
  39:Drivers/CMSIS/Include/cmsis_gcc.h **** /* CMSIS compiler specific defines */
  40:Drivers/CMSIS/Include/cmsis_gcc.h **** #ifndef   __ASM
  41:Drivers/CMSIS/Include/cmsis_gcc.h ****   #define __ASM                                  __asm
  42:Drivers/CMSIS/Include/cmsis_gcc.h **** #endif
  43:Drivers/CMSIS/Include/cmsis_gcc.h **** #ifndef   __INLINE
  44:Drivers/CMSIS/Include/cmsis_gcc.h ****   #define __INLINE                               inline
  45:Drivers/CMSIS/Include/cmsis_gcc.h **** #endif
  46:Drivers/CMSIS/Include/cmsis_gcc.h **** #ifndef   __STATIC_INLINE
  47:Drivers/CMSIS/Include/cmsis_gcc.h ****   #define __STATIC_INLINE                        static inline
  48:Drivers/CMSIS/Include/cmsis_gcc.h **** #endif
  49:Drivers/CMSIS/Include/cmsis_gcc.h **** #ifndef   __STATIC_FORCEINLINE                 
  50:Drivers/CMSIS/Include/cmsis_gcc.h ****   #define __STATIC_FORCEINLINE                   __attribute__((always_inline)) static inline
  51:Drivers/CMSIS/Include/cmsis_gcc.h **** #endif                                           
  52:Drivers/CMSIS/Include/cmsis_gcc.h **** #ifndef   __NO_RETURN
  53:Drivers/CMSIS/Include/cmsis_gcc.h ****   #define __NO_RETURN                            __attribute__((__noreturn__))
  54:Drivers/CMSIS/Include/cmsis_gcc.h **** #endif
  55:Drivers/CMSIS/Include/cmsis_gcc.h **** #ifndef   __USED
ARM GAS  C:\Users\jdcox\AppData\Local\Temp\cc7i9zXT.s 			page 38


  56:Drivers/CMSIS/Include/cmsis_gcc.h ****   #define __USED                                 __attribute__((used))
  57:Drivers/CMSIS/Include/cmsis_gcc.h **** #endif
  58:Drivers/CMSIS/Include/cmsis_gcc.h **** #ifndef   __WEAK
  59:Drivers/CMSIS/Include/cmsis_gcc.h ****   #define __WEAK                                 __attribute__((weak))
  60:Drivers/CMSIS/Include/cmsis_gcc.h **** #endif
  61:Drivers/CMSIS/Include/cmsis_gcc.h **** #ifndef   __PACKED
  62:Drivers/CMSIS/Include/cmsis_gcc.h ****   #define __PACKED                               __attribute__((packed, aligned(1)))
  63:Drivers/CMSIS/Include/cmsis_gcc.h **** #endif
  64:Drivers/CMSIS/Include/cmsis_gcc.h **** #ifndef   __PACKED_STRUCT
  65:Drivers/CMSIS/Include/cmsis_gcc.h ****   #define __PACKED_STRUCT                        struct __attribute__((packed, aligned(1)))
  66:Drivers/CMSIS/Include/cmsis_gcc.h **** #endif
  67:Drivers/CMSIS/Include/cmsis_gcc.h **** #ifndef   __PACKED_UNION
  68:Drivers/CMSIS/Include/cmsis_gcc.h ****   #define __PACKED_UNION                         union __attribute__((packed, aligned(1)))
  69:Drivers/CMSIS/Include/cmsis_gcc.h **** #endif
  70:Drivers/CMSIS/Include/cmsis_gcc.h **** #ifndef   __UNALIGNED_UINT32        /* deprecated */
  71:Drivers/CMSIS/Include/cmsis_gcc.h ****   #pragma GCC diagnostic push
  72:Drivers/CMSIS/Include/cmsis_gcc.h ****   #pragma GCC diagnostic ignored "-Wpacked"
  73:Drivers/CMSIS/Include/cmsis_gcc.h ****   #pragma GCC diagnostic ignored "-Wattributes"
  74:Drivers/CMSIS/Include/cmsis_gcc.h ****   struct __attribute__((packed)) T_UINT32 { uint32_t v; };
  75:Drivers/CMSIS/Include/cmsis_gcc.h ****   #pragma GCC diagnostic pop
  76:Drivers/CMSIS/Include/cmsis_gcc.h ****   #define __UNALIGNED_UINT32(x)                  (((struct T_UINT32 *)(x))->v)
  77:Drivers/CMSIS/Include/cmsis_gcc.h **** #endif
  78:Drivers/CMSIS/Include/cmsis_gcc.h **** #ifndef   __UNALIGNED_UINT16_WRITE
  79:Drivers/CMSIS/Include/cmsis_gcc.h ****   #pragma GCC diagnostic push
  80:Drivers/CMSIS/Include/cmsis_gcc.h ****   #pragma GCC diagnostic ignored "-Wpacked"
  81:Drivers/CMSIS/Include/cmsis_gcc.h ****   #pragma GCC diagnostic ignored "-Wattributes"
  82:Drivers/CMSIS/Include/cmsis_gcc.h ****   __PACKED_STRUCT T_UINT16_WRITE { uint16_t v; };
  83:Drivers/CMSIS/Include/cmsis_gcc.h ****   #pragma GCC diagnostic pop
  84:Drivers/CMSIS/Include/cmsis_gcc.h ****   #define __UNALIGNED_UINT16_WRITE(addr, val)    (void)((((struct T_UINT16_WRITE *)(void *)(addr))-
  85:Drivers/CMSIS/Include/cmsis_gcc.h **** #endif
  86:Drivers/CMSIS/Include/cmsis_gcc.h **** #ifndef   __UNALIGNED_UINT16_READ
  87:Drivers/CMSIS/Include/cmsis_gcc.h ****   #pragma GCC diagnostic push
  88:Drivers/CMSIS/Include/cmsis_gcc.h ****   #pragma GCC diagnostic ignored "-Wpacked"
  89:Drivers/CMSIS/Include/cmsis_gcc.h ****   #pragma GCC diagnostic ignored "-Wattributes"
  90:Drivers/CMSIS/Include/cmsis_gcc.h ****   __PACKED_STRUCT T_UINT16_READ { uint16_t v; };
  91:Drivers/CMSIS/Include/cmsis_gcc.h ****   #pragma GCC diagnostic pop
  92:Drivers/CMSIS/Include/cmsis_gcc.h ****   #define __UNALIGNED_UINT16_READ(addr)          (((const struct T_UINT16_READ *)(const void *)(add
  93:Drivers/CMSIS/Include/cmsis_gcc.h **** #endif
  94:Drivers/CMSIS/Include/cmsis_gcc.h **** #ifndef   __UNALIGNED_UINT32_WRITE
  95:Drivers/CMSIS/Include/cmsis_gcc.h ****   #pragma GCC diagnostic push
  96:Drivers/CMSIS/Include/cmsis_gcc.h ****   #pragma GCC diagnostic ignored "-Wpacked"
  97:Drivers/CMSIS/Include/cmsis_gcc.h ****   #pragma GCC diagnostic ignored "-Wattributes"
  98:Drivers/CMSIS/Include/cmsis_gcc.h ****   __PACKED_STRUCT T_UINT32_WRITE { uint32_t v; };
  99:Drivers/CMSIS/Include/cmsis_gcc.h ****   #pragma GCC diagnostic pop
 100:Drivers/CMSIS/Include/cmsis_gcc.h ****   #define __UNALIGNED_UINT32_WRITE(addr, val)    (void)((((struct T_UINT32_WRITE *)(void *)(addr))-
 101:Drivers/CMSIS/Include/cmsis_gcc.h **** #endif
 102:Drivers/CMSIS/Include/cmsis_gcc.h **** #ifndef   __UNALIGNED_UINT32_READ
 103:Drivers/CMSIS/Include/cmsis_gcc.h ****   #pragma GCC diagnostic push
 104:Drivers/CMSIS/Include/cmsis_gcc.h ****   #pragma GCC diagnostic ignored "-Wpacked"
 105:Drivers/CMSIS/Include/cmsis_gcc.h ****   #pragma GCC diagnostic ignored "-Wattributes"
 106:Drivers/CMSIS/Include/cmsis_gcc.h ****   __PACKED_STRUCT T_UINT32_READ { uint32_t v; };
 107:Drivers/CMSIS/Include/cmsis_gcc.h ****   #pragma GCC diagnostic pop
 108:Drivers/CMSIS/Include/cmsis_gcc.h ****   #define __UNALIGNED_UINT32_READ(addr)          (((const struct T_UINT32_READ *)(const void *)(add
 109:Drivers/CMSIS/Include/cmsis_gcc.h **** #endif
 110:Drivers/CMSIS/Include/cmsis_gcc.h **** #ifndef   __ALIGNED
 111:Drivers/CMSIS/Include/cmsis_gcc.h ****   #define __ALIGNED(x)                           __attribute__((aligned(x)))
 112:Drivers/CMSIS/Include/cmsis_gcc.h **** #endif
ARM GAS  C:\Users\jdcox\AppData\Local\Temp\cc7i9zXT.s 			page 39


 113:Drivers/CMSIS/Include/cmsis_gcc.h **** #ifndef   __RESTRICT
 114:Drivers/CMSIS/Include/cmsis_gcc.h ****   #define __RESTRICT                             __restrict
 115:Drivers/CMSIS/Include/cmsis_gcc.h **** #endif
 116:Drivers/CMSIS/Include/cmsis_gcc.h **** 
 117:Drivers/CMSIS/Include/cmsis_gcc.h **** 
 118:Drivers/CMSIS/Include/cmsis_gcc.h **** /* ###########################  Core Function Access  ########################### */
 119:Drivers/CMSIS/Include/cmsis_gcc.h **** /** \ingroup  CMSIS_Core_FunctionInterface
 120:Drivers/CMSIS/Include/cmsis_gcc.h ****     \defgroup CMSIS_Core_RegAccFunctions CMSIS Core Register Access Functions
 121:Drivers/CMSIS/Include/cmsis_gcc.h ****   @{
 122:Drivers/CMSIS/Include/cmsis_gcc.h ****  */
 123:Drivers/CMSIS/Include/cmsis_gcc.h **** 
 124:Drivers/CMSIS/Include/cmsis_gcc.h **** /**
 125:Drivers/CMSIS/Include/cmsis_gcc.h ****   \brief   Enable IRQ Interrupts
 126:Drivers/CMSIS/Include/cmsis_gcc.h ****   \details Enables IRQ interrupts by clearing the I-bit in the CPSR.
 127:Drivers/CMSIS/Include/cmsis_gcc.h ****            Can only be executed in Privileged modes.
 128:Drivers/CMSIS/Include/cmsis_gcc.h ****  */
 129:Drivers/CMSIS/Include/cmsis_gcc.h **** __STATIC_FORCEINLINE void __enable_irq(void)
 130:Drivers/CMSIS/Include/cmsis_gcc.h **** {
 131:Drivers/CMSIS/Include/cmsis_gcc.h ****   __ASM volatile ("cpsie i" : : : "memory");
 132:Drivers/CMSIS/Include/cmsis_gcc.h **** }
 133:Drivers/CMSIS/Include/cmsis_gcc.h **** 
 134:Drivers/CMSIS/Include/cmsis_gcc.h **** 
 135:Drivers/CMSIS/Include/cmsis_gcc.h **** /**
 136:Drivers/CMSIS/Include/cmsis_gcc.h ****   \brief   Disable IRQ Interrupts
 137:Drivers/CMSIS/Include/cmsis_gcc.h ****   \details Disables IRQ interrupts by setting the I-bit in the CPSR.
 138:Drivers/CMSIS/Include/cmsis_gcc.h ****            Can only be executed in Privileged modes.
 139:Drivers/CMSIS/Include/cmsis_gcc.h ****  */
 140:Drivers/CMSIS/Include/cmsis_gcc.h **** __STATIC_FORCEINLINE void __disable_irq(void)
 1162              		.loc 2 140 27 view .LVU248
 1163              	.LBB11:
 141:Drivers/CMSIS/Include/cmsis_gcc.h **** {
 142:Drivers/CMSIS/Include/cmsis_gcc.h ****   __ASM volatile ("cpsid i" : : : "memory");
 1164              		.loc 2 142 3 view .LVU249
 1165              		.syntax unified
 1166              	@ 142 "Drivers/CMSIS/Include/cmsis_gcc.h" 1
 1167 0000 72B6     		cpsid i
 1168              	@ 0 "" 2
 1169              		.thumb
 1170              		.syntax unified
 1171              	.L57:
 1172              	.LBE11:
 1173              	.LBE10:
 665:Core/Src/main.c ****   while (1)
 1174              		.loc 1 665 3 discriminator 1 view .LVU250
 666:Core/Src/main.c ****   {
 667:Core/Src/main.c ****   }
 1175              		.loc 1 667 3 discriminator 1 view .LVU251
 665:Core/Src/main.c ****   while (1)
 1176              		.loc 1 665 9 discriminator 1 view .LVU252
 1177 0002 FEE7     		b	.L57
 1178              		.cfi_endproc
 1179              	.LFE151:
 1181              		.section	.text.MX_SPI1_Init,"ax",%progbits
 1182              		.align	1
 1183              		.syntax unified
 1184              		.thumb
 1185              		.thumb_func
ARM GAS  C:\Users\jdcox\AppData\Local\Temp\cc7i9zXT.s 			page 40


 1187              	MX_SPI1_Init:
 1188              	.LFB141:
 278:Core/Src/main.c **** 
 1189              		.loc 1 278 1 view -0
 1190              		.cfi_startproc
 1191              		@ args = 0, pretend = 0, frame = 0
 1192              		@ frame_needed = 0, uses_anonymous_args = 0
 1193 0000 08B5     		push	{r3, lr}
 1194              	.LCFI12:
 1195              		.cfi_def_cfa_offset 8
 1196              		.cfi_offset 3, -8
 1197              		.cfi_offset 14, -4
 288:Core/Src/main.c ****   hspi1.Init.Mode = SPI_MODE_MASTER;
 1198              		.loc 1 288 3 view .LVU254
 288:Core/Src/main.c ****   hspi1.Init.Mode = SPI_MODE_MASTER;
 1199              		.loc 1 288 18 is_stmt 0 view .LVU255
 1200 0002 0D48     		ldr	r0, .L62
 1201 0004 0D4B     		ldr	r3, .L62+4
 1202 0006 0360     		str	r3, [r0]
 289:Core/Src/main.c ****   hspi1.Init.Direction = SPI_DIRECTION_2LINES;
 1203              		.loc 1 289 3 is_stmt 1 view .LVU256
 289:Core/Src/main.c ****   hspi1.Init.Direction = SPI_DIRECTION_2LINES;
 1204              		.loc 1 289 19 is_stmt 0 view .LVU257
 1205 0008 4FF48273 		mov	r3, #260
 1206 000c 4360     		str	r3, [r0, #4]
 290:Core/Src/main.c ****   hspi1.Init.DataSize = SPI_DATASIZE_8BIT;
 1207              		.loc 1 290 3 is_stmt 1 view .LVU258
 290:Core/Src/main.c ****   hspi1.Init.DataSize = SPI_DATASIZE_8BIT;
 1208              		.loc 1 290 24 is_stmt 0 view .LVU259
 1209 000e 0023     		movs	r3, #0
 1210 0010 8360     		str	r3, [r0, #8]
 291:Core/Src/main.c ****   hspi1.Init.CLKPolarity = SPI_POLARITY_LOW;
 1211              		.loc 1 291 3 is_stmt 1 view .LVU260
 291:Core/Src/main.c ****   hspi1.Init.CLKPolarity = SPI_POLARITY_LOW;
 1212              		.loc 1 291 23 is_stmt 0 view .LVU261
 1213 0012 C360     		str	r3, [r0, #12]
 292:Core/Src/main.c ****   hspi1.Init.CLKPhase = SPI_PHASE_1EDGE;
 1214              		.loc 1 292 3 is_stmt 1 view .LVU262
 292:Core/Src/main.c ****   hspi1.Init.CLKPhase = SPI_PHASE_1EDGE;
 1215              		.loc 1 292 26 is_stmt 0 view .LVU263
 1216 0014 0361     		str	r3, [r0, #16]
 293:Core/Src/main.c ****   hspi1.Init.NSS = SPI_NSS_SOFT;
 1217              		.loc 1 293 3 is_stmt 1 view .LVU264
 293:Core/Src/main.c ****   hspi1.Init.NSS = SPI_NSS_SOFT;
 1218              		.loc 1 293 23 is_stmt 0 view .LVU265
 1219 0016 4361     		str	r3, [r0, #20]
 294:Core/Src/main.c ****   hspi1.Init.BaudRatePrescaler = SPI_BAUDRATEPRESCALER_16;
 1220              		.loc 1 294 3 is_stmt 1 view .LVU266
 294:Core/Src/main.c ****   hspi1.Init.BaudRatePrescaler = SPI_BAUDRATEPRESCALER_16;
 1221              		.loc 1 294 18 is_stmt 0 view .LVU267
 1222 0018 4FF40072 		mov	r2, #512
 1223 001c 8261     		str	r2, [r0, #24]
 295:Core/Src/main.c ****   hspi1.Init.FirstBit = SPI_FIRSTBIT_MSB;
 1224              		.loc 1 295 3 is_stmt 1 view .LVU268
 295:Core/Src/main.c ****   hspi1.Init.FirstBit = SPI_FIRSTBIT_MSB;
 1225              		.loc 1 295 32 is_stmt 0 view .LVU269
 1226 001e 1822     		movs	r2, #24
ARM GAS  C:\Users\jdcox\AppData\Local\Temp\cc7i9zXT.s 			page 41


 1227 0020 C261     		str	r2, [r0, #28]
 296:Core/Src/main.c ****   hspi1.Init.TIMode = SPI_TIMODE_DISABLE;
 1228              		.loc 1 296 3 is_stmt 1 view .LVU270
 296:Core/Src/main.c ****   hspi1.Init.TIMode = SPI_TIMODE_DISABLE;
 1229              		.loc 1 296 23 is_stmt 0 view .LVU271
 1230 0022 0362     		str	r3, [r0, #32]
 297:Core/Src/main.c ****   hspi1.Init.CRCCalculation = SPI_CRCCALCULATION_DISABLE;
 1231              		.loc 1 297 3 is_stmt 1 view .LVU272
 297:Core/Src/main.c ****   hspi1.Init.CRCCalculation = SPI_CRCCALCULATION_DISABLE;
 1232              		.loc 1 297 21 is_stmt 0 view .LVU273
 1233 0024 4362     		str	r3, [r0, #36]
 298:Core/Src/main.c ****   hspi1.Init.CRCPolynomial = 10;
 1234              		.loc 1 298 3 is_stmt 1 view .LVU274
 298:Core/Src/main.c ****   hspi1.Init.CRCPolynomial = 10;
 1235              		.loc 1 298 29 is_stmt 0 view .LVU275
 1236 0026 8362     		str	r3, [r0, #40]
 299:Core/Src/main.c ****   if (HAL_SPI_Init(&hspi1) != HAL_OK)
 1237              		.loc 1 299 3 is_stmt 1 view .LVU276
 299:Core/Src/main.c ****   if (HAL_SPI_Init(&hspi1) != HAL_OK)
 1238              		.loc 1 299 28 is_stmt 0 view .LVU277
 1239 0028 0A23     		movs	r3, #10
 1240 002a C362     		str	r3, [r0, #44]
 300:Core/Src/main.c ****   {
 1241              		.loc 1 300 3 is_stmt 1 view .LVU278
 300:Core/Src/main.c ****   {
 1242              		.loc 1 300 7 is_stmt 0 view .LVU279
 1243 002c FFF7FEFF 		bl	HAL_SPI_Init
 1244              	.LVL100:
 300:Core/Src/main.c ****   {
 1245              		.loc 1 300 6 view .LVU280
 1246 0030 00B9     		cbnz	r0, .L61
 308:Core/Src/main.c **** 
 1247              		.loc 1 308 1 view .LVU281
 1248 0032 08BD     		pop	{r3, pc}
 1249              	.L61:
 302:Core/Src/main.c ****   }
 1250              		.loc 1 302 5 is_stmt 1 view .LVU282
 1251 0034 FFF7FEFF 		bl	Error_Handler
 1252              	.LVL101:
 1253              	.L63:
 1254              		.align	2
 1255              	.L62:
 1256 0038 00000000 		.word	.LANCHOR1
 1257 003c 00300140 		.word	1073819648
 1258              		.cfi_endproc
 1259              	.LFE141:
 1261              		.section	.text.MX_I2C1_Init,"ax",%progbits
 1262              		.align	1
 1263              		.syntax unified
 1264              		.thumb
 1265              		.thumb_func
 1267              	MX_I2C1_Init:
 1268              	.LFB140:
 244:Core/Src/main.c **** 
 1269              		.loc 1 244 1 view -0
 1270              		.cfi_startproc
 1271              		@ args = 0, pretend = 0, frame = 0
ARM GAS  C:\Users\jdcox\AppData\Local\Temp\cc7i9zXT.s 			page 42


 1272              		@ frame_needed = 0, uses_anonymous_args = 0
 1273 0000 08B5     		push	{r3, lr}
 1274              	.LCFI13:
 1275              		.cfi_def_cfa_offset 8
 1276              		.cfi_offset 3, -8
 1277              		.cfi_offset 14, -4
 253:Core/Src/main.c ****   hi2c1.Init.ClockSpeed = 100000;
 1278              		.loc 1 253 3 view .LVU284
 253:Core/Src/main.c ****   hi2c1.Init.ClockSpeed = 100000;
 1279              		.loc 1 253 18 is_stmt 0 view .LVU285
 1280 0002 0B48     		ldr	r0, .L68
 1281 0004 0B4B     		ldr	r3, .L68+4
 1282 0006 0360     		str	r3, [r0]
 254:Core/Src/main.c ****   hi2c1.Init.DutyCycle = I2C_DUTYCYCLE_2;
 1283              		.loc 1 254 3 is_stmt 1 view .LVU286
 254:Core/Src/main.c ****   hi2c1.Init.DutyCycle = I2C_DUTYCYCLE_2;
 1284              		.loc 1 254 25 is_stmt 0 view .LVU287
 1285 0008 0B4B     		ldr	r3, .L68+8
 1286 000a 4360     		str	r3, [r0, #4]
 255:Core/Src/main.c ****   hi2c1.Init.OwnAddress1 = 78;
 1287              		.loc 1 255 3 is_stmt 1 view .LVU288
 255:Core/Src/main.c ****   hi2c1.Init.OwnAddress1 = 78;
 1288              		.loc 1 255 24 is_stmt 0 view .LVU289
 1289 000c 0023     		movs	r3, #0
 1290 000e 8360     		str	r3, [r0, #8]
 256:Core/Src/main.c ****   hi2c1.Init.AddressingMode = I2C_ADDRESSINGMODE_7BIT;
 1291              		.loc 1 256 3 is_stmt 1 view .LVU290
 256:Core/Src/main.c ****   hi2c1.Init.AddressingMode = I2C_ADDRESSINGMODE_7BIT;
 1292              		.loc 1 256 26 is_stmt 0 view .LVU291
 1293 0010 4E22     		movs	r2, #78
 1294 0012 C260     		str	r2, [r0, #12]
 257:Core/Src/main.c ****   hi2c1.Init.DualAddressMode = I2C_DUALADDRESS_DISABLE;
 1295              		.loc 1 257 3 is_stmt 1 view .LVU292
 257:Core/Src/main.c ****   hi2c1.Init.DualAddressMode = I2C_DUALADDRESS_DISABLE;
 1296              		.loc 1 257 29 is_stmt 0 view .LVU293
 1297 0014 4FF48042 		mov	r2, #16384
 1298 0018 0261     		str	r2, [r0, #16]
 258:Core/Src/main.c ****   hi2c1.Init.OwnAddress2 = 0;
 1299              		.loc 1 258 3 is_stmt 1 view .LVU294
 258:Core/Src/main.c ****   hi2c1.Init.OwnAddress2 = 0;
 1300              		.loc 1 258 30 is_stmt 0 view .LVU295
 1301 001a 4361     		str	r3, [r0, #20]
 259:Core/Src/main.c ****   hi2c1.Init.GeneralCallMode = I2C_GENERALCALL_DISABLE;
 1302              		.loc 1 259 3 is_stmt 1 view .LVU296
 259:Core/Src/main.c ****   hi2c1.Init.GeneralCallMode = I2C_GENERALCALL_DISABLE;
 1303              		.loc 1 259 26 is_stmt 0 view .LVU297
 1304 001c 8361     		str	r3, [r0, #24]
 260:Core/Src/main.c ****   hi2c1.Init.NoStretchMode = I2C_NOSTRETCH_DISABLE;
 1305              		.loc 1 260 3 is_stmt 1 view .LVU298
 260:Core/Src/main.c ****   hi2c1.Init.NoStretchMode = I2C_NOSTRETCH_DISABLE;
 1306              		.loc 1 260 30 is_stmt 0 view .LVU299
 1307 001e C361     		str	r3, [r0, #28]
 261:Core/Src/main.c ****   if (HAL_I2C_Init(&hi2c1) != HAL_OK)
 1308              		.loc 1 261 3 is_stmt 1 view .LVU300
 261:Core/Src/main.c ****   if (HAL_I2C_Init(&hi2c1) != HAL_OK)
 1309              		.loc 1 261 28 is_stmt 0 view .LVU301
 1310 0020 0362     		str	r3, [r0, #32]
ARM GAS  C:\Users\jdcox\AppData\Local\Temp\cc7i9zXT.s 			page 43


 262:Core/Src/main.c ****   {
 1311              		.loc 1 262 3 is_stmt 1 view .LVU302
 262:Core/Src/main.c ****   {
 1312              		.loc 1 262 7 is_stmt 0 view .LVU303
 1313 0022 FFF7FEFF 		bl	HAL_I2C_Init
 1314              	.LVL102:
 262:Core/Src/main.c ****   {
 1315              		.loc 1 262 6 view .LVU304
 1316 0026 00B9     		cbnz	r0, .L67
 270:Core/Src/main.c **** 
 1317              		.loc 1 270 1 view .LVU305
 1318 0028 08BD     		pop	{r3, pc}
 1319              	.L67:
 264:Core/Src/main.c ****   }
 1320              		.loc 1 264 5 is_stmt 1 view .LVU306
 1321 002a FFF7FEFF 		bl	Error_Handler
 1322              	.LVL103:
 1323              	.L69:
 1324 002e 00BF     		.align	2
 1325              	.L68:
 1326 0030 00000000 		.word	.LANCHOR4
 1327 0034 00540040 		.word	1073763328
 1328 0038 A0860100 		.word	100000
 1329              		.cfi_endproc
 1330              	.LFE140:
 1332              		.section	.text.SystemClock_Config,"ax",%progbits
 1333              		.align	1
 1334              		.global	SystemClock_Config
 1335              		.syntax unified
 1336              		.thumb
 1337              		.thumb_func
 1339              	SystemClock_Config:
 1340              	.LFB139:
 198:Core/Src/main.c ****   RCC_OscInitTypeDef RCC_OscInitStruct = {0};
 1341              		.loc 1 198 1 view -0
 1342              		.cfi_startproc
 1343              		@ args = 0, pretend = 0, frame = 80
 1344              		@ frame_needed = 0, uses_anonymous_args = 0
 1345 0000 00B5     		push	{lr}
 1346              	.LCFI14:
 1347              		.cfi_def_cfa_offset 4
 1348              		.cfi_offset 14, -4
 1349 0002 95B0     		sub	sp, sp, #84
 1350              	.LCFI15:
 1351              		.cfi_def_cfa_offset 88
 199:Core/Src/main.c ****   RCC_ClkInitTypeDef RCC_ClkInitStruct = {0};
 1352              		.loc 1 199 3 view .LVU308
 199:Core/Src/main.c ****   RCC_ClkInitTypeDef RCC_ClkInitStruct = {0};
 1353              		.loc 1 199 22 is_stmt 0 view .LVU309
 1354 0004 3022     		movs	r2, #48
 1355 0006 0021     		movs	r1, #0
 1356 0008 08A8     		add	r0, sp, #32
 1357 000a FFF7FEFF 		bl	memset
 1358              	.LVL104:
 200:Core/Src/main.c **** 
 1359              		.loc 1 200 3 is_stmt 1 view .LVU310
 200:Core/Src/main.c **** 
ARM GAS  C:\Users\jdcox\AppData\Local\Temp\cc7i9zXT.s 			page 44


 1360              		.loc 1 200 22 is_stmt 0 view .LVU311
 1361 000e 0023     		movs	r3, #0
 1362 0010 0393     		str	r3, [sp, #12]
 1363 0012 0493     		str	r3, [sp, #16]
 1364 0014 0593     		str	r3, [sp, #20]
 1365 0016 0693     		str	r3, [sp, #24]
 1366 0018 0793     		str	r3, [sp, #28]
 204:Core/Src/main.c ****   __HAL_PWR_VOLTAGESCALING_CONFIG(PWR_REGULATOR_VOLTAGE_SCALE2);
 1367              		.loc 1 204 3 is_stmt 1 view .LVU312
 1368              	.LBB12:
 204:Core/Src/main.c ****   __HAL_PWR_VOLTAGESCALING_CONFIG(PWR_REGULATOR_VOLTAGE_SCALE2);
 1369              		.loc 1 204 3 view .LVU313
 1370 001a 0193     		str	r3, [sp, #4]
 204:Core/Src/main.c ****   __HAL_PWR_VOLTAGESCALING_CONFIG(PWR_REGULATOR_VOLTAGE_SCALE2);
 1371              		.loc 1 204 3 view .LVU314
 1372 001c 214A     		ldr	r2, .L76
 1373 001e 116C     		ldr	r1, [r2, #64]
 1374 0020 41F08051 		orr	r1, r1, #268435456
 1375 0024 1164     		str	r1, [r2, #64]
 204:Core/Src/main.c ****   __HAL_PWR_VOLTAGESCALING_CONFIG(PWR_REGULATOR_VOLTAGE_SCALE2);
 1376              		.loc 1 204 3 view .LVU315
 1377 0026 126C     		ldr	r2, [r2, #64]
 1378 0028 02F08052 		and	r2, r2, #268435456
 1379 002c 0192     		str	r2, [sp, #4]
 204:Core/Src/main.c ****   __HAL_PWR_VOLTAGESCALING_CONFIG(PWR_REGULATOR_VOLTAGE_SCALE2);
 1380              		.loc 1 204 3 view .LVU316
 1381 002e 019A     		ldr	r2, [sp, #4]
 1382              	.LBE12:
 204:Core/Src/main.c ****   __HAL_PWR_VOLTAGESCALING_CONFIG(PWR_REGULATOR_VOLTAGE_SCALE2);
 1383              		.loc 1 204 3 view .LVU317
 205:Core/Src/main.c **** 
 1384              		.loc 1 205 3 view .LVU318
 1385              	.LBB13:
 205:Core/Src/main.c **** 
 1386              		.loc 1 205 3 view .LVU319
 1387 0030 0293     		str	r3, [sp, #8]
 205:Core/Src/main.c **** 
 1388              		.loc 1 205 3 view .LVU320
 1389 0032 1D4A     		ldr	r2, .L76+4
 1390 0034 1368     		ldr	r3, [r2]
 1391 0036 23F44043 		bic	r3, r3, #49152
 1392 003a 43F40043 		orr	r3, r3, #32768
 1393 003e 1360     		str	r3, [r2]
 205:Core/Src/main.c **** 
 1394              		.loc 1 205 3 view .LVU321
 1395 0040 1368     		ldr	r3, [r2]
 1396 0042 03F44043 		and	r3, r3, #49152
 1397 0046 0293     		str	r3, [sp, #8]
 205:Core/Src/main.c **** 
 1398              		.loc 1 205 3 view .LVU322
 1399 0048 029B     		ldr	r3, [sp, #8]
 1400              	.LBE13:
 205:Core/Src/main.c **** 
 1401              		.loc 1 205 3 view .LVU323
 210:Core/Src/main.c ****   RCC_OscInitStruct.HSEState = RCC_HSE_ON;
 1402              		.loc 1 210 3 view .LVU324
 210:Core/Src/main.c ****   RCC_OscInitStruct.HSEState = RCC_HSE_ON;
ARM GAS  C:\Users\jdcox\AppData\Local\Temp\cc7i9zXT.s 			page 45


 1403              		.loc 1 210 36 is_stmt 0 view .LVU325
 1404 004a 0123     		movs	r3, #1
 1405 004c 0893     		str	r3, [sp, #32]
 211:Core/Src/main.c ****   RCC_OscInitStruct.PLL.PLLState = RCC_PLL_ON;
 1406              		.loc 1 211 3 is_stmt 1 view .LVU326
 211:Core/Src/main.c ****   RCC_OscInitStruct.PLL.PLLState = RCC_PLL_ON;
 1407              		.loc 1 211 30 is_stmt 0 view .LVU327
 1408 004e 4FF48033 		mov	r3, #65536
 1409 0052 0993     		str	r3, [sp, #36]
 212:Core/Src/main.c ****   RCC_OscInitStruct.PLL.PLLSource = RCC_PLLSOURCE_HSE;
 1410              		.loc 1 212 3 is_stmt 1 view .LVU328
 212:Core/Src/main.c ****   RCC_OscInitStruct.PLL.PLLSource = RCC_PLLSOURCE_HSE;
 1411              		.loc 1 212 34 is_stmt 0 view .LVU329
 1412 0054 0223     		movs	r3, #2
 1413 0056 0E93     		str	r3, [sp, #56]
 213:Core/Src/main.c ****   RCC_OscInitStruct.PLL.PLLM = 25;
 1414              		.loc 1 213 3 is_stmt 1 view .LVU330
 213:Core/Src/main.c ****   RCC_OscInitStruct.PLL.PLLM = 25;
 1415              		.loc 1 213 35 is_stmt 0 view .LVU331
 1416 0058 4FF48003 		mov	r3, #4194304
 1417 005c 0F93     		str	r3, [sp, #60]
 214:Core/Src/main.c ****   RCC_OscInitStruct.PLL.PLLN = 336;
 1418              		.loc 1 214 3 is_stmt 1 view .LVU332
 214:Core/Src/main.c ****   RCC_OscInitStruct.PLL.PLLN = 336;
 1419              		.loc 1 214 30 is_stmt 0 view .LVU333
 1420 005e 1923     		movs	r3, #25
 1421 0060 1093     		str	r3, [sp, #64]
 215:Core/Src/main.c ****   RCC_OscInitStruct.PLL.PLLP = RCC_PLLP_DIV4;
 1422              		.loc 1 215 3 is_stmt 1 view .LVU334
 215:Core/Src/main.c ****   RCC_OscInitStruct.PLL.PLLP = RCC_PLLP_DIV4;
 1423              		.loc 1 215 30 is_stmt 0 view .LVU335
 1424 0062 4FF4A873 		mov	r3, #336
 1425 0066 1193     		str	r3, [sp, #68]
 216:Core/Src/main.c ****   RCC_OscInitStruct.PLL.PLLQ = 7;
 1426              		.loc 1 216 3 is_stmt 1 view .LVU336
 216:Core/Src/main.c ****   RCC_OscInitStruct.PLL.PLLQ = 7;
 1427              		.loc 1 216 30 is_stmt 0 view .LVU337
 1428 0068 0423     		movs	r3, #4
 1429 006a 1293     		str	r3, [sp, #72]
 217:Core/Src/main.c ****   if (HAL_RCC_OscConfig(&RCC_OscInitStruct) != HAL_OK)
 1430              		.loc 1 217 3 is_stmt 1 view .LVU338
 217:Core/Src/main.c ****   if (HAL_RCC_OscConfig(&RCC_OscInitStruct) != HAL_OK)
 1431              		.loc 1 217 30 is_stmt 0 view .LVU339
 1432 006c 0723     		movs	r3, #7
 1433 006e 1393     		str	r3, [sp, #76]
 218:Core/Src/main.c ****   {
 1434              		.loc 1 218 3 is_stmt 1 view .LVU340
 218:Core/Src/main.c ****   {
 1435              		.loc 1 218 7 is_stmt 0 view .LVU341
 1436 0070 08A8     		add	r0, sp, #32
 1437 0072 FFF7FEFF 		bl	HAL_RCC_OscConfig
 1438              	.LVL105:
 218:Core/Src/main.c ****   {
 1439              		.loc 1 218 6 view .LVU342
 1440 0076 80B9     		cbnz	r0, .L74
 225:Core/Src/main.c ****                               |RCC_CLOCKTYPE_PCLK1|RCC_CLOCKTYPE_PCLK2;
 1441              		.loc 1 225 3 is_stmt 1 view .LVU343
ARM GAS  C:\Users\jdcox\AppData\Local\Temp\cc7i9zXT.s 			page 46


 225:Core/Src/main.c ****                               |RCC_CLOCKTYPE_PCLK1|RCC_CLOCKTYPE_PCLK2;
 1442              		.loc 1 225 31 is_stmt 0 view .LVU344
 1443 0078 0F23     		movs	r3, #15
 1444 007a 0393     		str	r3, [sp, #12]
 227:Core/Src/main.c ****   RCC_ClkInitStruct.AHBCLKDivider = RCC_SYSCLK_DIV1;
 1445              		.loc 1 227 3 is_stmt 1 view .LVU345
 227:Core/Src/main.c ****   RCC_ClkInitStruct.AHBCLKDivider = RCC_SYSCLK_DIV1;
 1446              		.loc 1 227 34 is_stmt 0 view .LVU346
 1447 007c 0221     		movs	r1, #2
 1448 007e 0491     		str	r1, [sp, #16]
 228:Core/Src/main.c ****   RCC_ClkInitStruct.APB1CLKDivider = RCC_HCLK_DIV2;
 1449              		.loc 1 228 3 is_stmt 1 view .LVU347
 228:Core/Src/main.c ****   RCC_ClkInitStruct.APB1CLKDivider = RCC_HCLK_DIV2;
 1450              		.loc 1 228 35 is_stmt 0 view .LVU348
 1451 0080 0023     		movs	r3, #0
 1452 0082 0593     		str	r3, [sp, #20]
 229:Core/Src/main.c ****   RCC_ClkInitStruct.APB2CLKDivider = RCC_HCLK_DIV1;
 1453              		.loc 1 229 3 is_stmt 1 view .LVU349
 229:Core/Src/main.c ****   RCC_ClkInitStruct.APB2CLKDivider = RCC_HCLK_DIV1;
 1454              		.loc 1 229 36 is_stmt 0 view .LVU350
 1455 0084 4FF48052 		mov	r2, #4096
 1456 0088 0692     		str	r2, [sp, #24]
 230:Core/Src/main.c **** 
 1457              		.loc 1 230 3 is_stmt 1 view .LVU351
 230:Core/Src/main.c **** 
 1458              		.loc 1 230 36 is_stmt 0 view .LVU352
 1459 008a 0793     		str	r3, [sp, #28]
 232:Core/Src/main.c ****   {
 1460              		.loc 1 232 3 is_stmt 1 view .LVU353
 232:Core/Src/main.c ****   {
 1461              		.loc 1 232 7 is_stmt 0 view .LVU354
 1462 008c 03A8     		add	r0, sp, #12
 1463 008e FFF7FEFF 		bl	HAL_RCC_ClockConfig
 1464              	.LVL106:
 232:Core/Src/main.c ****   {
 1465              		.loc 1 232 6 view .LVU355
 1466 0092 20B9     		cbnz	r0, .L75
 236:Core/Src/main.c **** 
 1467              		.loc 1 236 1 view .LVU356
 1468 0094 15B0     		add	sp, sp, #84
 1469              	.LCFI16:
 1470              		.cfi_remember_state
 1471              		.cfi_def_cfa_offset 4
 1472              		@ sp needed
 1473 0096 5DF804FB 		ldr	pc, [sp], #4
 1474              	.L74:
 1475              	.LCFI17:
 1476              		.cfi_restore_state
 220:Core/Src/main.c ****   }
 1477              		.loc 1 220 5 is_stmt 1 view .LVU357
 1478 009a FFF7FEFF 		bl	Error_Handler
 1479              	.LVL107:
 1480              	.L75:
 234:Core/Src/main.c ****   }
 1481              		.loc 1 234 5 view .LVU358
 1482 009e FFF7FEFF 		bl	Error_Handler
 1483              	.LVL108:
ARM GAS  C:\Users\jdcox\AppData\Local\Temp\cc7i9zXT.s 			page 47


 1484              	.L77:
 1485 00a2 00BF     		.align	2
 1486              	.L76:
 1487 00a4 00380240 		.word	1073887232
 1488 00a8 00700040 		.word	1073770496
 1489              		.cfi_endproc
 1490              	.LFE139:
 1492              		.section	.text.main,"ax",%progbits
 1493              		.align	1
 1494              		.global	main
 1495              		.syntax unified
 1496              		.thumb
 1497              		.thumb_func
 1499              	main:
 1500              	.LFB138:
  95:Core/Src/main.c ****   /* USER CODE BEGIN 1 */
 1501              		.loc 1 95 1 view -0
 1502              		.cfi_startproc
 1503              		@ Volatile: function does not return.
 1504              		@ args = 0, pretend = 0, frame = 104
 1505              		@ frame_needed = 0, uses_anonymous_args = 0
 1506 0000 00B5     		push	{lr}
 1507              	.LCFI18:
 1508              		.cfi_def_cfa_offset 4
 1509              		.cfi_offset 14, -4
 1510 0002 9BB0     		sub	sp, sp, #108
 1511              	.LCFI19:
 1512              		.cfi_def_cfa_offset 112
 103:Core/Src/main.c **** 
 1513              		.loc 1 103 3 view .LVU360
 1514 0004 FFF7FEFF 		bl	HAL_Init
 1515              	.LVL109:
 110:Core/Src/main.c **** 
 1516              		.loc 1 110 3 view .LVU361
 1517 0008 FFF7FEFF 		bl	SystemClock_Config
 1518              	.LVL110:
 117:Core/Src/main.c ****   MX_DMA_Init();
 1519              		.loc 1 117 3 view .LVU362
 1520 000c FFF7FEFF 		bl	MX_GPIO_Init
 1521              	.LVL111:
 118:Core/Src/main.c ****   MX_SPI1_Init();
 1522              		.loc 1 118 3 view .LVU363
 1523 0010 FFF7FEFF 		bl	MX_DMA_Init
 1524              	.LVL112:
 119:Core/Src/main.c ****   MX_I2C1_Init();
 1525              		.loc 1 119 3 view .LVU364
 1526 0014 FFF7FEFF 		bl	MX_SPI1_Init
 1527              	.LVL113:
 120:Core/Src/main.c ****   /* USER CODE BEGIN 2 */
 1528              		.loc 1 120 3 view .LVU365
 1529 0018 FFF7FEFF 		bl	MX_I2C1_Init
 1530              	.LVL114:
 135:Core/Src/main.c **** 
 1531              		.loc 1 135 3 view .LVU366
 135:Core/Src/main.c **** 
 1532              		.loc 1 135 16 is_stmt 0 view .LVU367
 1533 001c 0120     		movs	r0, #1
ARM GAS  C:\Users\jdcox\AppData\Local\Temp\cc7i9zXT.s 			page 48


 1534 001e FFF7FEFF 		bl	xQueueCreateMutex
 1535              	.LVL115:
 135:Core/Src/main.c **** 
 1536              		.loc 1 135 14 view .LVU368
 1537 0022 284B     		ldr	r3, .L81
 1538 0024 1860     		str	r0, [r3]
 145:Core/Src/main.c ****   msTickHandle = osTimerCreate(osTimer(msTick), osTimerPeriodic, NULL);
 1539              		.loc 1 145 3 is_stmt 1 view .LVU369
 1540 0026 284B     		ldr	r3, .L81+4
 1541 0028 1893     		str	r3, [sp, #96]
 1542 002a 0025     		movs	r5, #0
 1543 002c 1995     		str	r5, [sp, #100]
 146:Core/Src/main.c **** 
 1544              		.loc 1 146 3 view .LVU370
 146:Core/Src/main.c **** 
 1545              		.loc 1 146 18 is_stmt 0 view .LVU371
 1546 002e 2A46     		mov	r2, r5
 1547 0030 0121     		movs	r1, #1
 1548 0032 18A8     		add	r0, sp, #96
 1549 0034 FFF7FEFF 		bl	osTimerCreate
 1550              	.LVL116:
 146:Core/Src/main.c **** 
 1551              		.loc 1 146 16 view .LVU372
 1552 0038 244B     		ldr	r3, .L81+8
 1553 003a 1860     		str	r0, [r3]
 149:Core/Src/main.c ****   debounceTimerHandle = osTimerCreate(osTimer(debounceTimer), osTimerOnce, NULL);
 1554              		.loc 1 149 3 is_stmt 1 view .LVU373
 1555 003c 244B     		ldr	r3, .L81+12
 1556 003e 1693     		str	r3, [sp, #88]
 1557 0040 1795     		str	r5, [sp, #92]
 150:Core/Src/main.c **** 
 1558              		.loc 1 150 3 view .LVU374
 150:Core/Src/main.c **** 
 1559              		.loc 1 150 25 is_stmt 0 view .LVU375
 1560 0042 2A46     		mov	r2, r5
 1561 0044 2946     		mov	r1, r5
 1562 0046 16A8     		add	r0, sp, #88
 1563 0048 FFF7FEFF 		bl	osTimerCreate
 1564              	.LVL117:
 150:Core/Src/main.c **** 
 1565              		.loc 1 150 23 view .LVU376
 1566 004c 214B     		ldr	r3, .L81+16
 1567 004e 1860     		str	r0, [r3]
 163:Core/Src/main.c ****   defaultTaskHandle = osThreadCreate(osThread(defaultTask), NULL);
 1568              		.loc 1 163 3 is_stmt 1 view .LVU377
 1569 0050 214C     		ldr	r4, .L81+20
 1570 0052 0DF13C0C 		add	ip, sp, #60
 1571 0056 A646     		mov	lr, r4
 1572 0058 BEE80F00 		ldmia	lr!, {r0, r1, r2, r3}
 1573 005c ACE80F00 		stmia	ip!, {r0, r1, r2, r3}
 1574 0060 9EE80700 		ldm	lr, {r0, r1, r2}
 1575 0064 8CE80700 		stm	ip, {r0, r1, r2}
 164:Core/Src/main.c **** 
 1576              		.loc 1 164 3 view .LVU378
 164:Core/Src/main.c **** 
 1577              		.loc 1 164 23 is_stmt 0 view .LVU379
 1578 0068 2946     		mov	r1, r5
ARM GAS  C:\Users\jdcox\AppData\Local\Temp\cc7i9zXT.s 			page 49


 1579 006a 0FA8     		add	r0, sp, #60
 1580 006c FFF7FEFF 		bl	osThreadCreate
 1581              	.LVL118:
 164:Core/Src/main.c **** 
 1582              		.loc 1 164 21 view .LVU380
 1583 0070 1A4B     		ldr	r3, .L81+24
 1584 0072 1860     		str	r0, [r3]
 167:Core/Src/main.c ****   loraRXTaskHandle = osThreadCreate(osThread(loraRXTask), NULL);
 1585              		.loc 1 167 3 is_stmt 1 view .LVU381
 1586 0074 0DF1200C 		add	ip, sp, #32
 1587 0078 04F11C0E 		add	lr, r4, #28
 1588 007c BEE80F00 		ldmia	lr!, {r0, r1, r2, r3}
 1589 0080 ACE80F00 		stmia	ip!, {r0, r1, r2, r3}
 1590 0084 9EE80700 		ldm	lr, {r0, r1, r2}
 1591 0088 8CE80700 		stm	ip, {r0, r1, r2}
 168:Core/Src/main.c **** 
 1592              		.loc 1 168 3 view .LVU382
 168:Core/Src/main.c **** 
 1593              		.loc 1 168 22 is_stmt 0 view .LVU383
 1594 008c 2946     		mov	r1, r5
 1595 008e 08A8     		add	r0, sp, #32
 1596 0090 FFF7FEFF 		bl	osThreadCreate
 1597              	.LVL119:
 168:Core/Src/main.c **** 
 1598              		.loc 1 168 20 view .LVU384
 1599 0094 124B     		ldr	r3, .L81+28
 1600 0096 1860     		str	r0, [r3]
 171:Core/Src/main.c ****   displayTaskHandle = osThreadCreate(osThread(displayTask), NULL);
 1601              		.loc 1 171 3 is_stmt 1 view .LVU385
 1602 0098 0DF1040E 		add	lr, sp, #4
 1603 009c 04F1380C 		add	ip, r4, #56
 1604 00a0 BCE80F00 		ldmia	ip!, {r0, r1, r2, r3}
 1605 00a4 AEE80F00 		stmia	lr!, {r0, r1, r2, r3}
 1606 00a8 9CE80700 		ldm	ip, {r0, r1, r2}
 1607 00ac 8EE80700 		stm	lr, {r0, r1, r2}
 172:Core/Src/main.c **** 
 1608              		.loc 1 172 3 view .LVU386
 172:Core/Src/main.c **** 
 1609              		.loc 1 172 23 is_stmt 0 view .LVU387
 1610 00b0 2946     		mov	r1, r5
 1611 00b2 01A8     		add	r0, sp, #4
 1612 00b4 FFF7FEFF 		bl	osThreadCreate
 1613              	.LVL120:
 172:Core/Src/main.c **** 
 1614              		.loc 1 172 21 view .LVU388
 1615 00b8 0A4B     		ldr	r3, .L81+32
 1616 00ba 1860     		str	r0, [r3]
 179:Core/Src/main.c **** 
 1617              		.loc 1 179 3 is_stmt 1 view .LVU389
 1618 00bc FFF7FEFF 		bl	osKernelStart
 1619              	.LVL121:
 1620              	.L79:
 184:Core/Src/main.c ****   {
 1621              		.loc 1 184 3 discriminator 1 view .LVU390
 189:Core/Src/main.c ****   /* USER CODE END 3 */
 1622              		.loc 1 189 3 discriminator 1 view .LVU391
 184:Core/Src/main.c ****   {
ARM GAS  C:\Users\jdcox\AppData\Local\Temp\cc7i9zXT.s 			page 50


 1623              		.loc 1 184 9 discriminator 1 view .LVU392
 1624 00c0 FEE7     		b	.L79
 1625              	.L82:
 1626 00c2 00BF     		.align	2
 1627              	.L81:
 1628 00c4 00000000 		.word	.LANCHOR0
 1629 00c8 00000000 		.word	msTickCallback
 1630 00cc 00000000 		.word	.LANCHOR5
 1631 00d0 00000000 		.word	debounceCallback
 1632 00d4 00000000 		.word	.LANCHOR3
 1633 00d8 00000000 		.word	.LANCHOR6
 1634 00dc 00000000 		.word	.LANCHOR7
 1635 00e0 00000000 		.word	.LANCHOR8
 1636 00e4 00000000 		.word	.LANCHOR9
 1637              		.cfi_endproc
 1638              	.LFE138:
 1640              		.section	.rodata.str1.4,"aMS",%progbits,1
 1641              		.align	2
 1642              	.LC4:
 1643 0000 64697370 		.ascii	"displayTask\000"
 1643      6C617954 
 1643      61736B00 
 1644              		.align	2
 1645              	.LC2:
 1646 000c 6C6F7261 		.ascii	"loraRXTask\000"
 1646      52585461 
 1646      736B00
 1647 0017 00       		.align	2
 1648              	.LC0:
 1649 0018 64656661 		.ascii	"defaultTask\000"
 1649      756C7454 
 1649      61736B00 
 1650              		.global	lora
 1651              		.global	xloraMutex
 1652              		.global	lora_mutexHandle
 1653              		.global	debounceTimerHandle
 1654              		.global	msTickHandle
 1655              		.global	displayTaskHandle
 1656              		.global	loraRXTaskHandle
 1657              		.global	defaultTaskHandle
 1658              		.global	hspi1
 1659              		.global	hdma_i2c1_tx
 1660              		.global	hi2c1
 1661              		.section	.rodata
 1662              		.align	2
 1663              		.set	.LANCHOR6,. + 0
 1664              	.LC18:
 1665 0000 18000000 		.word	.LC0
 1666 0004 00000000 		.word	StartDefaultTask
 1667 0008 0000     		.short	0
 1668 000a 0000     		.space	2
 1669 000c 00000000 		.word	0
 1670 0010 80000000 		.word	128
 1671 0014 00000000 		.word	0
 1672 0018 00000000 		.word	0
 1673              	.LC19:
 1674 001c 0C000000 		.word	.LC2
ARM GAS  C:\Users\jdcox\AppData\Local\Temp\cc7i9zXT.s 			page 51


 1675 0020 00000000 		.word	StartLoraRXTask
 1676 0024 0100     		.short	1
 1677 0026 0000     		.space	2
 1678 0028 00000000 		.word	0
 1679 002c 80000000 		.word	128
 1680 0030 00000000 		.word	0
 1681 0034 00000000 		.word	0
 1682              	.LC20:
 1683 0038 00000000 		.word	.LC4
 1684 003c 00000000 		.word	StartDisplayTask
 1685 0040 0000     		.short	0
 1686 0042 0000     		.space	2
 1687 0044 00000000 		.word	0
 1688 0048 80000000 		.word	128
 1689 004c 00000000 		.word	0
 1690 0050 00000000 		.word	0
 1691              		.section	.bss.debounceTimerHandle,"aw",%nobits
 1692              		.align	2
 1693              		.set	.LANCHOR3,. + 0
 1696              	debounceTimerHandle:
 1697 0000 00000000 		.space	4
 1698              		.section	.bss.defaultTaskHandle,"aw",%nobits
 1699              		.align	2
 1700              		.set	.LANCHOR7,. + 0
 1703              	defaultTaskHandle:
 1704 0000 00000000 		.space	4
 1705              		.section	.bss.displayTaskHandle,"aw",%nobits
 1706              		.align	2
 1707              		.set	.LANCHOR9,. + 0
 1710              	displayTaskHandle:
 1711 0000 00000000 		.space	4
 1712              		.section	.bss.hdma_i2c1_tx,"aw",%nobits
 1713              		.align	2
 1716              	hdma_i2c1_tx:
 1717 0000 00000000 		.space	96
 1717      00000000 
 1717      00000000 
 1717      00000000 
 1717      00000000 
 1718              		.section	.bss.hi2c1,"aw",%nobits
 1719              		.align	2
 1720              		.set	.LANCHOR4,. + 0
 1723              	hi2c1:
 1724 0000 00000000 		.space	84
 1724      00000000 
 1724      00000000 
 1724      00000000 
 1724      00000000 
 1725              		.section	.bss.hspi1,"aw",%nobits
 1726              		.align	2
 1727              		.set	.LANCHOR1,. + 0
 1730              	hspi1:
 1731 0000 00000000 		.space	88
 1731      00000000 
 1731      00000000 
 1731      00000000 
 1731      00000000 
ARM GAS  C:\Users\jdcox\AppData\Local\Temp\cc7i9zXT.s 			page 52


 1732              		.section	.bss.lora,"aw",%nobits
 1733              		.align	2
 1734              		.set	.LANCHOR2,. + 0
 1737              	lora:
 1738 0000 00000000 		.space	24
 1738      00000000 
 1738      00000000 
 1738      00000000 
 1738      00000000 
 1739              		.section	.bss.loraRXTaskHandle,"aw",%nobits
 1740              		.align	2
 1741              		.set	.LANCHOR8,. + 0
 1744              	loraRXTaskHandle:
 1745 0000 00000000 		.space	4
 1746              		.section	.bss.lora_mutexHandle,"aw",%nobits
 1747              		.align	2
 1750              	lora_mutexHandle:
 1751 0000 00000000 		.space	4
 1752              		.section	.bss.msTickHandle,"aw",%nobits
 1753              		.align	2
 1754              		.set	.LANCHOR5,. + 0
 1757              	msTickHandle:
 1758 0000 00000000 		.space	4
 1759              		.section	.bss.xloraMutex,"aw",%nobits
 1760              		.align	2
 1761              		.set	.LANCHOR0,. + 0
 1764              	xloraMutex:
 1765 0000 00000000 		.space	4
 1766              		.text
 1767              	.Letext0:
 1768              		.file 3 "Drivers/CMSIS/Device/ST/STM32F4xx/Include/stm32f401xc.h"
 1769              		.file 4 "c:\\libraries\\gcc\\11.2 2022.02\\arm-none-eabi\\include\\machine\\_default_types.h"
 1770              		.file 5 "c:\\libraries\\gcc\\11.2 2022.02\\arm-none-eabi\\include\\sys\\_stdint.h"
 1771              		.file 6 "Drivers/CMSIS/Device/ST/STM32F4xx/Include/stm32f4xx.h"
 1772              		.file 7 "Drivers/STM32F4xx_HAL_Driver/Inc/stm32f4xx_hal_def.h"
 1773              		.file 8 "Drivers/STM32F4xx_HAL_Driver/Inc/stm32f4xx_hal_rcc_ex.h"
 1774              		.file 9 "Drivers/STM32F4xx_HAL_Driver/Inc/stm32f4xx_hal_rcc.h"
 1775              		.file 10 "Drivers/STM32F4xx_HAL_Driver/Inc/stm32f4xx_hal_gpio.h"
 1776              		.file 11 "Drivers/STM32F4xx_HAL_Driver/Inc/stm32f4xx_hal_dma.h"
 1777              		.file 12 "Drivers/STM32F4xx_HAL_Driver/Inc/stm32f4xx_hal_i2c.h"
 1778              		.file 13 "Drivers/STM32F4xx_HAL_Driver/Inc/stm32f4xx_hal_spi.h"
 1779              		.file 14 "Drivers/STM32F4xx_HAL_Driver/Inc/stm32f4xx_hal_tim.h"
 1780              		.file 15 "Middlewares/Third_Party/FreeRTOS/Source/include/projdefs.h"
 1781              		.file 16 "Middlewares/Third_Party/FreeRTOS/Source/portable/GCC/ARM_CM4F/portmacro.h"
 1782              		.file 17 "Middlewares/Third_Party/FreeRTOS/Source/include/FreeRTOS.h"
 1783              		.file 18 "Middlewares/Third_Party/FreeRTOS/Source/include/task.h"
 1784              		.file 19 "Middlewares/Third_Party/FreeRTOS/Source/include/timers.h"
 1785              		.file 20 "Middlewares/Third_Party/FreeRTOS/Source/include/queue.h"
 1786              		.file 21 "Middlewares/Third_Party/FreeRTOS/Source/include/semphr.h"
 1787              		.file 22 "Middlewares/Third_Party/FreeRTOS/Source/CMSIS_RTOS/cmsis_os.h"
 1788              		.file 23 "Core/Inc/lora_sx1276.h"
 1789              		.file 24 "Core/Inc/extern.h"
 1790              		.file 25 "Core/Inc/ssd1306_fonts.h"
 1791              		.file 26 "Core/Inc/ssd1306.h"
 1792              		.file 27 "c:\\libraries\\gcc\\11.2 2022.02\\arm-none-eabi\\include\\stdio.h"
 1793              		.file 28 "Core/Inc/i2c-lcd.h"
 1794              		.file 29 "Drivers/STM32F4xx_HAL_Driver/Inc/stm32f4xx_hal.h"
ARM GAS  C:\Users\jdcox\AppData\Local\Temp\cc7i9zXT.s 			page 53


 1795              		.file 30 "Drivers/STM32F4xx_HAL_Driver/Inc/stm32f4xx_hal_cortex.h"
 1796              		.file 31 "<built-in>"
ARM GAS  C:\Users\jdcox\AppData\Local\Temp\cc7i9zXT.s 			page 54

