ARM GAS  C:\Users\jdcox\AppData\Local\Temp\ccRYgA8S.s 			page 1


   1              		.cpu cortex-m4
   2              		.arch armv7e-m
   3              		.fpu fpv4-sp-d16
   4              		.eabi_attribute 27, 1
   5              		.eabi_attribute 28, 1
   6              		.eabi_attribute 20, 1
   7              		.eabi_attribute 21, 1
   8              		.eabi_attribute 23, 3
   9              		.eabi_attribute 24, 1
  10              		.eabi_attribute 25, 1
  11              		.eabi_attribute 26, 1
  12              		.eabi_attribute 30, 1
  13              		.eabi_attribute 34, 1
  14              		.eabi_attribute 18, 4
  15              		.file	"main.c"
  16              		.text
  17              	.Ltext0:
  18              		.cfi_sections	.debug_frame
  19              		.section	.text.msTickCallback,"ax",%progbits
  20              		.align	1
  21              		.global	msTickCallback
  22              		.syntax unified
  23              		.thumb
  24              		.thumb_func
  26              	msTickCallback:
  27              	.LVL0:
  28              	.LFB147:
  29              		.file 1 "Core/Src/main.c"
   1:Core/Src/main.c **** /* USER CODE BEGIN Header */
   2:Core/Src/main.c **** /**
   3:Core/Src/main.c ****   ******************************************************************************
   4:Core/Src/main.c ****   * @file           : main.c
   5:Core/Src/main.c ****   * @brief          : Main program body
   6:Core/Src/main.c ****   ******************************************************************************
   7:Core/Src/main.c ****   * @attention
   8:Core/Src/main.c ****   *
   9:Core/Src/main.c ****   * Copyright (c) 2024 STMicroelectronics.
  10:Core/Src/main.c ****   * All rights reserved.
  11:Core/Src/main.c ****   *
  12:Core/Src/main.c ****   * This software is licensed under terms that can be found in the LICENSE file
  13:Core/Src/main.c ****   * in the root directory of this software component.
  14:Core/Src/main.c ****   * If no LICENSE file comes with this software, it is provided AS-IS.
  15:Core/Src/main.c ****   *
  16:Core/Src/main.c ****   ******************************************************************************
  17:Core/Src/main.c ****   */
  18:Core/Src/main.c **** /* USER CODE END Header */
  19:Core/Src/main.c **** /* Includes ------------------------------------------------------------------*/
  20:Core/Src/main.c **** #include "main.h"
  21:Core/Src/main.c **** #include "cmsis_os.h"
  22:Core/Src/main.c **** 
  23:Core/Src/main.c **** /* Private includes ----------------------------------------------------------*/
  24:Core/Src/main.c **** /* USER CODE BEGIN Includes */
  25:Core/Src/main.c **** #include "extern.h"
  26:Core/Src/main.c **** #include "i2c-lcd.h"
  27:Core/Src/main.c **** #include "lora.h"
  28:Core/Src/main.c **** #include <string.h>
  29:Core/Src/main.c **** #include <stdio.h>
ARM GAS  C:\Users\jdcox\AppData\Local\Temp\ccRYgA8S.s 			page 2


  30:Core/Src/main.c **** #include "ssd1306.h"
  31:Core/Src/main.c **** #include "semphr.h"
  32:Core/Src/main.c **** 
  33:Core/Src/main.c **** 
  34:Core/Src/main.c **** /* USER CODE END Includes */
  35:Core/Src/main.c **** 
  36:Core/Src/main.c **** /* Private typedef -----------------------------------------------------------*/
  37:Core/Src/main.c **** /* USER CODE BEGIN PTD */
  38:Core/Src/main.c **** 
  39:Core/Src/main.c **** /* USER CODE END PTD */
  40:Core/Src/main.c **** 
  41:Core/Src/main.c **** /* Private define ------------------------------------------------------------*/
  42:Core/Src/main.c **** /* USER CODE BEGIN PD */
  43:Core/Src/main.c **** /* USER CODE END PD */
  44:Core/Src/main.c **** 
  45:Core/Src/main.c **** /* Private macro -------------------------------------------------------------*/
  46:Core/Src/main.c **** /* USER CODE BEGIN PM */
  47:Core/Src/main.c **** 
  48:Core/Src/main.c **** /* USER CODE END PM */
  49:Core/Src/main.c **** 
  50:Core/Src/main.c **** /* Private variables ---------------------------------------------------------*/
  51:Core/Src/main.c **** I2C_HandleTypeDef hi2c1;
  52:Core/Src/main.c **** DMA_HandleTypeDef hdma_i2c1_tx;
  53:Core/Src/main.c **** 
  54:Core/Src/main.c **** SPI_HandleTypeDef hspi1;
  55:Core/Src/main.c **** DMA_HandleTypeDef hdma_spi1_tx;
  56:Core/Src/main.c **** DMA_HandleTypeDef hdma_spi1_rx;
  57:Core/Src/main.c **** 
  58:Core/Src/main.c **** osThreadId defaultTaskHandle;
  59:Core/Src/main.c **** osThreadId loraRXTaskHandle;
  60:Core/Src/main.c **** osThreadId displayTaskHandle;
  61:Core/Src/main.c **** osTimerId msTickHandle;
  62:Core/Src/main.c **** osTimerId debounceTimerHandle;
  63:Core/Src/main.c **** osTimerId blinkTimerHandle;
  64:Core/Src/main.c **** osMutexId lora_mutexHandle;
  65:Core/Src/main.c **** /* USER CODE BEGIN PV */
  66:Core/Src/main.c **** SemaphoreHandle_t xloraMutex;
  67:Core/Src/main.c **** LoRa myLoRa;
  68:Core/Src/main.c **** 
  69:Core/Src/main.c **** 
  70:Core/Src/main.c **** /* USER CODE END PV */
  71:Core/Src/main.c **** 
  72:Core/Src/main.c **** /* Private function prototypes -----------------------------------------------*/
  73:Core/Src/main.c **** void SystemClock_Config(void);
  74:Core/Src/main.c **** static void MX_GPIO_Init(void);
  75:Core/Src/main.c **** static void MX_DMA_Init(void);
  76:Core/Src/main.c **** static void MX_SPI1_Init(void);
  77:Core/Src/main.c **** static void MX_I2C1_Init(void);
  78:Core/Src/main.c **** void StartDefaultTask(void const * argument);
  79:Core/Src/main.c **** void StartLoraRXTask(void const * argument);
  80:Core/Src/main.c **** void StartDisplayTask(void const * argument);
  81:Core/Src/main.c **** void msTickCallback(void const * argument);
  82:Core/Src/main.c **** void debounceCallback(void const * argument);
  83:Core/Src/main.c **** void blinkTimerCallback(void const * argument);
  84:Core/Src/main.c **** 
  85:Core/Src/main.c **** /* USER CODE BEGIN PFP */
  86:Core/Src/main.c **** 
ARM GAS  C:\Users\jdcox\AppData\Local\Temp\ccRYgA8S.s 			page 3


  87:Core/Src/main.c **** /* USER CODE END PFP */
  88:Core/Src/main.c **** 
  89:Core/Src/main.c **** /* Private user code ---------------------------------------------------------*/
  90:Core/Src/main.c **** /* USER CODE BEGIN 0 */
  91:Core/Src/main.c **** 
  92:Core/Src/main.c **** /* USER CODE END 0 */
  93:Core/Src/main.c **** 
  94:Core/Src/main.c **** /**
  95:Core/Src/main.c ****   * @brief  The application entry point.
  96:Core/Src/main.c ****   * @retval int
  97:Core/Src/main.c ****   */
  98:Core/Src/main.c **** int main(void)
  99:Core/Src/main.c **** {
 100:Core/Src/main.c ****   /* USER CODE BEGIN 1 */
 101:Core/Src/main.c **** 
 102:Core/Src/main.c ****   /* USER CODE END 1 */
 103:Core/Src/main.c **** 
 104:Core/Src/main.c ****   /* MCU Configuration--------------------------------------------------------*/
 105:Core/Src/main.c **** 
 106:Core/Src/main.c ****   /* Reset of all peripherals, Initializes the Flash interface and the Systick. */
 107:Core/Src/main.c ****   HAL_Init();
 108:Core/Src/main.c **** 
 109:Core/Src/main.c ****   /* USER CODE BEGIN Init */
 110:Core/Src/main.c **** 
 111:Core/Src/main.c ****   /* USER CODE END Init */
 112:Core/Src/main.c **** 
 113:Core/Src/main.c ****   /* Configure the system clock */
 114:Core/Src/main.c ****   SystemClock_Config();
 115:Core/Src/main.c **** 
 116:Core/Src/main.c ****   /* USER CODE BEGIN SysInit */
 117:Core/Src/main.c **** 
 118:Core/Src/main.c ****   /* USER CODE END SysInit */
 119:Core/Src/main.c **** 
 120:Core/Src/main.c ****   /* Initialize all configured peripherals */
 121:Core/Src/main.c ****   MX_GPIO_Init();
 122:Core/Src/main.c ****   MX_DMA_Init();
 123:Core/Src/main.c ****   MX_SPI1_Init();
 124:Core/Src/main.c ****   MX_I2C1_Init();
 125:Core/Src/main.c ****   /* USER CODE BEGIN 2 */
 126:Core/Src/main.c **** 
 127:Core/Src/main.c **** 
 128:Core/Src/main.c **** 
 129:Core/Src/main.c ****   /* USER CODE END 2 */
 130:Core/Src/main.c **** 
 131:Core/Src/main.c ****   /* Create the mutex(es) */
 132:Core/Src/main.c ****   /* definition and creation of lora_mutex */
 133:Core/Src/main.c ****   //debug osMutexDef(lora_mutex);
 134:Core/Src/main.c ****   //debug lora_mutexHandle = osMutexCreate(osMutex(lora_mutex));
 135:Core/Src/main.c **** 
 136:Core/Src/main.c ****   /* USER CODE BEGIN RTOS_MUTEX */
 137:Core/Src/main.c ****   /* add mutexes, ... */
 138:Core/Src/main.c **** 
 139:Core/Src/main.c ****   xloraMutex = xSemaphoreCreateMutex();
 140:Core/Src/main.c **** 
 141:Core/Src/main.c ****   /* USER CODE END RTOS_MUTEX */
 142:Core/Src/main.c **** 
 143:Core/Src/main.c ****   /* USER CODE BEGIN RTOS_SEMAPHORES */
ARM GAS  C:\Users\jdcox\AppData\Local\Temp\ccRYgA8S.s 			page 4


 144:Core/Src/main.c ****   /* add semaphores, ... */
 145:Core/Src/main.c ****   /* USER CODE END RTOS_SEMAPHORES */
 146:Core/Src/main.c **** 
 147:Core/Src/main.c ****   /* Create the timer(s) */
 148:Core/Src/main.c ****   /* definition and creation of msTick */
 149:Core/Src/main.c ****   osTimerDef(msTick, msTickCallback);
 150:Core/Src/main.c ****   msTickHandle = osTimerCreate(osTimer(msTick), osTimerPeriodic, NULL);
 151:Core/Src/main.c **** 
 152:Core/Src/main.c ****   /* definition and creation of debounceTimer */
 153:Core/Src/main.c ****   osTimerDef(debounceTimer, debounceCallback);
 154:Core/Src/main.c ****   debounceTimerHandle = osTimerCreate(osTimer(debounceTimer), osTimerOnce, NULL);
 155:Core/Src/main.c **** 
 156:Core/Src/main.c ****   /* definition and creation of blinkTimer */
 157:Core/Src/main.c ****   osTimerDef(blinkTimer, blinkTimerCallback);
 158:Core/Src/main.c ****   blinkTimerHandle = osTimerCreate(osTimer(blinkTimer), osTimerOnce, NULL);
 159:Core/Src/main.c **** 
 160:Core/Src/main.c ****   /* USER CODE BEGIN RTOS_TIMERS */
 161:Core/Src/main.c ****   /* start timers, add new ones, ... */
 162:Core/Src/main.c ****  
 163:Core/Src/main.c ****   /* USER CODE END RTOS_TIMERS */
 164:Core/Src/main.c **** 
 165:Core/Src/main.c ****   /* USER CODE BEGIN RTOS_QUEUES */
 166:Core/Src/main.c ****   /* add queues, ... */
 167:Core/Src/main.c ****   /* USER CODE END RTOS_QUEUES */
 168:Core/Src/main.c **** 
 169:Core/Src/main.c ****   /* Create the thread(s) */
 170:Core/Src/main.c ****   /* definition and creation of defaultTask */
 171:Core/Src/main.c ****   osThreadDef(defaultTask, StartDefaultTask, osPriorityNormal, 0, 128);
 172:Core/Src/main.c ****   defaultTaskHandle = osThreadCreate(osThread(defaultTask), NULL);
 173:Core/Src/main.c **** 
 174:Core/Src/main.c ****   /* definition and creation of loraRXTask */
 175:Core/Src/main.c ****   
 176:Core/Src/main.c **** 
 177:Core/Src/main.c ****   /* definition and creation of displayTask */
 178:Core/Src/main.c ****   osThreadDef(displayTask, StartDisplayTask, osPriorityNormal, 0, 128);
 179:Core/Src/main.c ****   displayTaskHandle = osThreadCreate(osThread(displayTask), NULL);
 180:Core/Src/main.c **** 
 181:Core/Src/main.c ****   /* USER CODE BEGIN RTOS_THREADS */
 182:Core/Src/main.c ****   /* add threads, ... */
 183:Core/Src/main.c ****   /* USER CODE END RTOS_THREADS */
 184:Core/Src/main.c **** 
 185:Core/Src/main.c ****   /* Start scheduler */
 186:Core/Src/main.c ****   osKernelStart();
 187:Core/Src/main.c **** 
 188:Core/Src/main.c ****   /* We should never get here as control is now taken by the scheduler */
 189:Core/Src/main.c ****   /* Infinite loop */
 190:Core/Src/main.c ****   /* USER CODE BEGIN WHILE */
 191:Core/Src/main.c ****   while (1)
 192:Core/Src/main.c ****   {
 193:Core/Src/main.c ****     /* USER CODE END WHILE */
 194:Core/Src/main.c **** 
 195:Core/Src/main.c ****     /* USER CODE BEGIN 3 */
 196:Core/Src/main.c ****   }
 197:Core/Src/main.c ****   /* USER CODE END 3 */
 198:Core/Src/main.c **** }
 199:Core/Src/main.c **** 
 200:Core/Src/main.c **** /**
ARM GAS  C:\Users\jdcox\AppData\Local\Temp\ccRYgA8S.s 			page 5


 201:Core/Src/main.c ****   * @brief System Clock Configuration
 202:Core/Src/main.c ****   * @retval None
 203:Core/Src/main.c ****   */
 204:Core/Src/main.c **** void SystemClock_Config(void)
 205:Core/Src/main.c **** {
 206:Core/Src/main.c ****   RCC_OscInitTypeDef RCC_OscInitStruct = {0};
 207:Core/Src/main.c ****   RCC_ClkInitTypeDef RCC_ClkInitStruct = {0};
 208:Core/Src/main.c **** 
 209:Core/Src/main.c ****   /** Configure the main internal regulator output voltage
 210:Core/Src/main.c ****   */
 211:Core/Src/main.c ****   __HAL_RCC_PWR_CLK_ENABLE();
 212:Core/Src/main.c ****   __HAL_PWR_VOLTAGESCALING_CONFIG(PWR_REGULATOR_VOLTAGE_SCALE2);
 213:Core/Src/main.c **** 
 214:Core/Src/main.c ****   /** Initializes the RCC Oscillators according to the specified parameters
 215:Core/Src/main.c ****   * in the RCC_OscInitTypeDef structure.
 216:Core/Src/main.c ****   */
 217:Core/Src/main.c ****   RCC_OscInitStruct.OscillatorType = RCC_OSCILLATORTYPE_HSE;
 218:Core/Src/main.c ****   RCC_OscInitStruct.HSEState = RCC_HSE_ON;
 219:Core/Src/main.c ****   RCC_OscInitStruct.PLL.PLLState = RCC_PLL_ON;
 220:Core/Src/main.c ****   RCC_OscInitStruct.PLL.PLLSource = RCC_PLLSOURCE_HSE;
 221:Core/Src/main.c ****   RCC_OscInitStruct.PLL.PLLM = 25;
 222:Core/Src/main.c ****   RCC_OscInitStruct.PLL.PLLN = 336;
 223:Core/Src/main.c ****   RCC_OscInitStruct.PLL.PLLP = RCC_PLLP_DIV4;
 224:Core/Src/main.c ****   RCC_OscInitStruct.PLL.PLLQ = 7;
 225:Core/Src/main.c ****   if (HAL_RCC_OscConfig(&RCC_OscInitStruct) != HAL_OK)
 226:Core/Src/main.c ****   {
 227:Core/Src/main.c ****     Error_Handler();
 228:Core/Src/main.c ****   }
 229:Core/Src/main.c **** 
 230:Core/Src/main.c ****   /** Initializes the CPU, AHB and APB buses clocks
 231:Core/Src/main.c ****   */
 232:Core/Src/main.c ****   RCC_ClkInitStruct.ClockType = RCC_CLOCKTYPE_HCLK|RCC_CLOCKTYPE_SYSCLK
 233:Core/Src/main.c ****                               |RCC_CLOCKTYPE_PCLK1|RCC_CLOCKTYPE_PCLK2;
 234:Core/Src/main.c ****   RCC_ClkInitStruct.SYSCLKSource = RCC_SYSCLKSOURCE_PLLCLK;
 235:Core/Src/main.c ****   RCC_ClkInitStruct.AHBCLKDivider = RCC_SYSCLK_DIV1;
 236:Core/Src/main.c ****   RCC_ClkInitStruct.APB1CLKDivider = RCC_HCLK_DIV2;
 237:Core/Src/main.c ****   RCC_ClkInitStruct.APB2CLKDivider = RCC_HCLK_DIV1;
 238:Core/Src/main.c **** 
 239:Core/Src/main.c ****   if (HAL_RCC_ClockConfig(&RCC_ClkInitStruct, FLASH_LATENCY_2) != HAL_OK)
 240:Core/Src/main.c ****   {
 241:Core/Src/main.c ****     Error_Handler();
 242:Core/Src/main.c ****   }
 243:Core/Src/main.c **** }
 244:Core/Src/main.c **** 
 245:Core/Src/main.c **** /**
 246:Core/Src/main.c ****   * @brief I2C1 Initialization Function
 247:Core/Src/main.c ****   * @param None
 248:Core/Src/main.c ****   * @retval None
 249:Core/Src/main.c ****   */
 250:Core/Src/main.c **** static void MX_I2C1_Init(void)
 251:Core/Src/main.c **** {
 252:Core/Src/main.c **** 
 253:Core/Src/main.c ****   /* USER CODE BEGIN I2C1_Init 0 */
 254:Core/Src/main.c **** 
 255:Core/Src/main.c ****   /* USER CODE END I2C1_Init 0 */
 256:Core/Src/main.c **** 
 257:Core/Src/main.c ****   /* USER CODE BEGIN I2C1_Init 1 */
ARM GAS  C:\Users\jdcox\AppData\Local\Temp\ccRYgA8S.s 			page 6


 258:Core/Src/main.c **** 
 259:Core/Src/main.c ****   /* USER CODE END I2C1_Init 1 */
 260:Core/Src/main.c ****   hi2c1.Instance = I2C1;
 261:Core/Src/main.c ****   hi2c1.Init.ClockSpeed = 100000;
 262:Core/Src/main.c ****   hi2c1.Init.DutyCycle = I2C_DUTYCYCLE_2;
 263:Core/Src/main.c ****   hi2c1.Init.OwnAddress1 = 78;
 264:Core/Src/main.c ****   hi2c1.Init.AddressingMode = I2C_ADDRESSINGMODE_7BIT;
 265:Core/Src/main.c ****   hi2c1.Init.DualAddressMode = I2C_DUALADDRESS_DISABLE;
 266:Core/Src/main.c ****   hi2c1.Init.OwnAddress2 = 0;
 267:Core/Src/main.c ****   hi2c1.Init.GeneralCallMode = I2C_GENERALCALL_DISABLE;
 268:Core/Src/main.c ****   hi2c1.Init.NoStretchMode = I2C_NOSTRETCH_DISABLE;
 269:Core/Src/main.c ****   if (HAL_I2C_Init(&hi2c1) != HAL_OK)
 270:Core/Src/main.c ****   {
 271:Core/Src/main.c ****     Error_Handler();
 272:Core/Src/main.c ****   }
 273:Core/Src/main.c ****   /* USER CODE BEGIN I2C1_Init 2 */
 274:Core/Src/main.c **** 
 275:Core/Src/main.c ****   /* USER CODE END I2C1_Init 2 */
 276:Core/Src/main.c **** 
 277:Core/Src/main.c **** }
 278:Core/Src/main.c **** 
 279:Core/Src/main.c **** /**
 280:Core/Src/main.c ****   * @brief SPI1 Initialization Function
 281:Core/Src/main.c ****   * @param None
 282:Core/Src/main.c ****   * @retval None
 283:Core/Src/main.c ****   */
 284:Core/Src/main.c **** static void MX_SPI1_Init(void)
 285:Core/Src/main.c **** {
 286:Core/Src/main.c **** 
 287:Core/Src/main.c ****   /* USER CODE BEGIN SPI1_Init 0 */
 288:Core/Src/main.c **** 
 289:Core/Src/main.c ****   /* USER CODE END SPI1_Init 0 */
 290:Core/Src/main.c **** 
 291:Core/Src/main.c ****   /* USER CODE BEGIN SPI1_Init 1 */
 292:Core/Src/main.c **** 
 293:Core/Src/main.c ****   /* USER CODE END SPI1_Init 1 */
 294:Core/Src/main.c ****   /* SPI1 parameter configuration*/
 295:Core/Src/main.c ****   hspi1.Instance = SPI1;
 296:Core/Src/main.c ****   hspi1.Init.Mode = SPI_MODE_MASTER;
 297:Core/Src/main.c ****   hspi1.Init.Direction = SPI_DIRECTION_2LINES;
 298:Core/Src/main.c ****   hspi1.Init.DataSize = SPI_DATASIZE_8BIT;
 299:Core/Src/main.c ****   hspi1.Init.CLKPolarity = SPI_POLARITY_LOW;
 300:Core/Src/main.c ****   hspi1.Init.CLKPhase = SPI_PHASE_1EDGE;
 301:Core/Src/main.c ****   hspi1.Init.NSS = SPI_NSS_SOFT;
 302:Core/Src/main.c ****   hspi1.Init.BaudRatePrescaler = SPI_BAUDRATEPRESCALER_16;
 303:Core/Src/main.c ****   hspi1.Init.FirstBit = SPI_FIRSTBIT_MSB;
 304:Core/Src/main.c ****   hspi1.Init.TIMode = SPI_TIMODE_DISABLE;
 305:Core/Src/main.c ****   hspi1.Init.CRCCalculation = SPI_CRCCALCULATION_DISABLE;
 306:Core/Src/main.c ****   hspi1.Init.CRCPolynomial = 10;
 307:Core/Src/main.c ****   if (HAL_SPI_Init(&hspi1) != HAL_OK)
 308:Core/Src/main.c ****   {
 309:Core/Src/main.c ****     Error_Handler();
 310:Core/Src/main.c ****   }
 311:Core/Src/main.c ****   /* USER CODE BEGIN SPI1_Init 2 */
 312:Core/Src/main.c **** 
 313:Core/Src/main.c ****   /* USER CODE END SPI1_Init 2 */
 314:Core/Src/main.c **** 
ARM GAS  C:\Users\jdcox\AppData\Local\Temp\ccRYgA8S.s 			page 7


 315:Core/Src/main.c **** }
 316:Core/Src/main.c **** 
 317:Core/Src/main.c **** /**
 318:Core/Src/main.c ****   * Enable DMA controller clock
 319:Core/Src/main.c ****   */
 320:Core/Src/main.c **** static void MX_DMA_Init(void)
 321:Core/Src/main.c **** {
 322:Core/Src/main.c **** 
 323:Core/Src/main.c ****   /* DMA controller clock enable */
 324:Core/Src/main.c ****   __HAL_RCC_DMA1_CLK_ENABLE();
 325:Core/Src/main.c ****   __HAL_RCC_DMA2_CLK_ENABLE();
 326:Core/Src/main.c **** 
 327:Core/Src/main.c ****   /* DMA interrupt init */
 328:Core/Src/main.c ****   /* DMA1_Stream6_IRQn interrupt configuration */
 329:Core/Src/main.c ****   HAL_NVIC_SetPriority(DMA1_Stream6_IRQn, 5, 0);
 330:Core/Src/main.c ****   HAL_NVIC_EnableIRQ(DMA1_Stream6_IRQn);
 331:Core/Src/main.c ****   /* DMA2_Stream0_IRQn interrupt configuration */
 332:Core/Src/main.c ****   HAL_NVIC_SetPriority(DMA2_Stream0_IRQn, 5, 0);
 333:Core/Src/main.c ****   HAL_NVIC_EnableIRQ(DMA2_Stream0_IRQn);
 334:Core/Src/main.c ****   /* DMA2_Stream3_IRQn interrupt configuration */
 335:Core/Src/main.c ****   HAL_NVIC_SetPriority(DMA2_Stream3_IRQn, 5, 0);
 336:Core/Src/main.c ****   HAL_NVIC_EnableIRQ(DMA2_Stream3_IRQn);
 337:Core/Src/main.c **** 
 338:Core/Src/main.c **** }
 339:Core/Src/main.c **** 
 340:Core/Src/main.c **** /**
 341:Core/Src/main.c ****   * @brief GPIO Initialization Function
 342:Core/Src/main.c ****   * @param None
 343:Core/Src/main.c ****   * @retval None
 344:Core/Src/main.c ****   */
 345:Core/Src/main.c **** static void MX_GPIO_Init(void)
 346:Core/Src/main.c **** {
 347:Core/Src/main.c ****   GPIO_InitTypeDef GPIO_InitStruct = {0};
 348:Core/Src/main.c **** 
 349:Core/Src/main.c ****   /* GPIO Ports Clock Enable */
 350:Core/Src/main.c ****   __HAL_RCC_GPIOH_CLK_ENABLE();
 351:Core/Src/main.c ****   __HAL_RCC_GPIOA_CLK_ENABLE();
 352:Core/Src/main.c ****   __HAL_RCC_GPIOB_CLK_ENABLE();
 353:Core/Src/main.c **** 
 354:Core/Src/main.c ****   /*Configure GPIO pin Output Level */
 355:Core/Src/main.c ****   HAL_GPIO_WritePin(GPIOB, LED1_Pin|LED2_Pin, GPIO_PIN_SET);
 356:Core/Src/main.c **** 
 357:Core/Src/main.c ****   /*Configure GPIO pin Output Level */
 358:Core/Src/main.c ****   HAL_GPIO_WritePin(GPIOA, LORA_RST_Pin|LORA_CS_Pin, GPIO_PIN_SET);
 359:Core/Src/main.c **** 
 360:Core/Src/main.c ****   /*Configure GPIO pin : BTN_IN_Pin */
 361:Core/Src/main.c ****   GPIO_InitStruct.Pin = BTN_IN_Pin;
 362:Core/Src/main.c ****   GPIO_InitStruct.Mode = GPIO_MODE_IT_FALLING;
 363:Core/Src/main.c ****   GPIO_InitStruct.Pull = GPIO_PULLUP;
 364:Core/Src/main.c ****   HAL_GPIO_Init(BTN_IN_GPIO_Port, &GPIO_InitStruct);
 365:Core/Src/main.c **** 
 366:Core/Src/main.c ****   /*Configure GPIO pins : LED1_Pin LED2_Pin */
 367:Core/Src/main.c ****   GPIO_InitStruct.Pin = LED1_Pin|LED2_Pin;
 368:Core/Src/main.c ****   GPIO_InitStruct.Mode = GPIO_MODE_OUTPUT_PP;
 369:Core/Src/main.c ****   GPIO_InitStruct.Pull = GPIO_NOPULL;
 370:Core/Src/main.c ****   GPIO_InitStruct.Speed = GPIO_SPEED_FREQ_LOW;
 371:Core/Src/main.c ****   HAL_GPIO_Init(GPIOB, &GPIO_InitStruct);
ARM GAS  C:\Users\jdcox\AppData\Local\Temp\ccRYgA8S.s 			page 8


 372:Core/Src/main.c **** 
 373:Core/Src/main.c ****   /*Configure GPIO pin : LORA_EXTI_Pin */
 374:Core/Src/main.c ****   GPIO_InitStruct.Pin = LORA_EXTI_Pin;
 375:Core/Src/main.c ****   GPIO_InitStruct.Mode = GPIO_MODE_IT_RISING;
 376:Core/Src/main.c ****   GPIO_InitStruct.Pull = GPIO_NOPULL;
 377:Core/Src/main.c ****   HAL_GPIO_Init(LORA_EXTI_GPIO_Port, &GPIO_InitStruct);
 378:Core/Src/main.c **** 
 379:Core/Src/main.c ****   /*Configure GPIO pins : LORA_RST_Pin LORA_CS_Pin */
 380:Core/Src/main.c ****   GPIO_InitStruct.Pin = LORA_RST_Pin|LORA_CS_Pin;
 381:Core/Src/main.c ****   GPIO_InitStruct.Mode = GPIO_MODE_OUTPUT_PP;
 382:Core/Src/main.c ****   GPIO_InitStruct.Pull = GPIO_NOPULL;
 383:Core/Src/main.c ****   GPIO_InitStruct.Speed = GPIO_SPEED_FREQ_LOW;
 384:Core/Src/main.c ****   HAL_GPIO_Init(GPIOA, &GPIO_InitStruct);
 385:Core/Src/main.c **** 
 386:Core/Src/main.c ****   /* EXTI interrupt init*/
 387:Core/Src/main.c ****   HAL_NVIC_SetPriority(EXTI0_IRQn, 5, 0);
 388:Core/Src/main.c ****   HAL_NVIC_EnableIRQ(EXTI0_IRQn);
 389:Core/Src/main.c **** 
 390:Core/Src/main.c **** }
 391:Core/Src/main.c **** 
 392:Core/Src/main.c **** /* USER CODE BEGIN 4 */
 393:Core/Src/main.c **** 
 394:Core/Src/main.c **** /* USER CODE END 4 */
 395:Core/Src/main.c **** 
 396:Core/Src/main.c **** /* USER CODE BEGIN Header_StartDefaultTask */
 397:Core/Src/main.c **** /**
 398:Core/Src/main.c ****   * @brief  Function implementing the defaultTask thread.
 399:Core/Src/main.c ****   * @param  argument: Not used
 400:Core/Src/main.c ****   * @retval None
 401:Core/Src/main.c ****   */
 402:Core/Src/main.c **** /* USER CODE END Header_StartDefaultTask */
 403:Core/Src/main.c **** void StartDefaultTask(void const * argument)
 404:Core/Src/main.c **** {
 405:Core/Src/main.c ****   /* USER CODE BEGIN 5 */
 406:Core/Src/main.c ****   xloraMutex = xSemaphoreCreateMutex();
 407:Core/Src/main.c ****   //xSemaphoreTake(xloraMutex, portMAX_DELAY);
 408:Core/Src/main.c **** 
 409:Core/Src/main.c ****   // Create LoRa instance
 410:Core/Src/main.c ****   myLoRa = newLoRa();
 411:Core/Src/main.c **** 
 412:Core/Src/main.c ****   // configure
 413:Core/Src/main.c ****     myLoRa.CS_port         = LORA_CS_GPIO_Port;
 414:Core/Src/main.c ****     myLoRa.CS_pin          = LORA_CS_Pin;
 415:Core/Src/main.c ****     myLoRa.reset_port      = LORA_RST_GPIO_Port;
 416:Core/Src/main.c ****     myLoRa.reset_pin       = LORA_RST_Pin;
 417:Core/Src/main.c ****     myLoRa.DIO0_port       = LORA_EXTI_GPIO_Port;
 418:Core/Src/main.c ****     myLoRa.DIO0_pin        = LORA_EXTI_Pin;
 419:Core/Src/main.c ****     myLoRa.hSPIx           = &hspi1;
 420:Core/Src/main.c **** 
 421:Core/Src/main.c ****   // Kick it
 422:Core/Src/main.c ****   uint16_t LoRa_Status = LoRa_init(&myLoRa);
 423:Core/Src/main.c ****   sprintf(opcodeString,"Josh wins", 10);
 424:Core/Src/main.c ****   if(LoRa_Status == LORA_OK)
 425:Core/Src/main.c ****   {
 426:Core/Src/main.c ****     LoRa_transmit(&myLoRa, (uint8_t*)opcodeString, 12, 100);
 427:Core/Src/main.c ****   }
 428:Core/Src/main.c ****   else
ARM GAS  C:\Users\jdcox\AppData\Local\Temp\ccRYgA8S.s 			page 9


 429:Core/Src/main.c ****   {
 430:Core/Src/main.c ****     debugBuddy = 9;
 431:Core/Src/main.c ****   }
 432:Core/Src/main.c **** 
 433:Core/Src/main.c ****   LoRa_startReceiving(&myLoRa);
 434:Core/Src/main.c ****   
 435:Core/Src/main.c ****   //xSemaphoreGive(xloraMutex);
 436:Core/Src/main.c ****   //debug osMutexRelease(lora_mutexHandle);
 437:Core/Src/main.c **** 
 438:Core/Src/main.c ****   osThreadDef(loraRXTask, StartLoraRXTask, osPriorityAboveNormal, 0, 128);
 439:Core/Src/main.c ****   loraRXTaskHandle = osThreadCreate(osThread(loraRXTask), NULL);
 440:Core/Src/main.c **** 
 441:Core/Src/main.c ****   P1LED_OFF;
 442:Core/Src/main.c ****   ssd1306_Init();
 443:Core/Src/main.c ****   ssd1306_SetCursor(0,0);
 444:Core/Src/main.c ****   ssd1306_WriteString("KING",Font_16x24,1);
 445:Core/Src/main.c ****   ssd1306_UpdateScreen();
 446:Core/Src/main.c ****   osDelay(500);
 447:Core/Src/main.c ****   ssd1306_Fill(0);
 448:Core/Src/main.c ****   ssd1306_SetCursor(64,0);
 449:Core/Src/main.c ****   ssd1306_WriteString("OF",Font_16x24,1);
 450:Core/Src/main.c ****   ssd1306_UpdateScreen();
 451:Core/Src/main.c ****   osDelay(500);
 452:Core/Src/main.c ****   ssd1306_Fill(0);
 453:Core/Src/main.c ****   ssd1306_SetCursor(0,8);
 454:Core/Src/main.c ****   ssd1306_WriteString("THE",Font_16x24,1);
 455:Core/Src/main.c ****   ssd1306_UpdateScreen();
 456:Core/Src/main.c ****   osDelay(500);
 457:Core/Src/main.c ****   ssd1306_Fill(0);
 458:Core/Src/main.c ****   ssd1306_SetCursor(64,8);
 459:Core/Src/main.c ****   ssd1306_WriteString("HILL",Font_16x24,1);
 460:Core/Src/main.c ****   ssd1306_UpdateScreen();
 461:Core/Src/main.c **** 
 462:Core/Src/main.c ****   
 463:Core/Src/main.c **** 
 464:Core/Src/main.c ****   osDelay(1000);
 465:Core/Src/main.c **** 
 466:Core/Src/main.c ****   gameState = waiting;
 467:Core/Src/main.c ****   stateChange_flag = 1;
 468:Core/Src/main.c ****   
 469:Core/Src/main.c **** 
 470:Core/Src/main.c ****   /* Infinite loop */
 471:Core/Src/main.c ****   for(;;)
 472:Core/Src/main.c ****   {
 473:Core/Src/main.c ****     //debug
 474:Core/Src/main.c ****     HAL_GPIO_TogglePin(LED1_GPIO_Port,LED1_Pin);
 475:Core/Src/main.c ****     
 476:Core/Src/main.c ****     switch (gameState)
 477:Core/Src/main.c ****     {
 478:Core/Src/main.c ****       case waiting:
 479:Core/Src/main.c ****         if(stateChange_flag)
 480:Core/Src/main.c ****         {
 481:Core/Src/main.c ****           stateChange_flag = 0;
 482:Core/Src/main.c ****           ssd1306_Fill(0); 
 483:Core/Src/main.c ****           ssd1306_SetCursor(0,0);
 484:Core/Src/main.c ****           ssd1306_WriteString("Push to play",Font_7x10,1);
 485:Core/Src/main.c ****           ssd1306_UpdateScreen();
ARM GAS  C:\Users\jdcox\AppData\Local\Temp\ccRYgA8S.s 			page 10


 486:Core/Src/main.c ****         }
 487:Core/Src/main.c ****       break;
 488:Core/Src/main.c **** 
 489:Core/Src/main.c ****       case p1King:
 490:Core/Src/main.c ****         if(stateChange_flag)
 491:Core/Src/main.c ****         {
 492:Core/Src/main.c ****           stateChange_flag = 0;
 493:Core/Src/main.c ****           P1LED_OFF; // The hill is yours
 494:Core/Src/main.c ****           ssd1306_Fill(0);
 495:Core/Src/main.c ****           ssd1306_SetCursor(0,0);
 496:Core/Src/main.c ****           ssd1306_WriteString("You are king",Font_7x10,1);
 497:Core/Src/main.c ****           ssd1306_SetCursor(0,10);
 498:Core/Src/main.c ****           ssd1306_WriteString("of the hill!",Font_7x10,1);
 499:Core/Src/main.c ****           ssd1306_UpdateScreen();
 500:Core/Src/main.c ****         }
 501:Core/Src/main.c ****       break;
 502:Core/Src/main.c **** 
 503:Core/Src/main.c ****       case p2King:
 504:Core/Src/main.c ****         if(stateChange_flag)
 505:Core/Src/main.c ****         {
 506:Core/Src/main.c ****           stateChange_flag = 0;
 507:Core/Src/main.c ****           P1LED_ON; // Better push the button!
 508:Core/Src/main.c ****           ssd1306_Fill(0);
 509:Core/Src/main.c ****           ssd1306_SetCursor(0,0);
 510:Core/Src/main.c ****           ssd1306_WriteString("Take the hill!!",Font_7x10,1);
 511:Core/Src/main.c ****           ssd1306_UpdateScreen();
 512:Core/Src/main.c ****         }
 513:Core/Src/main.c ****       break;
 514:Core/Src/main.c **** 
 515:Core/Src/main.c ****       case p1Winner:
 516:Core/Src/main.c ****         if(stateChange_flag)
 517:Core/Src/main.c ****         {
 518:Core/Src/main.c ****           stateChange_flag = 0;
 519:Core/Src/main.c ****           P1LED_OFF;
 520:Core/Src/main.c ****           ssd1306_Fill(0);
 521:Core/Src/main.c ****           ssd1306_SetCursor(0,0);
 522:Core/Src/main.c ****           ssd1306_WriteString("P1 wins!",Font_7x10,1);
 523:Core/Src/main.c ****           char score [16];
 524:Core/Src/main.c ****           uint16_t difference = p1King_counter - p2King_counter;
 525:Core/Src/main.c ****           sprintf(score, "Won by %ums", difference);
 526:Core/Src/main.c ****           lcd_put_cur(1,0);
 527:Core/Src/main.c ****           ssd1306_WriteString(score,Font_7x10,1);
 528:Core/Src/main.c ****           ssd1306_UpdateScreen();
 529:Core/Src/main.c **** 
 530:Core/Src/main.c ****         }
 531:Core/Src/main.c ****       break;
 532:Core/Src/main.c **** 
 533:Core/Src/main.c ****       case p2Winner:
 534:Core/Src/main.c ****         if(stateChange_flag)
 535:Core/Src/main.c ****         {
 536:Core/Src/main.c ****           stateChange_flag = 0;
 537:Core/Src/main.c ****           P1LED_OFF;
 538:Core/Src/main.c ****           ssd1306_Fill(0);
 539:Core/Src/main.c ****           ssd1306_SetCursor(0,0);
 540:Core/Src/main.c ****           ssd1306_WriteString("P2 wins!",Font_7x10,1);
 541:Core/Src/main.c ****           char score [16];
 542:Core/Src/main.c ****           uint16_t difference = p2King_counter - p1King_counter;
ARM GAS  C:\Users\jdcox\AppData\Local\Temp\ccRYgA8S.s 			page 11


 543:Core/Src/main.c ****           sprintf(score, "Won by %ums", difference);
 544:Core/Src/main.c ****           lcd_put_cur(1,0);
 545:Core/Src/main.c ****           ssd1306_WriteString(score,Font_7x10,1);
 546:Core/Src/main.c ****           ssd1306_UpdateScreen();
 547:Core/Src/main.c ****         }
 548:Core/Src/main.c ****       break;
 549:Core/Src/main.c **** 
 550:Core/Src/main.c ****         case penalty:
 551:Core/Src/main.c ****         if(stateChange_flag)
 552:Core/Src/main.c ****         {
 553:Core/Src/main.c ****           stateChange_flag = 0;
 554:Core/Src/main.c ****           P1LED_OFF;
 555:Core/Src/main.c ****           ssd1306_Fill(0); 
 556:Core/Src/main.c ****           ssd1306_SetCursor(0,0);
 557:Core/Src/main.c ****           ssd1306_WriteString("Penalty!",Font_7x10,1);
 558:Core/Src/main.c ****           ssd1306_UpdateScreen();
 559:Core/Src/main.c ****         }
 560:Core/Src/main.c **** 
 561:Core/Src/main.c ****       break;
 562:Core/Src/main.c ****       
 563:Core/Src/main.c ****     }
 564:Core/Src/main.c **** 
 565:Core/Src/main.c **** 
 566:Core/Src/main.c ****     osDelay(1);
 567:Core/Src/main.c ****    
 568:Core/Src/main.c **** 
 569:Core/Src/main.c **** 
 570:Core/Src/main.c ****   }
 571:Core/Src/main.c ****   /* USER CODE END 5 */
 572:Core/Src/main.c **** }
 573:Core/Src/main.c **** 
 574:Core/Src/main.c **** /* USER CODE BEGIN Header_StartLoraRXTask */
 575:Core/Src/main.c **** /**
 576:Core/Src/main.c **** * @brief Function implementing the loraRXTask thread.
 577:Core/Src/main.c **** * @param argument: Not used
 578:Core/Src/main.c **** * @retval None
 579:Core/Src/main.c **** */
 580:Core/Src/main.c **** /* USER CODE END Header_StartLoraRXTask */
 581:Core/Src/main.c **** void StartLoraRXTask(void const * argument)
 582:Core/Src/main.c **** {
 583:Core/Src/main.c ****   /* USER CODE BEGIN StartLoraRXTask */
 584:Core/Src/main.c ****   /* Infinite loop */
 585:Core/Src/main.c ****   for(;;)
 586:Core/Src/main.c ****   {
 587:Core/Src/main.c ****     //debug
 588:Core/Src/main.c ****     HAL_GPIO_TogglePin(LED2_GPIO_Port,LED2_Pin);
 589:Core/Src/main.c **** 
 590:Core/Src/main.c ****     // Get the data
 591:Core/Src/main.c ****     getKOTHPacket();
 592:Core/Src/main.c **** 
 593:Core/Src/main.c ****     
 594:Core/Src/main.c ****     osDelay(200);
 595:Core/Src/main.c **** 
 596:Core/Src/main.c ****   }
 597:Core/Src/main.c ****   /* USER CODE END StartLoraRXTask */
 598:Core/Src/main.c **** }
 599:Core/Src/main.c **** 
ARM GAS  C:\Users\jdcox\AppData\Local\Temp\ccRYgA8S.s 			page 12


 600:Core/Src/main.c **** /* USER CODE BEGIN Header_StartDisplayTask */
 601:Core/Src/main.c **** /**
 602:Core/Src/main.c **** * @brief Function implementing the displayTask thread.
 603:Core/Src/main.c **** * @param argument: Not used
 604:Core/Src/main.c **** * @retval None
 605:Core/Src/main.c **** */
 606:Core/Src/main.c **** /* USER CODE END Header_StartDisplayTask */
 607:Core/Src/main.c **** void StartDisplayTask(void const * argument)
 608:Core/Src/main.c **** {
 609:Core/Src/main.c ****   /* USER CODE BEGIN StartDisplayTask */
 610:Core/Src/main.c ****   /* Infinite loop */
 611:Core/Src/main.c ****   for(;;)
 612:Core/Src/main.c ****   {
 613:Core/Src/main.c **** 
 614:Core/Src/main.c ****     osDelay(100);
 615:Core/Src/main.c ****   }
 616:Core/Src/main.c ****   /* USER CODE END StartDisplayTask */
 617:Core/Src/main.c **** }
 618:Core/Src/main.c **** 
 619:Core/Src/main.c **** /* msTickCallback function */
 620:Core/Src/main.c **** void msTickCallback(void const * argument)
 621:Core/Src/main.c **** {
  30              		.loc 1 621 1 view -0
  31              		.cfi_startproc
  32              		@ args = 0, pretend = 0, frame = 0
  33              		@ frame_needed = 0, uses_anonymous_args = 0
  34              		@ link register save eliminated.
 622:Core/Src/main.c ****   /* USER CODE BEGIN msTickCallback */
 623:Core/Src/main.c ****     if(p1King_flag == 1)
  35              		.loc 1 623 5 view .LVU1
  36              		.loc 1 623 20 is_stmt 0 view .LVU2
  37 0000 134B     		ldr	r3, .L6
  38 0002 1B78     		ldrb	r3, [r3]	@ zero_extendqisi2
  39              		.loc 1 623 7 view .LVU3
  40 0004 012B     		cmp	r3, #1
  41 0006 04D0     		beq	.L4
  42              	.L2:
 624:Core/Src/main.c ****     {
 625:Core/Src/main.c ****       if(++p1King_counter >= 10000)
 626:Core/Src/main.c ****       {
 627:Core/Src/main.c ****         p1King_flag = 0;
 628:Core/Src/main.c ****         gameState = p1Winner;
 629:Core/Src/main.c ****       }
 630:Core/Src/main.c ****     }
 631:Core/Src/main.c **** 
 632:Core/Src/main.c ****     if(p2King_flag == 1)
  43              		.loc 1 632 5 is_stmt 1 view .LVU4
  44              		.loc 1 632 20 is_stmt 0 view .LVU5
  45 0008 124B     		ldr	r3, .L6+4
  46 000a 1B78     		ldrb	r3, [r3]	@ zero_extendqisi2
  47              		.loc 1 632 7 view .LVU6
  48 000c 012B     		cmp	r3, #1
  49 000e 0FD0     		beq	.L5
  50              	.L1:
 633:Core/Src/main.c ****     {
 634:Core/Src/main.c ****       if(++p2King_counter >= 10000)
 635:Core/Src/main.c ****       { 
ARM GAS  C:\Users\jdcox\AppData\Local\Temp\ccRYgA8S.s 			page 13


 636:Core/Src/main.c ****         p2King_flag = 0;
 637:Core/Src/main.c ****         gameState = p2Winner;
 638:Core/Src/main.c ****       }
 639:Core/Src/main.c ****     }
 640:Core/Src/main.c ****   /* USER CODE END msTickCallback */
 641:Core/Src/main.c **** }
  51              		.loc 1 641 1 view .LVU7
  52 0010 7047     		bx	lr
  53              	.L4:
 625:Core/Src/main.c ****       {
  54              		.loc 1 625 7 is_stmt 1 view .LVU8
 625:Core/Src/main.c ****       {
  55              		.loc 1 625 10 is_stmt 0 view .LVU9
  56 0012 114A     		ldr	r2, .L6+8
  57 0014 1368     		ldr	r3, [r2]
  58 0016 0133     		adds	r3, r3, #1
 625:Core/Src/main.c ****       {
  59              		.loc 1 625 9 view .LVU10
  60 0018 1360     		str	r3, [r2]
  61 001a 42F20F72 		movw	r2, #9999
  62 001e 9342     		cmp	r3, r2
  63 0020 F2D9     		bls	.L2
 627:Core/Src/main.c ****         gameState = p1Winner;
  64              		.loc 1 627 9 is_stmt 1 view .LVU11
 627:Core/Src/main.c ****         gameState = p1Winner;
  65              		.loc 1 627 21 is_stmt 0 view .LVU12
  66 0022 0B4B     		ldr	r3, .L6
  67 0024 0022     		movs	r2, #0
  68 0026 1A70     		strb	r2, [r3]
 628:Core/Src/main.c ****       }
  69              		.loc 1 628 9 is_stmt 1 view .LVU13
 628:Core/Src/main.c ****       }
  70              		.loc 1 628 19 is_stmt 0 view .LVU14
  71 0028 0C4B     		ldr	r3, .L6+12
  72 002a 0322     		movs	r2, #3
  73 002c 1A70     		strb	r2, [r3]
  74 002e EBE7     		b	.L2
  75              	.L5:
 634:Core/Src/main.c ****       { 
  76              		.loc 1 634 7 is_stmt 1 view .LVU15
 634:Core/Src/main.c ****       { 
  77              		.loc 1 634 10 is_stmt 0 view .LVU16
  78 0030 0B4A     		ldr	r2, .L6+16
  79 0032 1368     		ldr	r3, [r2]
  80 0034 0133     		adds	r3, r3, #1
 634:Core/Src/main.c ****       { 
  81              		.loc 1 634 9 view .LVU17
  82 0036 1360     		str	r3, [r2]
  83 0038 42F20F72 		movw	r2, #9999
  84 003c 9342     		cmp	r3, r2
  85 003e E7D9     		bls	.L1
 636:Core/Src/main.c ****         gameState = p2Winner;
  86              		.loc 1 636 9 is_stmt 1 view .LVU18
 636:Core/Src/main.c ****         gameState = p2Winner;
  87              		.loc 1 636 21 is_stmt 0 view .LVU19
  88 0040 044B     		ldr	r3, .L6+4
  89 0042 0022     		movs	r2, #0
ARM GAS  C:\Users\jdcox\AppData\Local\Temp\ccRYgA8S.s 			page 14


  90 0044 1A70     		strb	r2, [r3]
 637:Core/Src/main.c ****       }
  91              		.loc 1 637 9 is_stmt 1 view .LVU20
 637:Core/Src/main.c ****       }
  92              		.loc 1 637 19 is_stmt 0 view .LVU21
  93 0046 054B     		ldr	r3, .L6+12
  94 0048 0422     		movs	r2, #4
  95 004a 1A70     		strb	r2, [r3]
  96              		.loc 1 641 1 view .LVU22
  97 004c E0E7     		b	.L1
  98              	.L7:
  99 004e 00BF     		.align	2
 100              	.L6:
 101 0050 00000000 		.word	p1King_flag
 102 0054 00000000 		.word	p2King_flag
 103 0058 00000000 		.word	p1King_counter
 104 005c 00000000 		.word	gameState
 105 0060 00000000 		.word	p2King_counter
 106              		.cfi_endproc
 107              	.LFE147:
 109              		.section	.text.debounceCallback,"ax",%progbits
 110              		.align	1
 111              		.global	debounceCallback
 112              		.syntax unified
 113              		.thumb
 114              		.thumb_func
 116              	debounceCallback:
 117              	.LVL1:
 118              	.LFB148:
 642:Core/Src/main.c **** 
 643:Core/Src/main.c **** /* debounceCallback function */
 644:Core/Src/main.c **** void debounceCallback(void const * argument)
 645:Core/Src/main.c **** {
 119              		.loc 1 645 1 is_stmt 1 view -0
 120              		.cfi_startproc
 121              		@ args = 0, pretend = 0, frame = 0
 122              		@ frame_needed = 0, uses_anonymous_args = 0
 123              		@ link register save eliminated.
 646:Core/Src/main.c ****   /* USER CODE BEGIN debounceCallback */
 647:Core/Src/main.c ****   debouncing_Flag = 0;
 124              		.loc 1 647 3 view .LVU24
 125              		.loc 1 647 19 is_stmt 0 view .LVU25
 126 0000 014B     		ldr	r3, .L9
 127 0002 0022     		movs	r2, #0
 128 0004 1A70     		strb	r2, [r3]
 648:Core/Src/main.c ****   /* USER CODE END debounceCallback */
 649:Core/Src/main.c **** }
 129              		.loc 1 649 1 view .LVU26
 130 0006 7047     		bx	lr
 131              	.L10:
 132              		.align	2
 133              	.L9:
 134 0008 00000000 		.word	debouncing_Flag
 135              		.cfi_endproc
 136              	.LFE148:
 138              		.section	.text.blinkTimerCallback,"ax",%progbits
 139              		.align	1
ARM GAS  C:\Users\jdcox\AppData\Local\Temp\ccRYgA8S.s 			page 15


 140              		.global	blinkTimerCallback
 141              		.syntax unified
 142              		.thumb
 143              		.thumb_func
 145              	blinkTimerCallback:
 146              	.LVL2:
 147              	.LFB149:
 650:Core/Src/main.c **** 
 651:Core/Src/main.c **** /* blinkTimerCallback function */
 652:Core/Src/main.c **** void blinkTimerCallback(void const * argument)
 653:Core/Src/main.c **** {
 148              		.loc 1 653 1 is_stmt 1 view -0
 149              		.cfi_startproc
 150              		@ args = 0, pretend = 0, frame = 0
 151              		@ frame_needed = 0, uses_anonymous_args = 0
 152              		@ link register save eliminated.
 654:Core/Src/main.c ****   /* USER CODE BEGIN blinkTimerCallback */
 655:Core/Src/main.c **** 
 656:Core/Src/main.c ****   /* USER CODE END blinkTimerCallback */
 657:Core/Src/main.c **** }
 153              		.loc 1 657 1 view .LVU28
 154 0000 7047     		bx	lr
 155              		.cfi_endproc
 156              	.LFE149:
 158              		.section	.text.MX_GPIO_Init,"ax",%progbits
 159              		.align	1
 160              		.syntax unified
 161              		.thumb
 162              		.thumb_func
 164              	MX_GPIO_Init:
 165              	.LFB143:
 346:Core/Src/main.c ****   GPIO_InitTypeDef GPIO_InitStruct = {0};
 166              		.loc 1 346 1 view -0
 167              		.cfi_startproc
 168              		@ args = 0, pretend = 0, frame = 32
 169              		@ frame_needed = 0, uses_anonymous_args = 0
 170 0000 2DE9F041 		push	{r4, r5, r6, r7, r8, lr}
 171              	.LCFI0:
 172              		.cfi_def_cfa_offset 24
 173              		.cfi_offset 4, -24
 174              		.cfi_offset 5, -20
 175              		.cfi_offset 6, -16
 176              		.cfi_offset 7, -12
 177              		.cfi_offset 8, -8
 178              		.cfi_offset 14, -4
 179 0004 88B0     		sub	sp, sp, #32
 180              	.LCFI1:
 181              		.cfi_def_cfa_offset 56
 347:Core/Src/main.c **** 
 182              		.loc 1 347 3 view .LVU30
 347:Core/Src/main.c **** 
 183              		.loc 1 347 20 is_stmt 0 view .LVU31
 184 0006 0024     		movs	r4, #0
 185 0008 0394     		str	r4, [sp, #12]
 186 000a 0494     		str	r4, [sp, #16]
 187 000c 0594     		str	r4, [sp, #20]
 188 000e 0694     		str	r4, [sp, #24]
ARM GAS  C:\Users\jdcox\AppData\Local\Temp\ccRYgA8S.s 			page 16


 189 0010 0794     		str	r4, [sp, #28]
 350:Core/Src/main.c ****   __HAL_RCC_GPIOA_CLK_ENABLE();
 190              		.loc 1 350 3 is_stmt 1 view .LVU32
 191              	.LBB4:
 350:Core/Src/main.c ****   __HAL_RCC_GPIOA_CLK_ENABLE();
 192              		.loc 1 350 3 view .LVU33
 193 0012 0094     		str	r4, [sp]
 350:Core/Src/main.c ****   __HAL_RCC_GPIOA_CLK_ENABLE();
 194              		.loc 1 350 3 view .LVU34
 195 0014 2F4B     		ldr	r3, .L14
 196 0016 1A6B     		ldr	r2, [r3, #48]
 197 0018 42F08002 		orr	r2, r2, #128
 198 001c 1A63     		str	r2, [r3, #48]
 350:Core/Src/main.c ****   __HAL_RCC_GPIOA_CLK_ENABLE();
 199              		.loc 1 350 3 view .LVU35
 200 001e 1A6B     		ldr	r2, [r3, #48]
 201 0020 02F08002 		and	r2, r2, #128
 202 0024 0092     		str	r2, [sp]
 350:Core/Src/main.c ****   __HAL_RCC_GPIOA_CLK_ENABLE();
 203              		.loc 1 350 3 view .LVU36
 204 0026 009A     		ldr	r2, [sp]
 205              	.LBE4:
 350:Core/Src/main.c ****   __HAL_RCC_GPIOA_CLK_ENABLE();
 206              		.loc 1 350 3 view .LVU37
 351:Core/Src/main.c ****   __HAL_RCC_GPIOB_CLK_ENABLE();
 207              		.loc 1 351 3 view .LVU38
 208              	.LBB5:
 351:Core/Src/main.c ****   __HAL_RCC_GPIOB_CLK_ENABLE();
 209              		.loc 1 351 3 view .LVU39
 210 0028 0194     		str	r4, [sp, #4]
 351:Core/Src/main.c ****   __HAL_RCC_GPIOB_CLK_ENABLE();
 211              		.loc 1 351 3 view .LVU40
 212 002a 1A6B     		ldr	r2, [r3, #48]
 213 002c 42F00102 		orr	r2, r2, #1
 214 0030 1A63     		str	r2, [r3, #48]
 351:Core/Src/main.c ****   __HAL_RCC_GPIOB_CLK_ENABLE();
 215              		.loc 1 351 3 view .LVU41
 216 0032 1A6B     		ldr	r2, [r3, #48]
 217 0034 02F00102 		and	r2, r2, #1
 218 0038 0192     		str	r2, [sp, #4]
 351:Core/Src/main.c ****   __HAL_RCC_GPIOB_CLK_ENABLE();
 219              		.loc 1 351 3 view .LVU42
 220 003a 019A     		ldr	r2, [sp, #4]
 221              	.LBE5:
 351:Core/Src/main.c ****   __HAL_RCC_GPIOB_CLK_ENABLE();
 222              		.loc 1 351 3 view .LVU43
 352:Core/Src/main.c **** 
 223              		.loc 1 352 3 view .LVU44
 224              	.LBB6:
 352:Core/Src/main.c **** 
 225              		.loc 1 352 3 view .LVU45
 226 003c 0294     		str	r4, [sp, #8]
 352:Core/Src/main.c **** 
 227              		.loc 1 352 3 view .LVU46
 228 003e 1A6B     		ldr	r2, [r3, #48]
 229 0040 42F00202 		orr	r2, r2, #2
 230 0044 1A63     		str	r2, [r3, #48]
ARM GAS  C:\Users\jdcox\AppData\Local\Temp\ccRYgA8S.s 			page 17


 352:Core/Src/main.c **** 
 231              		.loc 1 352 3 view .LVU47
 232 0046 1B6B     		ldr	r3, [r3, #48]
 233 0048 03F00203 		and	r3, r3, #2
 234 004c 0293     		str	r3, [sp, #8]
 352:Core/Src/main.c **** 
 235              		.loc 1 352 3 view .LVU48
 236 004e 029B     		ldr	r3, [sp, #8]
 237              	.LBE6:
 352:Core/Src/main.c **** 
 238              		.loc 1 352 3 view .LVU49
 355:Core/Src/main.c **** 
 239              		.loc 1 355 3 view .LVU50
 240 0050 DFF88880 		ldr	r8, .L14+8
 241 0054 0122     		movs	r2, #1
 242 0056 0621     		movs	r1, #6
 243 0058 4046     		mov	r0, r8
 244 005a FFF7FEFF 		bl	HAL_GPIO_WritePin
 245              	.LVL3:
 358:Core/Src/main.c **** 
 246              		.loc 1 358 3 view .LVU51
 247 005e 1E4F     		ldr	r7, .L14+4
 248 0060 0122     		movs	r2, #1
 249 0062 4FF4C061 		mov	r1, #1536
 250 0066 3846     		mov	r0, r7
 251 0068 FFF7FEFF 		bl	HAL_GPIO_WritePin
 252              	.LVL4:
 361:Core/Src/main.c ****   GPIO_InitStruct.Mode = GPIO_MODE_IT_FALLING;
 253              		.loc 1 361 3 view .LVU52
 361:Core/Src/main.c ****   GPIO_InitStruct.Mode = GPIO_MODE_IT_FALLING;
 254              		.loc 1 361 23 is_stmt 0 view .LVU53
 255 006c 0125     		movs	r5, #1
 256 006e 0395     		str	r5, [sp, #12]
 362:Core/Src/main.c ****   GPIO_InitStruct.Pull = GPIO_PULLUP;
 257              		.loc 1 362 3 is_stmt 1 view .LVU54
 362:Core/Src/main.c ****   GPIO_InitStruct.Pull = GPIO_PULLUP;
 258              		.loc 1 362 24 is_stmt 0 view .LVU55
 259 0070 4FF40413 		mov	r3, #2162688
 260 0074 0493     		str	r3, [sp, #16]
 363:Core/Src/main.c ****   HAL_GPIO_Init(BTN_IN_GPIO_Port, &GPIO_InitStruct);
 261              		.loc 1 363 3 is_stmt 1 view .LVU56
 363:Core/Src/main.c ****   HAL_GPIO_Init(BTN_IN_GPIO_Port, &GPIO_InitStruct);
 262              		.loc 1 363 24 is_stmt 0 view .LVU57
 263 0076 0595     		str	r5, [sp, #20]
 364:Core/Src/main.c **** 
 264              		.loc 1 364 3 is_stmt 1 view .LVU58
 265 0078 03A9     		add	r1, sp, #12
 266 007a 4046     		mov	r0, r8
 267 007c FFF7FEFF 		bl	HAL_GPIO_Init
 268              	.LVL5:
 367:Core/Src/main.c ****   GPIO_InitStruct.Mode = GPIO_MODE_OUTPUT_PP;
 269              		.loc 1 367 3 view .LVU59
 367:Core/Src/main.c ****   GPIO_InitStruct.Mode = GPIO_MODE_OUTPUT_PP;
 270              		.loc 1 367 23 is_stmt 0 view .LVU60
 271 0080 0626     		movs	r6, #6
 272 0082 0396     		str	r6, [sp, #12]
 368:Core/Src/main.c ****   GPIO_InitStruct.Pull = GPIO_NOPULL;
ARM GAS  C:\Users\jdcox\AppData\Local\Temp\ccRYgA8S.s 			page 18


 273              		.loc 1 368 3 is_stmt 1 view .LVU61
 368:Core/Src/main.c ****   GPIO_InitStruct.Pull = GPIO_NOPULL;
 274              		.loc 1 368 24 is_stmt 0 view .LVU62
 275 0084 0495     		str	r5, [sp, #16]
 369:Core/Src/main.c ****   GPIO_InitStruct.Speed = GPIO_SPEED_FREQ_LOW;
 276              		.loc 1 369 3 is_stmt 1 view .LVU63
 369:Core/Src/main.c ****   GPIO_InitStruct.Speed = GPIO_SPEED_FREQ_LOW;
 277              		.loc 1 369 24 is_stmt 0 view .LVU64
 278 0086 0594     		str	r4, [sp, #20]
 370:Core/Src/main.c ****   HAL_GPIO_Init(GPIOB, &GPIO_InitStruct);
 279              		.loc 1 370 3 is_stmt 1 view .LVU65
 370:Core/Src/main.c ****   HAL_GPIO_Init(GPIOB, &GPIO_InitStruct);
 280              		.loc 1 370 25 is_stmt 0 view .LVU66
 281 0088 0694     		str	r4, [sp, #24]
 371:Core/Src/main.c **** 
 282              		.loc 1 371 3 is_stmt 1 view .LVU67
 283 008a 03A9     		add	r1, sp, #12
 284 008c 4046     		mov	r0, r8
 285 008e FFF7FEFF 		bl	HAL_GPIO_Init
 286              	.LVL6:
 374:Core/Src/main.c ****   GPIO_InitStruct.Mode = GPIO_MODE_IT_RISING;
 287              		.loc 1 374 3 view .LVU68
 374:Core/Src/main.c ****   GPIO_InitStruct.Mode = GPIO_MODE_IT_RISING;
 288              		.loc 1 374 23 is_stmt 0 view .LVU69
 289 0092 4FF48073 		mov	r3, #256
 290 0096 0393     		str	r3, [sp, #12]
 375:Core/Src/main.c ****   GPIO_InitStruct.Pull = GPIO_NOPULL;
 291              		.loc 1 375 3 is_stmt 1 view .LVU70
 375:Core/Src/main.c ****   GPIO_InitStruct.Pull = GPIO_NOPULL;
 292              		.loc 1 375 24 is_stmt 0 view .LVU71
 293 0098 4FF48813 		mov	r3, #1114112
 294 009c 0493     		str	r3, [sp, #16]
 376:Core/Src/main.c ****   HAL_GPIO_Init(LORA_EXTI_GPIO_Port, &GPIO_InitStruct);
 295              		.loc 1 376 3 is_stmt 1 view .LVU72
 376:Core/Src/main.c ****   HAL_GPIO_Init(LORA_EXTI_GPIO_Port, &GPIO_InitStruct);
 296              		.loc 1 376 24 is_stmt 0 view .LVU73
 297 009e 0594     		str	r4, [sp, #20]
 377:Core/Src/main.c **** 
 298              		.loc 1 377 3 is_stmt 1 view .LVU74
 299 00a0 03A9     		add	r1, sp, #12
 300 00a2 3846     		mov	r0, r7
 301 00a4 FFF7FEFF 		bl	HAL_GPIO_Init
 302              	.LVL7:
 380:Core/Src/main.c ****   GPIO_InitStruct.Mode = GPIO_MODE_OUTPUT_PP;
 303              		.loc 1 380 3 view .LVU75
 380:Core/Src/main.c ****   GPIO_InitStruct.Mode = GPIO_MODE_OUTPUT_PP;
 304              		.loc 1 380 23 is_stmt 0 view .LVU76
 305 00a8 4FF4C063 		mov	r3, #1536
 306 00ac 0393     		str	r3, [sp, #12]
 381:Core/Src/main.c ****   GPIO_InitStruct.Pull = GPIO_NOPULL;
 307              		.loc 1 381 3 is_stmt 1 view .LVU77
 381:Core/Src/main.c ****   GPIO_InitStruct.Pull = GPIO_NOPULL;
 308              		.loc 1 381 24 is_stmt 0 view .LVU78
 309 00ae 0495     		str	r5, [sp, #16]
 382:Core/Src/main.c ****   GPIO_InitStruct.Speed = GPIO_SPEED_FREQ_LOW;
 310              		.loc 1 382 3 is_stmt 1 view .LVU79
 382:Core/Src/main.c ****   GPIO_InitStruct.Speed = GPIO_SPEED_FREQ_LOW;
ARM GAS  C:\Users\jdcox\AppData\Local\Temp\ccRYgA8S.s 			page 19


 311              		.loc 1 382 24 is_stmt 0 view .LVU80
 312 00b0 0594     		str	r4, [sp, #20]
 383:Core/Src/main.c ****   HAL_GPIO_Init(GPIOA, &GPIO_InitStruct);
 313              		.loc 1 383 3 is_stmt 1 view .LVU81
 383:Core/Src/main.c ****   HAL_GPIO_Init(GPIOA, &GPIO_InitStruct);
 314              		.loc 1 383 25 is_stmt 0 view .LVU82
 315 00b2 0694     		str	r4, [sp, #24]
 384:Core/Src/main.c **** 
 316              		.loc 1 384 3 is_stmt 1 view .LVU83
 317 00b4 03A9     		add	r1, sp, #12
 318 00b6 3846     		mov	r0, r7
 319 00b8 FFF7FEFF 		bl	HAL_GPIO_Init
 320              	.LVL8:
 387:Core/Src/main.c ****   HAL_NVIC_EnableIRQ(EXTI0_IRQn);
 321              		.loc 1 387 3 view .LVU84
 322 00bc 2246     		mov	r2, r4
 323 00be 0521     		movs	r1, #5
 324 00c0 3046     		mov	r0, r6
 325 00c2 FFF7FEFF 		bl	HAL_NVIC_SetPriority
 326              	.LVL9:
 388:Core/Src/main.c **** 
 327              		.loc 1 388 3 view .LVU85
 328 00c6 3046     		mov	r0, r6
 329 00c8 FFF7FEFF 		bl	HAL_NVIC_EnableIRQ
 330              	.LVL10:
 390:Core/Src/main.c **** 
 331              		.loc 1 390 1 is_stmt 0 view .LVU86
 332 00cc 08B0     		add	sp, sp, #32
 333              	.LCFI2:
 334              		.cfi_def_cfa_offset 24
 335              		@ sp needed
 336 00ce BDE8F081 		pop	{r4, r5, r6, r7, r8, pc}
 337              	.L15:
 338 00d2 00BF     		.align	2
 339              	.L14:
 340 00d4 00380240 		.word	1073887232
 341 00d8 00000240 		.word	1073872896
 342 00dc 00040240 		.word	1073873920
 343              		.cfi_endproc
 344              	.LFE143:
 346              		.section	.text.MX_DMA_Init,"ax",%progbits
 347              		.align	1
 348              		.syntax unified
 349              		.thumb
 350              		.thumb_func
 352              	MX_DMA_Init:
 353              	.LFB142:
 321:Core/Src/main.c **** 
 354              		.loc 1 321 1 is_stmt 1 view -0
 355              		.cfi_startproc
 356              		@ args = 0, pretend = 0, frame = 8
 357              		@ frame_needed = 0, uses_anonymous_args = 0
 358 0000 10B5     		push	{r4, lr}
 359              	.LCFI3:
 360              		.cfi_def_cfa_offset 8
 361              		.cfi_offset 4, -8
 362              		.cfi_offset 14, -4
ARM GAS  C:\Users\jdcox\AppData\Local\Temp\ccRYgA8S.s 			page 20


 363 0002 82B0     		sub	sp, sp, #8
 364              	.LCFI4:
 365              		.cfi_def_cfa_offset 16
 324:Core/Src/main.c ****   __HAL_RCC_DMA2_CLK_ENABLE();
 366              		.loc 1 324 3 view .LVU88
 367              	.LBB7:
 324:Core/Src/main.c ****   __HAL_RCC_DMA2_CLK_ENABLE();
 368              		.loc 1 324 3 view .LVU89
 369 0004 0024     		movs	r4, #0
 370 0006 0094     		str	r4, [sp]
 324:Core/Src/main.c ****   __HAL_RCC_DMA2_CLK_ENABLE();
 371              		.loc 1 324 3 view .LVU90
 372 0008 164B     		ldr	r3, .L18
 373 000a 1A6B     		ldr	r2, [r3, #48]
 374 000c 42F40012 		orr	r2, r2, #2097152
 375 0010 1A63     		str	r2, [r3, #48]
 324:Core/Src/main.c ****   __HAL_RCC_DMA2_CLK_ENABLE();
 376              		.loc 1 324 3 view .LVU91
 377 0012 1A6B     		ldr	r2, [r3, #48]
 378 0014 02F40012 		and	r2, r2, #2097152
 379 0018 0092     		str	r2, [sp]
 324:Core/Src/main.c ****   __HAL_RCC_DMA2_CLK_ENABLE();
 380              		.loc 1 324 3 view .LVU92
 381 001a 009A     		ldr	r2, [sp]
 382              	.LBE7:
 324:Core/Src/main.c ****   __HAL_RCC_DMA2_CLK_ENABLE();
 383              		.loc 1 324 3 view .LVU93
 325:Core/Src/main.c **** 
 384              		.loc 1 325 3 view .LVU94
 385              	.LBB8:
 325:Core/Src/main.c **** 
 386              		.loc 1 325 3 view .LVU95
 387 001c 0194     		str	r4, [sp, #4]
 325:Core/Src/main.c **** 
 388              		.loc 1 325 3 view .LVU96
 389 001e 1A6B     		ldr	r2, [r3, #48]
 390 0020 42F48002 		orr	r2, r2, #4194304
 391 0024 1A63     		str	r2, [r3, #48]
 325:Core/Src/main.c **** 
 392              		.loc 1 325 3 view .LVU97
 393 0026 1B6B     		ldr	r3, [r3, #48]
 394 0028 03F48003 		and	r3, r3, #4194304
 395 002c 0193     		str	r3, [sp, #4]
 325:Core/Src/main.c **** 
 396              		.loc 1 325 3 view .LVU98
 397 002e 019B     		ldr	r3, [sp, #4]
 398              	.LBE8:
 325:Core/Src/main.c **** 
 399              		.loc 1 325 3 view .LVU99
 329:Core/Src/main.c ****   HAL_NVIC_EnableIRQ(DMA1_Stream6_IRQn);
 400              		.loc 1 329 3 view .LVU100
 401 0030 2246     		mov	r2, r4
 402 0032 0521     		movs	r1, #5
 403 0034 1120     		movs	r0, #17
 404 0036 FFF7FEFF 		bl	HAL_NVIC_SetPriority
 405              	.LVL11:
 330:Core/Src/main.c ****   /* DMA2_Stream0_IRQn interrupt configuration */
ARM GAS  C:\Users\jdcox\AppData\Local\Temp\ccRYgA8S.s 			page 21


 406              		.loc 1 330 3 view .LVU101
 407 003a 1120     		movs	r0, #17
 408 003c FFF7FEFF 		bl	HAL_NVIC_EnableIRQ
 409              	.LVL12:
 332:Core/Src/main.c ****   HAL_NVIC_EnableIRQ(DMA2_Stream0_IRQn);
 410              		.loc 1 332 3 view .LVU102
 411 0040 2246     		mov	r2, r4
 412 0042 0521     		movs	r1, #5
 413 0044 3820     		movs	r0, #56
 414 0046 FFF7FEFF 		bl	HAL_NVIC_SetPriority
 415              	.LVL13:
 333:Core/Src/main.c ****   /* DMA2_Stream3_IRQn interrupt configuration */
 416              		.loc 1 333 3 view .LVU103
 417 004a 3820     		movs	r0, #56
 418 004c FFF7FEFF 		bl	HAL_NVIC_EnableIRQ
 419              	.LVL14:
 335:Core/Src/main.c ****   HAL_NVIC_EnableIRQ(DMA2_Stream3_IRQn);
 420              		.loc 1 335 3 view .LVU104
 421 0050 2246     		mov	r2, r4
 422 0052 0521     		movs	r1, #5
 423 0054 3B20     		movs	r0, #59
 424 0056 FFF7FEFF 		bl	HAL_NVIC_SetPriority
 425              	.LVL15:
 336:Core/Src/main.c **** 
 426              		.loc 1 336 3 view .LVU105
 427 005a 3B20     		movs	r0, #59
 428 005c FFF7FEFF 		bl	HAL_NVIC_EnableIRQ
 429              	.LVL16:
 338:Core/Src/main.c **** 
 430              		.loc 1 338 1 is_stmt 0 view .LVU106
 431 0060 02B0     		add	sp, sp, #8
 432              	.LCFI5:
 433              		.cfi_def_cfa_offset 8
 434              		@ sp needed
 435 0062 10BD     		pop	{r4, pc}
 436              	.L19:
 437              		.align	2
 438              	.L18:
 439 0064 00380240 		.word	1073887232
 440              		.cfi_endproc
 441              	.LFE142:
 443              		.section	.text.StartDisplayTask,"ax",%progbits
 444              		.align	1
 445              		.global	StartDisplayTask
 446              		.syntax unified
 447              		.thumb
 448              		.thumb_func
 450              	StartDisplayTask:
 451              	.LFB146:
 608:Core/Src/main.c ****   /* USER CODE BEGIN StartDisplayTask */
 452              		.loc 1 608 1 is_stmt 1 view -0
 453              		.cfi_startproc
 454              		@ Volatile: function does not return.
 455              		@ args = 0, pretend = 0, frame = 0
 456              		@ frame_needed = 0, uses_anonymous_args = 0
 457              	.LVL17:
 608:Core/Src/main.c ****   /* USER CODE BEGIN StartDisplayTask */
ARM GAS  C:\Users\jdcox\AppData\Local\Temp\ccRYgA8S.s 			page 22


 458              		.loc 1 608 1 is_stmt 0 view .LVU108
 459 0000 08B5     		push	{r3, lr}
 460              	.LCFI6:
 461              		.cfi_def_cfa_offset 8
 462              		.cfi_offset 3, -8
 463              		.cfi_offset 14, -4
 464              	.LVL18:
 465              	.L21:
 611:Core/Src/main.c ****   {
 466              		.loc 1 611 3 is_stmt 1 discriminator 1 view .LVU109
 614:Core/Src/main.c ****   }
 467              		.loc 1 614 5 discriminator 1 view .LVU110
 468 0002 6420     		movs	r0, #100
 469 0004 FFF7FEFF 		bl	osDelay
 470              	.LVL19:
 611:Core/Src/main.c ****   {
 471              		.loc 1 611 3 discriminator 1 view .LVU111
 472 0008 FBE7     		b	.L21
 473              		.cfi_endproc
 474              	.LFE146:
 476              		.section	.rodata.StartDefaultTask.str1.4,"aMS",%progbits,1
 477              		.align	2
 478              	.LC6:
 479 0000 4A6F7368 		.ascii	"Josh wins\000"
 479      2077696E 
 479      7300
 480 000a 0000     		.align	2
 481              	.LC8:
 482 000c 4B494E47 		.ascii	"KING\000"
 482      00
 483 0011 000000   		.align	2
 484              	.LC9:
 485 0014 4F4600   		.ascii	"OF\000"
 486 0017 00       		.align	2
 487              	.LC10:
 488 0018 54484500 		.ascii	"THE\000"
 489              		.align	2
 490              	.LC11:
 491 001c 48494C4C 		.ascii	"HILL\000"
 491      00
 492 0021 000000   		.align	2
 493              	.LC12:
 494 0024 50757368 		.ascii	"Push to play\000"
 494      20746F20 
 494      706C6179 
 494      00
 495 0031 000000   		.align	2
 496              	.LC13:
 497 0034 596F7520 		.ascii	"You are king\000"
 497      61726520 
 497      6B696E67 
 497      00
 498 0041 000000   		.align	2
 499              	.LC14:
 500 0044 6F662074 		.ascii	"of the hill!\000"
 500      68652068 
 500      696C6C21 
ARM GAS  C:\Users\jdcox\AppData\Local\Temp\ccRYgA8S.s 			page 23


 500      00
 501 0051 000000   		.align	2
 502              	.LC15:
 503 0054 54616B65 		.ascii	"Take the hill!!\000"
 503      20746865 
 503      2068696C 
 503      6C212100 
 504              		.align	2
 505              	.LC16:
 506 0064 50312077 		.ascii	"P1 wins!\000"
 506      696E7321 
 506      00
 507 006d 000000   		.align	2
 508              	.LC17:
 509 0070 576F6E20 		.ascii	"Won by %ums\000"
 509      62792025 
 509      756D7300 
 510              		.align	2
 511              	.LC18:
 512 007c 50322077 		.ascii	"P2 wins!\000"
 512      696E7321 
 512      00
 513 0085 000000   		.align	2
 514              	.LC19:
 515 0088 50656E61 		.ascii	"Penalty!\000"
 515      6C747921 
 515      00
 516              		.section	.text.StartDefaultTask,"ax",%progbits
 517              		.align	1
 518              		.global	StartDefaultTask
 519              		.syntax unified
 520              		.thumb
 521              		.thumb_func
 523              	StartDefaultTask:
 524              	.LVL20:
 525              	.LFB144:
 404:Core/Src/main.c ****   /* USER CODE BEGIN 5 */
 526              		.loc 1 404 1 view -0
 527              		.cfi_startproc
 528              		@ args = 0, pretend = 0, frame = 96
 529              		@ frame_needed = 0, uses_anonymous_args = 0
 404:Core/Src/main.c ****   /* USER CODE BEGIN 5 */
 530              		.loc 1 404 1 is_stmt 0 view .LVU113
 531 0000 70B5     		push	{r4, r5, r6, lr}
 532              	.LCFI7:
 533              		.cfi_def_cfa_offset 16
 534              		.cfi_offset 4, -16
 535              		.cfi_offset 5, -12
 536              		.cfi_offset 6, -8
 537              		.cfi_offset 14, -4
 538 0002 98B0     		sub	sp, sp, #96
 539              	.LCFI8:
 540              		.cfi_def_cfa_offset 112
 406:Core/Src/main.c ****   //xSemaphoreTake(xloraMutex, portMAX_DELAY);
 541              		.loc 1 406 3 is_stmt 1 view .LVU114
 406:Core/Src/main.c ****   //xSemaphoreTake(xloraMutex, portMAX_DELAY);
 542              		.loc 1 406 16 is_stmt 0 view .LVU115
ARM GAS  C:\Users\jdcox\AppData\Local\Temp\ccRYgA8S.s 			page 24


 543 0004 0120     		movs	r0, #1
 544              	.LVL21:
 406:Core/Src/main.c ****   //xSemaphoreTake(xloraMutex, portMAX_DELAY);
 545              		.loc 1 406 16 view .LVU116
 546 0006 FFF7FEFF 		bl	xQueueCreateMutex
 547              	.LVL22:
 406:Core/Src/main.c ****   //xSemaphoreTake(xloraMutex, portMAX_DELAY);
 548              		.loc 1 406 14 view .LVU117
 549 000a BA4B     		ldr	r3, .L39
 550 000c 1860     		str	r0, [r3]
 410:Core/Src/main.c **** 
 551              		.loc 1 410 3 is_stmt 1 view .LVU118
 410:Core/Src/main.c **** 
 552              		.loc 1 410 12 is_stmt 0 view .LVU119
 553 000e BA4E     		ldr	r6, .L39+4
 554 0010 6846     		mov	r0, sp
 555 0012 FFF7FEFF 		bl	newLoRa
 556              	.LVL23:
 557 0016 3546     		mov	r5, r6
 558 0018 6C46     		mov	r4, sp
 559 001a 0FCC     		ldmia	r4!, {r0, r1, r2, r3}
 560 001c 0FC5     		stmia	r5!, {r0, r1, r2, r3}
 561 001e 0FCC     		ldmia	r4!, {r0, r1, r2, r3}
 562 0020 0FC5     		stmia	r5!, {r0, r1, r2, r3}
 563 0022 94E80700 		ldm	r4, {r0, r1, r2}
 564 0026 85E80700 		stm	r5, {r0, r1, r2}
 413:Core/Src/main.c ****     myLoRa.CS_pin          = LORA_CS_Pin;
 565              		.loc 1 413 5 is_stmt 1 view .LVU120
 413:Core/Src/main.c ****     myLoRa.CS_pin          = LORA_CS_Pin;
 566              		.loc 1 413 28 is_stmt 0 view .LVU121
 567 002a B44B     		ldr	r3, .L39+8
 568 002c 3360     		str	r3, [r6]
 414:Core/Src/main.c ****     myLoRa.reset_port      = LORA_RST_GPIO_Port;
 569              		.loc 1 414 5 is_stmt 1 view .LVU122
 414:Core/Src/main.c ****     myLoRa.reset_port      = LORA_RST_GPIO_Port;
 570              		.loc 1 414 28 is_stmt 0 view .LVU123
 571 002e 4FF48062 		mov	r2, #1024
 572 0032 B280     		strh	r2, [r6, #4]	@ movhi
 415:Core/Src/main.c ****     myLoRa.reset_pin       = LORA_RST_Pin;
 573              		.loc 1 415 5 is_stmt 1 view .LVU124
 415:Core/Src/main.c ****     myLoRa.reset_pin       = LORA_RST_Pin;
 574              		.loc 1 415 28 is_stmt 0 view .LVU125
 575 0034 B360     		str	r3, [r6, #8]
 416:Core/Src/main.c ****     myLoRa.DIO0_port       = LORA_EXTI_GPIO_Port;
 576              		.loc 1 416 5 is_stmt 1 view .LVU126
 416:Core/Src/main.c ****     myLoRa.DIO0_port       = LORA_EXTI_GPIO_Port;
 577              		.loc 1 416 28 is_stmt 0 view .LVU127
 578 0036 4FF40072 		mov	r2, #512
 579 003a B281     		strh	r2, [r6, #12]	@ movhi
 417:Core/Src/main.c ****     myLoRa.DIO0_pin        = LORA_EXTI_Pin;
 580              		.loc 1 417 5 is_stmt 1 view .LVU128
 417:Core/Src/main.c ****     myLoRa.DIO0_pin        = LORA_EXTI_Pin;
 581              		.loc 1 417 28 is_stmt 0 view .LVU129
 582 003c 3361     		str	r3, [r6, #16]
 418:Core/Src/main.c ****     myLoRa.hSPIx           = &hspi1;
 583              		.loc 1 418 5 is_stmt 1 view .LVU130
 418:Core/Src/main.c ****     myLoRa.hSPIx           = &hspi1;
ARM GAS  C:\Users\jdcox\AppData\Local\Temp\ccRYgA8S.s 			page 25


 584              		.loc 1 418 28 is_stmt 0 view .LVU131
 585 003e 4FF48073 		mov	r3, #256
 586 0042 B382     		strh	r3, [r6, #20]	@ movhi
 419:Core/Src/main.c **** 
 587              		.loc 1 419 5 is_stmt 1 view .LVU132
 419:Core/Src/main.c **** 
 588              		.loc 1 419 28 is_stmt 0 view .LVU133
 589 0044 AE4B     		ldr	r3, .L39+12
 590 0046 B361     		str	r3, [r6, #24]
 422:Core/Src/main.c ****   sprintf(opcodeString,"Josh wins", 10);
 591              		.loc 1 422 3 is_stmt 1 view .LVU134
 422:Core/Src/main.c ****   sprintf(opcodeString,"Josh wins", 10);
 592              		.loc 1 422 26 is_stmt 0 view .LVU135
 593 0048 3046     		mov	r0, r6
 594 004a FFF7FEFF 		bl	LoRa_init
 595              	.LVL24:
 596 004e 0446     		mov	r4, r0
 597              	.LVL25:
 423:Core/Src/main.c ****   if(LoRa_Status == LORA_OK)
 598              		.loc 1 423 3 is_stmt 1 view .LVU136
 599 0050 0A22     		movs	r2, #10
 600 0052 AC49     		ldr	r1, .L39+16
 601 0054 AC48     		ldr	r0, .L39+20
 602 0056 FFF7FEFF 		bl	sprintf
 603              	.LVL26:
 424:Core/Src/main.c ****   {
 604              		.loc 1 424 3 view .LVU137
 424:Core/Src/main.c ****   {
 605              		.loc 1 424 5 is_stmt 0 view .LVU138
 606 005a C82C     		cmp	r4, #200
 607 005c 6BD0     		beq	.L37
 430:Core/Src/main.c ****   }
 608              		.loc 1 430 5 is_stmt 1 view .LVU139
 430:Core/Src/main.c ****   }
 609              		.loc 1 430 16 is_stmt 0 view .LVU140
 610 005e AB4B     		ldr	r3, .L39+24
 611 0060 0922     		movs	r2, #9
 612 0062 1A80     		strh	r2, [r3]	@ movhi
 613              	.L25:
 433:Core/Src/main.c ****   
 614              		.loc 1 433 3 is_stmt 1 view .LVU141
 615 0064 A448     		ldr	r0, .L39+4
 616 0066 FFF7FEFF 		bl	LoRa_startReceiving
 617              	.LVL27:
 438:Core/Src/main.c ****   loraRXTaskHandle = osThreadCreate(osThread(loraRXTask), NULL);
 618              		.loc 1 438 3 view .LVU142
 619 006a 11AC     		add	r4, sp, #68
 620              	.LVL28:
 438:Core/Src/main.c ****   loraRXTaskHandle = osThreadCreate(osThread(loraRXTask), NULL);
 621              		.loc 1 438 3 is_stmt 0 view .LVU143
 622 006c A84D     		ldr	r5, .L39+28
 623 006e 0FCD     		ldmia	r5!, {r0, r1, r2, r3}
 624 0070 0FC4     		stmia	r4!, {r0, r1, r2, r3}
 625 0072 95E80700 		ldm	r5, {r0, r1, r2}
 626 0076 84E80700 		stm	r4, {r0, r1, r2}
 439:Core/Src/main.c **** 
 627              		.loc 1 439 3 is_stmt 1 view .LVU144
ARM GAS  C:\Users\jdcox\AppData\Local\Temp\ccRYgA8S.s 			page 26


 439:Core/Src/main.c **** 
 628              		.loc 1 439 22 is_stmt 0 view .LVU145
 629 007a 0021     		movs	r1, #0
 630 007c 11A8     		add	r0, sp, #68
 631 007e FFF7FEFF 		bl	osThreadCreate
 632              	.LVL29:
 439:Core/Src/main.c **** 
 633              		.loc 1 439 20 view .LVU146
 634 0082 A44B     		ldr	r3, .L39+32
 635 0084 1860     		str	r0, [r3]
 441:Core/Src/main.c ****   ssd1306_Init();
 636              		.loc 1 441 3 is_stmt 1 view .LVU147
 637 0086 0122     		movs	r2, #1
 638 0088 0221     		movs	r1, #2
 639 008a A348     		ldr	r0, .L39+36
 640 008c FFF7FEFF 		bl	HAL_GPIO_WritePin
 641              	.LVL30:
 442:Core/Src/main.c ****   ssd1306_SetCursor(0,0);
 642              		.loc 1 442 3 view .LVU148
 643 0090 FFF7FEFF 		bl	ssd1306_Init
 644              	.LVL31:
 443:Core/Src/main.c ****   ssd1306_WriteString("KING",Font_16x24,1);
 645              		.loc 1 443 3 view .LVU149
 646 0094 0021     		movs	r1, #0
 647 0096 0846     		mov	r0, r1
 648 0098 FFF7FEFF 		bl	ssd1306_SetCursor
 649              	.LVL32:
 444:Core/Src/main.c ****   ssd1306_UpdateScreen();
 650              		.loc 1 444 3 view .LVU150
 651 009c 9F4C     		ldr	r4, .L39+40
 652 009e 0123     		movs	r3, #1
 653 00a0 94E80600 		ldm	r4, {r1, r2}
 654 00a4 9E48     		ldr	r0, .L39+44
 655 00a6 FFF7FEFF 		bl	ssd1306_WriteString
 656              	.LVL33:
 445:Core/Src/main.c ****   osDelay(500);
 657              		.loc 1 445 3 view .LVU151
 658 00aa FFF7FEFF 		bl	ssd1306_UpdateScreen
 659              	.LVL34:
 446:Core/Src/main.c ****   ssd1306_Fill(0);
 660              		.loc 1 446 3 view .LVU152
 661 00ae 4FF4FA70 		mov	r0, #500
 662 00b2 FFF7FEFF 		bl	osDelay
 663              	.LVL35:
 447:Core/Src/main.c ****   ssd1306_SetCursor(64,0);
 664              		.loc 1 447 3 view .LVU153
 665 00b6 0020     		movs	r0, #0
 666 00b8 FFF7FEFF 		bl	ssd1306_Fill
 667              	.LVL36:
 448:Core/Src/main.c ****   ssd1306_WriteString("OF",Font_16x24,1);
 668              		.loc 1 448 3 view .LVU154
 669 00bc 0021     		movs	r1, #0
 670 00be 4020     		movs	r0, #64
 671 00c0 FFF7FEFF 		bl	ssd1306_SetCursor
 672              	.LVL37:
 449:Core/Src/main.c ****   ssd1306_UpdateScreen();
 673              		.loc 1 449 3 view .LVU155
ARM GAS  C:\Users\jdcox\AppData\Local\Temp\ccRYgA8S.s 			page 27


 674 00c4 0123     		movs	r3, #1
 675 00c6 94E80600 		ldm	r4, {r1, r2}
 676 00ca 9648     		ldr	r0, .L39+48
 677 00cc FFF7FEFF 		bl	ssd1306_WriteString
 678              	.LVL38:
 450:Core/Src/main.c ****   osDelay(500);
 679              		.loc 1 450 3 view .LVU156
 680 00d0 FFF7FEFF 		bl	ssd1306_UpdateScreen
 681              	.LVL39:
 451:Core/Src/main.c ****   ssd1306_Fill(0);
 682              		.loc 1 451 3 view .LVU157
 683 00d4 4FF4FA70 		mov	r0, #500
 684 00d8 FFF7FEFF 		bl	osDelay
 685              	.LVL40:
 452:Core/Src/main.c ****   ssd1306_SetCursor(0,8);
 686              		.loc 1 452 3 view .LVU158
 687 00dc 0020     		movs	r0, #0
 688 00de FFF7FEFF 		bl	ssd1306_Fill
 689              	.LVL41:
 453:Core/Src/main.c ****   ssd1306_WriteString("THE",Font_16x24,1);
 690              		.loc 1 453 3 view .LVU159
 691 00e2 0821     		movs	r1, #8
 692 00e4 0020     		movs	r0, #0
 693 00e6 FFF7FEFF 		bl	ssd1306_SetCursor
 694              	.LVL42:
 454:Core/Src/main.c ****   ssd1306_UpdateScreen();
 695              		.loc 1 454 3 view .LVU160
 696 00ea 0123     		movs	r3, #1
 697 00ec 94E80600 		ldm	r4, {r1, r2}
 698 00f0 8D48     		ldr	r0, .L39+52
 699 00f2 FFF7FEFF 		bl	ssd1306_WriteString
 700              	.LVL43:
 455:Core/Src/main.c ****   osDelay(500);
 701              		.loc 1 455 3 view .LVU161
 702 00f6 FFF7FEFF 		bl	ssd1306_UpdateScreen
 703              	.LVL44:
 456:Core/Src/main.c ****   ssd1306_Fill(0);
 704              		.loc 1 456 3 view .LVU162
 705 00fa 4FF4FA70 		mov	r0, #500
 706 00fe FFF7FEFF 		bl	osDelay
 707              	.LVL45:
 457:Core/Src/main.c ****   ssd1306_SetCursor(64,8);
 708              		.loc 1 457 3 view .LVU163
 709 0102 0020     		movs	r0, #0
 710 0104 FFF7FEFF 		bl	ssd1306_Fill
 711              	.LVL46:
 458:Core/Src/main.c ****   ssd1306_WriteString("HILL",Font_16x24,1);
 712              		.loc 1 458 3 view .LVU164
 713 0108 0821     		movs	r1, #8
 714 010a 4020     		movs	r0, #64
 715 010c FFF7FEFF 		bl	ssd1306_SetCursor
 716              	.LVL47:
 459:Core/Src/main.c ****   ssd1306_UpdateScreen();
 717              		.loc 1 459 3 view .LVU165
 718 0110 0123     		movs	r3, #1
 719 0112 94E80600 		ldm	r4, {r1, r2}
 720 0116 8548     		ldr	r0, .L39+56
ARM GAS  C:\Users\jdcox\AppData\Local\Temp\ccRYgA8S.s 			page 28


 721 0118 FFF7FEFF 		bl	ssd1306_WriteString
 722              	.LVL48:
 460:Core/Src/main.c **** 
 723              		.loc 1 460 3 view .LVU166
 724 011c FFF7FEFF 		bl	ssd1306_UpdateScreen
 725              	.LVL49:
 464:Core/Src/main.c **** 
 726              		.loc 1 464 3 view .LVU167
 727 0120 4FF47A70 		mov	r0, #1000
 728 0124 FFF7FEFF 		bl	osDelay
 729              	.LVL50:
 466:Core/Src/main.c ****   stateChange_flag = 1;
 730              		.loc 1 466 3 view .LVU168
 466:Core/Src/main.c ****   stateChange_flag = 1;
 731              		.loc 1 466 13 is_stmt 0 view .LVU169
 732 0128 814B     		ldr	r3, .L39+60
 733 012a 0022     		movs	r2, #0
 734 012c 1A70     		strb	r2, [r3]
 467:Core/Src/main.c ****   
 735              		.loc 1 467 3 is_stmt 1 view .LVU170
 467:Core/Src/main.c ****   
 736              		.loc 1 467 20 is_stmt 0 view .LVU171
 737 012e 814B     		ldr	r3, .L39+64
 738 0130 0122     		movs	r2, #1
 739 0132 1A70     		strb	r2, [r3]
 740 0134 0CE0     		b	.L34
 741              	.LVL51:
 742              	.L37:
 426:Core/Src/main.c ****   }
 743              		.loc 1 426 5 is_stmt 1 view .LVU172
 744 0136 6423     		movs	r3, #100
 745 0138 0C22     		movs	r2, #12
 746 013a 7349     		ldr	r1, .L39+20
 747 013c 3046     		mov	r0, r6
 748 013e FFF7FEFF 		bl	LoRa_transmit
 749              	.LVL52:
 750 0142 8FE7     		b	.L25
 751              	.LVL53:
 752              	.L33:
 479:Core/Src/main.c ****         {
 753              		.loc 1 479 9 view .LVU173
 479:Core/Src/main.c ****         {
 754              		.loc 1 479 12 is_stmt 0 view .LVU174
 755 0144 7B4B     		ldr	r3, .L39+64
 756 0146 1B78     		ldrb	r3, [r3]	@ zero_extendqisi2
 479:Core/Src/main.c ****         {
 757              		.loc 1 479 11 view .LVU175
 758 0148 D3B9     		cbnz	r3, .L38
 759              	.L26:
 566:Core/Src/main.c ****    
 760              		.loc 1 566 5 is_stmt 1 view .LVU176
 761 014a 0120     		movs	r0, #1
 762 014c FFF7FEFF 		bl	osDelay
 763              	.LVL54:
 471:Core/Src/main.c ****   {
 764              		.loc 1 471 3 view .LVU177
 765              	.L34:
ARM GAS  C:\Users\jdcox\AppData\Local\Temp\ccRYgA8S.s 			page 29


 471:Core/Src/main.c ****   {
 766              		.loc 1 471 3 view .LVU178
 474:Core/Src/main.c ****     
 767              		.loc 1 474 5 view .LVU179
 768 0150 0221     		movs	r1, #2
 769 0152 7148     		ldr	r0, .L39+36
 770 0154 FFF7FEFF 		bl	HAL_GPIO_TogglePin
 771              	.LVL55:
 476:Core/Src/main.c ****     {
 772              		.loc 1 476 5 view .LVU180
 773 0158 754B     		ldr	r3, .L39+60
 774 015a 1B78     		ldrb	r3, [r3]	@ zero_extendqisi2
 775 015c 052B     		cmp	r3, #5
 776 015e F4D8     		bhi	.L26
 777 0160 01A2     		adr	r2, .L28
 778 0162 52F823F0 		ldr	pc, [r2, r3, lsl #2]
 779 0166 00BF     		.p2align 2
 780              	.L28:
 781 0168 45010000 		.word	.L33+1
 782 016c A7010000 		.word	.L32+1
 783 0170 F5010000 		.word	.L31+1
 784 0174 2D020000 		.word	.L30+1
 785 0178 8F020000 		.word	.L29+1
 786 017c 61030000 		.word	.L27+1
 787              		.p2align 1
 788              	.L38:
 481:Core/Src/main.c ****           ssd1306_Fill(0); 
 789              		.loc 1 481 11 view .LVU181
 481:Core/Src/main.c ****           ssd1306_Fill(0); 
 790              		.loc 1 481 28 is_stmt 0 view .LVU182
 791 0180 0024     		movs	r4, #0
 792 0182 6C4B     		ldr	r3, .L39+64
 793 0184 1C70     		strb	r4, [r3]
 482:Core/Src/main.c ****           ssd1306_SetCursor(0,0);
 794              		.loc 1 482 11 is_stmt 1 view .LVU183
 795 0186 2046     		mov	r0, r4
 796 0188 FFF7FEFF 		bl	ssd1306_Fill
 797              	.LVL56:
 483:Core/Src/main.c ****           ssd1306_WriteString("Push to play",Font_7x10,1);
 798              		.loc 1 483 11 view .LVU184
 799 018c 2146     		mov	r1, r4
 800 018e 2046     		mov	r0, r4
 801 0190 FFF7FEFF 		bl	ssd1306_SetCursor
 802              	.LVL57:
 484:Core/Src/main.c ****           ssd1306_UpdateScreen();
 803              		.loc 1 484 11 view .LVU185
 804 0194 684A     		ldr	r2, .L39+68
 805 0196 0123     		movs	r3, #1
 806 0198 06CA     		ldm	r2, {r1, r2}
 807 019a 6848     		ldr	r0, .L39+72
 808 019c FFF7FEFF 		bl	ssd1306_WriteString
 809              	.LVL58:
 485:Core/Src/main.c ****         }
 810              		.loc 1 485 11 view .LVU186
 811 01a0 FFF7FEFF 		bl	ssd1306_UpdateScreen
 812              	.LVL59:
 813 01a4 D1E7     		b	.L26
ARM GAS  C:\Users\jdcox\AppData\Local\Temp\ccRYgA8S.s 			page 30


 814              	.L32:
 490:Core/Src/main.c ****         {
 815              		.loc 1 490 9 view .LVU187
 490:Core/Src/main.c ****         {
 816              		.loc 1 490 12 is_stmt 0 view .LVU188
 817 01a6 634B     		ldr	r3, .L39+64
 818 01a8 1B78     		ldrb	r3, [r3]	@ zero_extendqisi2
 490:Core/Src/main.c ****         {
 819              		.loc 1 490 11 view .LVU189
 820 01aa 002B     		cmp	r3, #0
 821 01ac CDD0     		beq	.L26
 492:Core/Src/main.c ****           P1LED_OFF; // The hill is yours
 822              		.loc 1 492 11 is_stmt 1 view .LVU190
 492:Core/Src/main.c ****           P1LED_OFF; // The hill is yours
 823              		.loc 1 492 28 is_stmt 0 view .LVU191
 824 01ae 0024     		movs	r4, #0
 825 01b0 604B     		ldr	r3, .L39+64
 826 01b2 1C70     		strb	r4, [r3]
 493:Core/Src/main.c ****           ssd1306_Fill(0);
 827              		.loc 1 493 11 is_stmt 1 view .LVU192
 828 01b4 0122     		movs	r2, #1
 829 01b6 0221     		movs	r1, #2
 830 01b8 5748     		ldr	r0, .L39+36
 831 01ba FFF7FEFF 		bl	HAL_GPIO_WritePin
 832              	.LVL60:
 494:Core/Src/main.c ****           ssd1306_SetCursor(0,0);
 833              		.loc 1 494 11 view .LVU193
 834 01be 2046     		mov	r0, r4
 835 01c0 FFF7FEFF 		bl	ssd1306_Fill
 836              	.LVL61:
 495:Core/Src/main.c ****           ssd1306_WriteString("You are king",Font_7x10,1);
 837              		.loc 1 495 11 view .LVU194
 838 01c4 2146     		mov	r1, r4
 839 01c6 2046     		mov	r0, r4
 840 01c8 FFF7FEFF 		bl	ssd1306_SetCursor
 841              	.LVL62:
 496:Core/Src/main.c ****           ssd1306_SetCursor(0,10);
 842              		.loc 1 496 11 view .LVU195
 843 01cc 5A4D     		ldr	r5, .L39+68
 844 01ce 0123     		movs	r3, #1
 845 01d0 95E80600 		ldm	r5, {r1, r2}
 846 01d4 5A48     		ldr	r0, .L39+76
 847 01d6 FFF7FEFF 		bl	ssd1306_WriteString
 848              	.LVL63:
 497:Core/Src/main.c ****           ssd1306_WriteString("of the hill!",Font_7x10,1);
 849              		.loc 1 497 11 view .LVU196
 850 01da 0A21     		movs	r1, #10
 851 01dc 2046     		mov	r0, r4
 852 01de FFF7FEFF 		bl	ssd1306_SetCursor
 853              	.LVL64:
 498:Core/Src/main.c ****           ssd1306_UpdateScreen();
 854              		.loc 1 498 11 view .LVU197
 855 01e2 0123     		movs	r3, #1
 856 01e4 95E80600 		ldm	r5, {r1, r2}
 857 01e8 5648     		ldr	r0, .L39+80
 858 01ea FFF7FEFF 		bl	ssd1306_WriteString
 859              	.LVL65:
ARM GAS  C:\Users\jdcox\AppData\Local\Temp\ccRYgA8S.s 			page 31


 499:Core/Src/main.c ****         }
 860              		.loc 1 499 11 view .LVU198
 861 01ee FFF7FEFF 		bl	ssd1306_UpdateScreen
 862              	.LVL66:
 863 01f2 AAE7     		b	.L26
 864              	.L31:
 504:Core/Src/main.c ****         {
 865              		.loc 1 504 9 view .LVU199
 504:Core/Src/main.c ****         {
 866              		.loc 1 504 12 is_stmt 0 view .LVU200
 867 01f4 4F4B     		ldr	r3, .L39+64
 868 01f6 1B78     		ldrb	r3, [r3]	@ zero_extendqisi2
 504:Core/Src/main.c ****         {
 869              		.loc 1 504 11 view .LVU201
 870 01f8 002B     		cmp	r3, #0
 871 01fa A6D0     		beq	.L26
 506:Core/Src/main.c ****           P1LED_ON; // Better push the button!
 872              		.loc 1 506 11 is_stmt 1 view .LVU202
 506:Core/Src/main.c ****           P1LED_ON; // Better push the button!
 873              		.loc 1 506 28 is_stmt 0 view .LVU203
 874 01fc 0024     		movs	r4, #0
 875 01fe 4D4B     		ldr	r3, .L39+64
 876 0200 1C70     		strb	r4, [r3]
 507:Core/Src/main.c ****           ssd1306_Fill(0);
 877              		.loc 1 507 11 is_stmt 1 view .LVU204
 878 0202 2246     		mov	r2, r4
 879 0204 0221     		movs	r1, #2
 880 0206 4448     		ldr	r0, .L39+36
 881 0208 FFF7FEFF 		bl	HAL_GPIO_WritePin
 882              	.LVL67:
 508:Core/Src/main.c ****           ssd1306_SetCursor(0,0);
 883              		.loc 1 508 11 view .LVU205
 884 020c 2046     		mov	r0, r4
 885 020e FFF7FEFF 		bl	ssd1306_Fill
 886              	.LVL68:
 509:Core/Src/main.c ****           ssd1306_WriteString("Take the hill!!",Font_7x10,1);
 887              		.loc 1 509 11 view .LVU206
 888 0212 2146     		mov	r1, r4
 889 0214 2046     		mov	r0, r4
 890 0216 FFF7FEFF 		bl	ssd1306_SetCursor
 891              	.LVL69:
 510:Core/Src/main.c ****           ssd1306_UpdateScreen();
 892              		.loc 1 510 11 view .LVU207
 893 021a 474A     		ldr	r2, .L39+68
 894 021c 0123     		movs	r3, #1
 895 021e 06CA     		ldm	r2, {r1, r2}
 896 0220 4948     		ldr	r0, .L39+84
 897 0222 FFF7FEFF 		bl	ssd1306_WriteString
 898              	.LVL70:
 511:Core/Src/main.c ****         }
 899              		.loc 1 511 11 view .LVU208
 900 0226 FFF7FEFF 		bl	ssd1306_UpdateScreen
 901              	.LVL71:
 902 022a 8EE7     		b	.L26
 903              	.L30:
 516:Core/Src/main.c ****         {
 904              		.loc 1 516 9 view .LVU209
ARM GAS  C:\Users\jdcox\AppData\Local\Temp\ccRYgA8S.s 			page 32


 516:Core/Src/main.c ****         {
 905              		.loc 1 516 12 is_stmt 0 view .LVU210
 906 022c 414B     		ldr	r3, .L39+64
 907 022e 1B78     		ldrb	r3, [r3]	@ zero_extendqisi2
 516:Core/Src/main.c ****         {
 908              		.loc 1 516 11 view .LVU211
 909 0230 002B     		cmp	r3, #0
 910 0232 8AD0     		beq	.L26
 911              	.LBB9:
 518:Core/Src/main.c ****           P1LED_OFF;
 912              		.loc 1 518 11 is_stmt 1 view .LVU212
 518:Core/Src/main.c ****           P1LED_OFF;
 913              		.loc 1 518 28 is_stmt 0 view .LVU213
 914 0234 0024     		movs	r4, #0
 915 0236 3F4B     		ldr	r3, .L39+64
 916 0238 1C70     		strb	r4, [r3]
 519:Core/Src/main.c ****           ssd1306_Fill(0);
 917              		.loc 1 519 11 is_stmt 1 view .LVU214
 918 023a 0122     		movs	r2, #1
 919 023c 0221     		movs	r1, #2
 920 023e 3648     		ldr	r0, .L39+36
 921 0240 FFF7FEFF 		bl	HAL_GPIO_WritePin
 922              	.LVL72:
 520:Core/Src/main.c ****           ssd1306_SetCursor(0,0);
 923              		.loc 1 520 11 view .LVU215
 924 0244 2046     		mov	r0, r4
 925 0246 FFF7FEFF 		bl	ssd1306_Fill
 926              	.LVL73:
 521:Core/Src/main.c ****           ssd1306_WriteString("P1 wins!",Font_7x10,1);
 927              		.loc 1 521 11 view .LVU216
 928 024a 2146     		mov	r1, r4
 929 024c 2046     		mov	r0, r4
 930 024e FFF7FEFF 		bl	ssd1306_SetCursor
 931              	.LVL74:
 522:Core/Src/main.c ****           char score [16];
 932              		.loc 1 522 11 view .LVU217
 933 0252 394D     		ldr	r5, .L39+68
 934 0254 0123     		movs	r3, #1
 935 0256 95E80600 		ldm	r5, {r1, r2}
 936 025a 3C48     		ldr	r0, .L39+88
 937 025c FFF7FEFF 		bl	ssd1306_WriteString
 938              	.LVL75:
 523:Core/Src/main.c ****           uint16_t difference = p1King_counter - p2King_counter;
 939              		.loc 1 523 11 view .LVU218
 524:Core/Src/main.c ****           sprintf(score, "Won by %ums", difference);
 940              		.loc 1 524 11 view .LVU219
 524:Core/Src/main.c ****           sprintf(score, "Won by %ums", difference);
 941              		.loc 1 524 48 is_stmt 0 view .LVU220
 942 0260 3B4B     		ldr	r3, .L39+92
 943 0262 1A88     		ldrh	r2, [r3]
 944 0264 3B4B     		ldr	r3, .L39+96
 945 0266 1B88     		ldrh	r3, [r3]
 524:Core/Src/main.c ****           sprintf(score, "Won by %ums", difference);
 946              		.loc 1 524 20 view .LVU221
 947 0268 D21A     		subs	r2, r2, r3
 948              	.LVL76:
 525:Core/Src/main.c ****           lcd_put_cur(1,0);
ARM GAS  C:\Users\jdcox\AppData\Local\Temp\ccRYgA8S.s 			page 33


 949              		.loc 1 525 11 is_stmt 1 view .LVU222
 950 026a 92B2     		uxth	r2, r2
 525:Core/Src/main.c ****           lcd_put_cur(1,0);
 951              		.loc 1 525 11 is_stmt 0 view .LVU223
 952 026c 3A49     		ldr	r1, .L39+100
 953 026e 0DA8     		add	r0, sp, #52
 954 0270 FFF7FEFF 		bl	sprintf
 955              	.LVL77:
 526:Core/Src/main.c ****           ssd1306_WriteString(score,Font_7x10,1);
 956              		.loc 1 526 11 is_stmt 1 view .LVU224
 957 0274 2146     		mov	r1, r4
 958 0276 0120     		movs	r0, #1
 959 0278 FFF7FEFF 		bl	lcd_put_cur
 960              	.LVL78:
 527:Core/Src/main.c ****           ssd1306_UpdateScreen();
 961              		.loc 1 527 11 view .LVU225
 962 027c 0123     		movs	r3, #1
 963 027e 95E80600 		ldm	r5, {r1, r2}
 964 0282 0DA8     		add	r0, sp, #52
 965 0284 FFF7FEFF 		bl	ssd1306_WriteString
 966              	.LVL79:
 528:Core/Src/main.c **** 
 967              		.loc 1 528 11 view .LVU226
 968 0288 FFF7FEFF 		bl	ssd1306_UpdateScreen
 969              	.LVL80:
 970 028c 5DE7     		b	.L26
 971              	.L29:
 528:Core/Src/main.c **** 
 972              		.loc 1 528 11 is_stmt 0 view .LVU227
 973              	.LBE9:
 534:Core/Src/main.c ****         {
 974              		.loc 1 534 9 is_stmt 1 view .LVU228
 534:Core/Src/main.c ****         {
 975              		.loc 1 534 12 is_stmt 0 view .LVU229
 976 028e 294B     		ldr	r3, .L39+64
 977 0290 1B78     		ldrb	r3, [r3]	@ zero_extendqisi2
 534:Core/Src/main.c ****         {
 978              		.loc 1 534 11 view .LVU230
 979 0292 002B     		cmp	r3, #0
 980 0294 3FF459AF 		beq	.L26
 981              	.LBB10:
 536:Core/Src/main.c ****           P1LED_OFF;
 982              		.loc 1 536 11 is_stmt 1 view .LVU231
 536:Core/Src/main.c ****           P1LED_OFF;
 983              		.loc 1 536 28 is_stmt 0 view .LVU232
 984 0298 0024     		movs	r4, #0
 985 029a 264B     		ldr	r3, .L39+64
 986 029c 1C70     		strb	r4, [r3]
 537:Core/Src/main.c ****           ssd1306_Fill(0);
 987              		.loc 1 537 11 is_stmt 1 view .LVU233
 988 029e 0122     		movs	r2, #1
 989 02a0 0221     		movs	r1, #2
 990 02a2 1D48     		ldr	r0, .L39+36
 991 02a4 FFF7FEFF 		bl	HAL_GPIO_WritePin
 992              	.LVL81:
 538:Core/Src/main.c ****           ssd1306_SetCursor(0,0);
 993              		.loc 1 538 11 view .LVU234
ARM GAS  C:\Users\jdcox\AppData\Local\Temp\ccRYgA8S.s 			page 34


 994 02a8 2046     		mov	r0, r4
 995 02aa FFF7FEFF 		bl	ssd1306_Fill
 996              	.LVL82:
 539:Core/Src/main.c ****           ssd1306_WriteString("P2 wins!",Font_7x10,1);
 997              		.loc 1 539 11 view .LVU235
 998 02ae 2146     		mov	r1, r4
 999 02b0 2046     		mov	r0, r4
 1000 02b2 FFF7FEFF 		bl	ssd1306_SetCursor
 1001              	.LVL83:
 540:Core/Src/main.c ****           char score [16];
 1002              		.loc 1 540 11 view .LVU236
 1003 02b6 204D     		ldr	r5, .L39+68
 1004 02b8 0123     		movs	r3, #1
 1005 02ba 95E80600 		ldm	r5, {r1, r2}
 1006 02be 2748     		ldr	r0, .L39+104
 1007 02c0 FFF7FEFF 		bl	ssd1306_WriteString
 1008              	.LVL84:
 541:Core/Src/main.c ****           uint16_t difference = p2King_counter - p1King_counter;
 1009              		.loc 1 541 11 view .LVU237
 542:Core/Src/main.c ****           sprintf(score, "Won by %ums", difference);
 1010              		.loc 1 542 11 view .LVU238
 542:Core/Src/main.c ****           sprintf(score, "Won by %ums", difference);
 1011              		.loc 1 542 48 is_stmt 0 view .LVU239
 1012 02c4 234B     		ldr	r3, .L39+96
 1013 02c6 1A88     		ldrh	r2, [r3]
 1014 02c8 214B     		ldr	r3, .L39+92
 1015 02ca 1B88     		ldrh	r3, [r3]
 542:Core/Src/main.c ****           sprintf(score, "Won by %ums", difference);
 1016              		.loc 1 542 20 view .LVU240
 1017 02cc D21A     		subs	r2, r2, r3
 1018              	.LVL85:
 543:Core/Src/main.c ****           lcd_put_cur(1,0);
 1019              		.loc 1 543 11 is_stmt 1 view .LVU241
 1020 02ce 92B2     		uxth	r2, r2
 543:Core/Src/main.c ****           lcd_put_cur(1,0);
 1021              		.loc 1 543 11 is_stmt 0 view .LVU242
 1022 02d0 2149     		ldr	r1, .L39+100
 1023 02d2 0DA8     		add	r0, sp, #52
 1024 02d4 FFF7FEFF 		bl	sprintf
 1025              	.LVL86:
 544:Core/Src/main.c ****           ssd1306_WriteString(score,Font_7x10,1);
 1026              		.loc 1 544 11 is_stmt 1 view .LVU243
 1027 02d8 2146     		mov	r1, r4
 1028 02da 0120     		movs	r0, #1
 1029 02dc FFF7FEFF 		bl	lcd_put_cur
 1030              	.LVL87:
 545:Core/Src/main.c ****           ssd1306_UpdateScreen();
 1031              		.loc 1 545 11 view .LVU244
 1032 02e0 0123     		movs	r3, #1
 1033 02e2 95E80600 		ldm	r5, {r1, r2}
 1034 02e6 0DA8     		add	r0, sp, #52
 1035 02e8 FFF7FEFF 		bl	ssd1306_WriteString
 1036              	.LVL88:
 546:Core/Src/main.c ****         }
 1037              		.loc 1 546 11 view .LVU245
 1038 02ec FFF7FEFF 		bl	ssd1306_UpdateScreen
 1039              	.LVL89:
ARM GAS  C:\Users\jdcox\AppData\Local\Temp\ccRYgA8S.s 			page 35


 1040 02f0 2BE7     		b	.L26
 1041              	.L40:
 1042 02f2 00BF     		.align	2
 1043              	.L39:
 1044 02f4 00000000 		.word	.LANCHOR0
 1045 02f8 00000000 		.word	.LANCHOR1
 1046 02fc 00000240 		.word	1073872896
 1047 0300 00000000 		.word	.LANCHOR2
 1048 0304 00000000 		.word	.LC6
 1049 0308 00000000 		.word	opcodeString
 1050 030c 00000000 		.word	debugBuddy
 1051 0310 00000000 		.word	.LANCHOR3
 1052 0314 00000000 		.word	.LANCHOR4
 1053 0318 00040240 		.word	1073873920
 1054 031c 00000000 		.word	Font_16x24
 1055 0320 0C000000 		.word	.LC8
 1056 0324 14000000 		.word	.LC9
 1057 0328 18000000 		.word	.LC10
 1058 032c 1C000000 		.word	.LC11
 1059 0330 00000000 		.word	gameState
 1060 0334 00000000 		.word	stateChange_flag
 1061 0338 00000000 		.word	Font_7x10
 1062 033c 24000000 		.word	.LC12
 1063 0340 34000000 		.word	.LC13
 1064 0344 44000000 		.word	.LC14
 1065 0348 54000000 		.word	.LC15
 1066 034c 64000000 		.word	.LC16
 1067 0350 00000000 		.word	p1King_counter
 1068 0354 00000000 		.word	p2King_counter
 1069 0358 70000000 		.word	.LC17
 1070 035c 7C000000 		.word	.LC18
 1071              	.L27:
 546:Core/Src/main.c ****         }
 1072              		.loc 1 546 11 is_stmt 0 view .LVU246
 1073              	.LBE10:
 551:Core/Src/main.c ****         {
 1074              		.loc 1 551 9 is_stmt 1 view .LVU247
 551:Core/Src/main.c ****         {
 1075              		.loc 1 551 12 is_stmt 0 view .LVU248
 1076 0360 0E4B     		ldr	r3, .L41
 1077 0362 1B78     		ldrb	r3, [r3]	@ zero_extendqisi2
 551:Core/Src/main.c ****         {
 1078              		.loc 1 551 11 view .LVU249
 1079 0364 002B     		cmp	r3, #0
 1080 0366 3FF4F0AE 		beq	.L26
 553:Core/Src/main.c ****           P1LED_OFF;
 1081              		.loc 1 553 11 is_stmt 1 view .LVU250
 553:Core/Src/main.c ****           P1LED_OFF;
 1082              		.loc 1 553 28 is_stmt 0 view .LVU251
 1083 036a 0024     		movs	r4, #0
 1084 036c 0B4B     		ldr	r3, .L41
 1085 036e 1C70     		strb	r4, [r3]
 554:Core/Src/main.c ****           ssd1306_Fill(0); 
 1086              		.loc 1 554 11 is_stmt 1 view .LVU252
 1087 0370 0122     		movs	r2, #1
 1088 0372 0221     		movs	r1, #2
 1089 0374 0A48     		ldr	r0, .L41+4
ARM GAS  C:\Users\jdcox\AppData\Local\Temp\ccRYgA8S.s 			page 36


 1090 0376 FFF7FEFF 		bl	HAL_GPIO_WritePin
 1091              	.LVL90:
 555:Core/Src/main.c ****           ssd1306_SetCursor(0,0);
 1092              		.loc 1 555 11 view .LVU253
 1093 037a 2046     		mov	r0, r4
 1094 037c FFF7FEFF 		bl	ssd1306_Fill
 1095              	.LVL91:
 556:Core/Src/main.c ****           ssd1306_WriteString("Penalty!",Font_7x10,1);
 1096              		.loc 1 556 11 view .LVU254
 1097 0380 2146     		mov	r1, r4
 1098 0382 2046     		mov	r0, r4
 1099 0384 FFF7FEFF 		bl	ssd1306_SetCursor
 1100              	.LVL92:
 557:Core/Src/main.c ****           ssd1306_UpdateScreen();
 1101              		.loc 1 557 11 view .LVU255
 1102 0388 064A     		ldr	r2, .L41+8
 1103 038a 0123     		movs	r3, #1
 1104 038c 06CA     		ldm	r2, {r1, r2}
 1105 038e 0648     		ldr	r0, .L41+12
 1106 0390 FFF7FEFF 		bl	ssd1306_WriteString
 1107              	.LVL93:
 558:Core/Src/main.c ****         }
 1108              		.loc 1 558 11 view .LVU256
 1109 0394 FFF7FEFF 		bl	ssd1306_UpdateScreen
 1110              	.LVL94:
 1111 0398 D7E6     		b	.L26
 1112              	.L42:
 1113 039a 00BF     		.align	2
 1114              	.L41:
 1115 039c 00000000 		.word	stateChange_flag
 1116 03a0 00040240 		.word	1073873920
 1117 03a4 00000000 		.word	Font_7x10
 1118 03a8 88000000 		.word	.LC19
 1119              		.cfi_endproc
 1120              	.LFE144:
 1122              		.section	.text.StartLoraRXTask,"ax",%progbits
 1123              		.align	1
 1124              		.global	StartLoraRXTask
 1125              		.syntax unified
 1126              		.thumb
 1127              		.thumb_func
 1129              	StartLoraRXTask:
 1130              	.LFB145:
 582:Core/Src/main.c ****   /* USER CODE BEGIN StartLoraRXTask */
 1131              		.loc 1 582 1 view -0
 1132              		.cfi_startproc
 1133              		@ Volatile: function does not return.
 1134              		@ args = 0, pretend = 0, frame = 0
 1135              		@ frame_needed = 0, uses_anonymous_args = 0
 1136              	.LVL95:
 582:Core/Src/main.c ****   /* USER CODE BEGIN StartLoraRXTask */
 1137              		.loc 1 582 1 is_stmt 0 view .LVU258
 1138 0000 08B5     		push	{r3, lr}
 1139              	.LCFI9:
 1140              		.cfi_def_cfa_offset 8
 1141              		.cfi_offset 3, -8
 1142              		.cfi_offset 14, -4
ARM GAS  C:\Users\jdcox\AppData\Local\Temp\ccRYgA8S.s 			page 37


 1143              	.LVL96:
 1144              	.L44:
 585:Core/Src/main.c ****   {
 1145              		.loc 1 585 3 is_stmt 1 discriminator 1 view .LVU259
 588:Core/Src/main.c **** 
 1146              		.loc 1 588 5 discriminator 1 view .LVU260
 1147 0002 0421     		movs	r1, #4
 1148 0004 0448     		ldr	r0, .L46
 1149 0006 FFF7FEFF 		bl	HAL_GPIO_TogglePin
 1150              	.LVL97:
 591:Core/Src/main.c **** 
 1151              		.loc 1 591 5 discriminator 1 view .LVU261
 1152 000a FFF7FEFF 		bl	getKOTHPacket
 1153              	.LVL98:
 594:Core/Src/main.c **** 
 1154              		.loc 1 594 5 discriminator 1 view .LVU262
 1155 000e C820     		movs	r0, #200
 1156 0010 FFF7FEFF 		bl	osDelay
 1157              	.LVL99:
 585:Core/Src/main.c ****   {
 1158              		.loc 1 585 3 discriminator 1 view .LVU263
 1159 0014 F5E7     		b	.L44
 1160              	.L47:
 1161 0016 00BF     		.align	2
 1162              	.L46:
 1163 0018 00040240 		.word	1073873920
 1164              		.cfi_endproc
 1165              	.LFE145:
 1167              		.section	.text.HAL_TIM_PeriodElapsedCallback,"ax",%progbits
 1168              		.align	1
 1169              		.global	HAL_TIM_PeriodElapsedCallback
 1170              		.syntax unified
 1171              		.thumb
 1172              		.thumb_func
 1174              	HAL_TIM_PeriodElapsedCallback:
 1175              	.LVL100:
 1176              	.LFB150:
 658:Core/Src/main.c **** 
 659:Core/Src/main.c **** /**
 660:Core/Src/main.c ****   * @brief  Period elapsed callback in non blocking mode
 661:Core/Src/main.c ****   * @note   This function is called  when TIM1 interrupt took place, inside
 662:Core/Src/main.c ****   * HAL_TIM_IRQHandler(). It makes a direct call to HAL_IncTick() to increment
 663:Core/Src/main.c ****   * a global variable "uwTick" used as application time base.
 664:Core/Src/main.c ****   * @param  htim : TIM handle
 665:Core/Src/main.c ****   * @retval None
 666:Core/Src/main.c ****   */
 667:Core/Src/main.c **** void HAL_TIM_PeriodElapsedCallback(TIM_HandleTypeDef *htim)
 668:Core/Src/main.c **** {
 1177              		.loc 1 668 1 view -0
 1178              		.cfi_startproc
 1179              		@ args = 0, pretend = 0, frame = 0
 1180              		@ frame_needed = 0, uses_anonymous_args = 0
 1181              		.loc 1 668 1 is_stmt 0 view .LVU265
 1182 0000 08B5     		push	{r3, lr}
 1183              	.LCFI10:
 1184              		.cfi_def_cfa_offset 8
 1185              		.cfi_offset 3, -8
ARM GAS  C:\Users\jdcox\AppData\Local\Temp\ccRYgA8S.s 			page 38


 1186              		.cfi_offset 14, -4
 669:Core/Src/main.c ****   /* USER CODE BEGIN Callback 0 */
 670:Core/Src/main.c **** 
 671:Core/Src/main.c ****   /* USER CODE END Callback 0 */
 672:Core/Src/main.c ****   if (htim->Instance == TIM1) {
 1187              		.loc 1 672 3 is_stmt 1 view .LVU266
 1188              		.loc 1 672 11 is_stmt 0 view .LVU267
 1189 0002 0268     		ldr	r2, [r0]
 1190              		.loc 1 672 6 view .LVU268
 1191 0004 034B     		ldr	r3, .L52
 1192 0006 9A42     		cmp	r2, r3
 1193 0008 00D0     		beq	.L51
 1194              	.LVL101:
 1195              	.L48:
 673:Core/Src/main.c ****     HAL_IncTick();
 674:Core/Src/main.c ****   }
 675:Core/Src/main.c ****   /* USER CODE BEGIN Callback 1 */
 676:Core/Src/main.c **** 
 677:Core/Src/main.c ****   /* USER CODE END Callback 1 */
 678:Core/Src/main.c **** }
 1196              		.loc 1 678 1 view .LVU269
 1197 000a 08BD     		pop	{r3, pc}
 1198              	.LVL102:
 1199              	.L51:
 673:Core/Src/main.c ****     HAL_IncTick();
 1200              		.loc 1 673 5 is_stmt 1 view .LVU270
 1201 000c FFF7FEFF 		bl	HAL_IncTick
 1202              	.LVL103:
 1203              		.loc 1 678 1 is_stmt 0 view .LVU271
 1204 0010 FBE7     		b	.L48
 1205              	.L53:
 1206 0012 00BF     		.align	2
 1207              	.L52:
 1208 0014 00000140 		.word	1073807360
 1209              		.cfi_endproc
 1210              	.LFE150:
 1212              		.section	.text.Error_Handler,"ax",%progbits
 1213              		.align	1
 1214              		.global	Error_Handler
 1215              		.syntax unified
 1216              		.thumb
 1217              		.thumb_func
 1219              	Error_Handler:
 1220              	.LFB151:
 679:Core/Src/main.c **** 
 680:Core/Src/main.c **** /**
 681:Core/Src/main.c ****   * @brief  This function is executed in case of error occurrence.
 682:Core/Src/main.c ****   * @retval None
 683:Core/Src/main.c ****   */
 684:Core/Src/main.c **** void Error_Handler(void)
 685:Core/Src/main.c **** {
 1221              		.loc 1 685 1 is_stmt 1 view -0
 1222              		.cfi_startproc
 1223              		@ Volatile: function does not return.
 1224              		@ args = 0, pretend = 0, frame = 0
 1225              		@ frame_needed = 0, uses_anonymous_args = 0
 1226              		@ link register save eliminated.
ARM GAS  C:\Users\jdcox\AppData\Local\Temp\ccRYgA8S.s 			page 39


 686:Core/Src/main.c ****   /* USER CODE BEGIN Error_Handler_Debug */
 687:Core/Src/main.c ****   /* User can add his own implementation to report the HAL error return state */
 688:Core/Src/main.c ****   __disable_irq();
 1227              		.loc 1 688 3 view .LVU273
 1228              	.LBB11:
 1229              	.LBI11:
 1230              		.file 2 "Drivers/CMSIS/Include/cmsis_gcc.h"
   1:Drivers/CMSIS/Include/cmsis_gcc.h **** /**************************************************************************//**
   2:Drivers/CMSIS/Include/cmsis_gcc.h ****  * @file     cmsis_gcc.h
   3:Drivers/CMSIS/Include/cmsis_gcc.h ****  * @brief    CMSIS compiler GCC header file
   4:Drivers/CMSIS/Include/cmsis_gcc.h ****  * @version  V5.0.4
   5:Drivers/CMSIS/Include/cmsis_gcc.h ****  * @date     09. April 2018
   6:Drivers/CMSIS/Include/cmsis_gcc.h ****  ******************************************************************************/
   7:Drivers/CMSIS/Include/cmsis_gcc.h **** /*
   8:Drivers/CMSIS/Include/cmsis_gcc.h ****  * Copyright (c) 2009-2018 Arm Limited. All rights reserved.
   9:Drivers/CMSIS/Include/cmsis_gcc.h ****  *
  10:Drivers/CMSIS/Include/cmsis_gcc.h ****  * SPDX-License-Identifier: Apache-2.0
  11:Drivers/CMSIS/Include/cmsis_gcc.h ****  *
  12:Drivers/CMSIS/Include/cmsis_gcc.h ****  * Licensed under the Apache License, Version 2.0 (the License); you may
  13:Drivers/CMSIS/Include/cmsis_gcc.h ****  * not use this file except in compliance with the License.
  14:Drivers/CMSIS/Include/cmsis_gcc.h ****  * You may obtain a copy of the License at
  15:Drivers/CMSIS/Include/cmsis_gcc.h ****  *
  16:Drivers/CMSIS/Include/cmsis_gcc.h ****  * www.apache.org/licenses/LICENSE-2.0
  17:Drivers/CMSIS/Include/cmsis_gcc.h ****  *
  18:Drivers/CMSIS/Include/cmsis_gcc.h ****  * Unless required by applicable law or agreed to in writing, software
  19:Drivers/CMSIS/Include/cmsis_gcc.h ****  * distributed under the License is distributed on an AS IS BASIS, WITHOUT
  20:Drivers/CMSIS/Include/cmsis_gcc.h ****  * WARRANTIES OR CONDITIONS OF ANY KIND, either express or implied.
  21:Drivers/CMSIS/Include/cmsis_gcc.h ****  * See the License for the specific language governing permissions and
  22:Drivers/CMSIS/Include/cmsis_gcc.h ****  * limitations under the License.
  23:Drivers/CMSIS/Include/cmsis_gcc.h ****  */
  24:Drivers/CMSIS/Include/cmsis_gcc.h **** 
  25:Drivers/CMSIS/Include/cmsis_gcc.h **** #ifndef __CMSIS_GCC_H
  26:Drivers/CMSIS/Include/cmsis_gcc.h **** #define __CMSIS_GCC_H
  27:Drivers/CMSIS/Include/cmsis_gcc.h **** 
  28:Drivers/CMSIS/Include/cmsis_gcc.h **** /* ignore some GCC warnings */
  29:Drivers/CMSIS/Include/cmsis_gcc.h **** #pragma GCC diagnostic push
  30:Drivers/CMSIS/Include/cmsis_gcc.h **** #pragma GCC diagnostic ignored "-Wsign-conversion"
  31:Drivers/CMSIS/Include/cmsis_gcc.h **** #pragma GCC diagnostic ignored "-Wconversion"
  32:Drivers/CMSIS/Include/cmsis_gcc.h **** #pragma GCC diagnostic ignored "-Wunused-parameter"
  33:Drivers/CMSIS/Include/cmsis_gcc.h **** 
  34:Drivers/CMSIS/Include/cmsis_gcc.h **** /* Fallback for __has_builtin */
  35:Drivers/CMSIS/Include/cmsis_gcc.h **** #ifndef __has_builtin
  36:Drivers/CMSIS/Include/cmsis_gcc.h ****   #define __has_builtin(x) (0)
  37:Drivers/CMSIS/Include/cmsis_gcc.h **** #endif
  38:Drivers/CMSIS/Include/cmsis_gcc.h **** 
  39:Drivers/CMSIS/Include/cmsis_gcc.h **** /* CMSIS compiler specific defines */
  40:Drivers/CMSIS/Include/cmsis_gcc.h **** #ifndef   __ASM
  41:Drivers/CMSIS/Include/cmsis_gcc.h ****   #define __ASM                                  __asm
  42:Drivers/CMSIS/Include/cmsis_gcc.h **** #endif
  43:Drivers/CMSIS/Include/cmsis_gcc.h **** #ifndef   __INLINE
  44:Drivers/CMSIS/Include/cmsis_gcc.h ****   #define __INLINE                               inline
  45:Drivers/CMSIS/Include/cmsis_gcc.h **** #endif
  46:Drivers/CMSIS/Include/cmsis_gcc.h **** #ifndef   __STATIC_INLINE
  47:Drivers/CMSIS/Include/cmsis_gcc.h ****   #define __STATIC_INLINE                        static inline
  48:Drivers/CMSIS/Include/cmsis_gcc.h **** #endif
  49:Drivers/CMSIS/Include/cmsis_gcc.h **** #ifndef   __STATIC_FORCEINLINE                 
  50:Drivers/CMSIS/Include/cmsis_gcc.h ****   #define __STATIC_FORCEINLINE                   __attribute__((always_inline)) static inline
ARM GAS  C:\Users\jdcox\AppData\Local\Temp\ccRYgA8S.s 			page 40


  51:Drivers/CMSIS/Include/cmsis_gcc.h **** #endif                                           
  52:Drivers/CMSIS/Include/cmsis_gcc.h **** #ifndef   __NO_RETURN
  53:Drivers/CMSIS/Include/cmsis_gcc.h ****   #define __NO_RETURN                            __attribute__((__noreturn__))
  54:Drivers/CMSIS/Include/cmsis_gcc.h **** #endif
  55:Drivers/CMSIS/Include/cmsis_gcc.h **** #ifndef   __USED
  56:Drivers/CMSIS/Include/cmsis_gcc.h ****   #define __USED                                 __attribute__((used))
  57:Drivers/CMSIS/Include/cmsis_gcc.h **** #endif
  58:Drivers/CMSIS/Include/cmsis_gcc.h **** #ifndef   __WEAK
  59:Drivers/CMSIS/Include/cmsis_gcc.h ****   #define __WEAK                                 __attribute__((weak))
  60:Drivers/CMSIS/Include/cmsis_gcc.h **** #endif
  61:Drivers/CMSIS/Include/cmsis_gcc.h **** #ifndef   __PACKED
  62:Drivers/CMSIS/Include/cmsis_gcc.h ****   #define __PACKED                               __attribute__((packed, aligned(1)))
  63:Drivers/CMSIS/Include/cmsis_gcc.h **** #endif
  64:Drivers/CMSIS/Include/cmsis_gcc.h **** #ifndef   __PACKED_STRUCT
  65:Drivers/CMSIS/Include/cmsis_gcc.h ****   #define __PACKED_STRUCT                        struct __attribute__((packed, aligned(1)))
  66:Drivers/CMSIS/Include/cmsis_gcc.h **** #endif
  67:Drivers/CMSIS/Include/cmsis_gcc.h **** #ifndef   __PACKED_UNION
  68:Drivers/CMSIS/Include/cmsis_gcc.h ****   #define __PACKED_UNION                         union __attribute__((packed, aligned(1)))
  69:Drivers/CMSIS/Include/cmsis_gcc.h **** #endif
  70:Drivers/CMSIS/Include/cmsis_gcc.h **** #ifndef   __UNALIGNED_UINT32        /* deprecated */
  71:Drivers/CMSIS/Include/cmsis_gcc.h ****   #pragma GCC diagnostic push
  72:Drivers/CMSIS/Include/cmsis_gcc.h ****   #pragma GCC diagnostic ignored "-Wpacked"
  73:Drivers/CMSIS/Include/cmsis_gcc.h ****   #pragma GCC diagnostic ignored "-Wattributes"
  74:Drivers/CMSIS/Include/cmsis_gcc.h ****   struct __attribute__((packed)) T_UINT32 { uint32_t v; };
  75:Drivers/CMSIS/Include/cmsis_gcc.h ****   #pragma GCC diagnostic pop
  76:Drivers/CMSIS/Include/cmsis_gcc.h ****   #define __UNALIGNED_UINT32(x)                  (((struct T_UINT32 *)(x))->v)
  77:Drivers/CMSIS/Include/cmsis_gcc.h **** #endif
  78:Drivers/CMSIS/Include/cmsis_gcc.h **** #ifndef   __UNALIGNED_UINT16_WRITE
  79:Drivers/CMSIS/Include/cmsis_gcc.h ****   #pragma GCC diagnostic push
  80:Drivers/CMSIS/Include/cmsis_gcc.h ****   #pragma GCC diagnostic ignored "-Wpacked"
  81:Drivers/CMSIS/Include/cmsis_gcc.h ****   #pragma GCC diagnostic ignored "-Wattributes"
  82:Drivers/CMSIS/Include/cmsis_gcc.h ****   __PACKED_STRUCT T_UINT16_WRITE { uint16_t v; };
  83:Drivers/CMSIS/Include/cmsis_gcc.h ****   #pragma GCC diagnostic pop
  84:Drivers/CMSIS/Include/cmsis_gcc.h ****   #define __UNALIGNED_UINT16_WRITE(addr, val)    (void)((((struct T_UINT16_WRITE *)(void *)(addr))-
  85:Drivers/CMSIS/Include/cmsis_gcc.h **** #endif
  86:Drivers/CMSIS/Include/cmsis_gcc.h **** #ifndef   __UNALIGNED_UINT16_READ
  87:Drivers/CMSIS/Include/cmsis_gcc.h ****   #pragma GCC diagnostic push
  88:Drivers/CMSIS/Include/cmsis_gcc.h ****   #pragma GCC diagnostic ignored "-Wpacked"
  89:Drivers/CMSIS/Include/cmsis_gcc.h ****   #pragma GCC diagnostic ignored "-Wattributes"
  90:Drivers/CMSIS/Include/cmsis_gcc.h ****   __PACKED_STRUCT T_UINT16_READ { uint16_t v; };
  91:Drivers/CMSIS/Include/cmsis_gcc.h ****   #pragma GCC diagnostic pop
  92:Drivers/CMSIS/Include/cmsis_gcc.h ****   #define __UNALIGNED_UINT16_READ(addr)          (((const struct T_UINT16_READ *)(const void *)(add
  93:Drivers/CMSIS/Include/cmsis_gcc.h **** #endif
  94:Drivers/CMSIS/Include/cmsis_gcc.h **** #ifndef   __UNALIGNED_UINT32_WRITE
  95:Drivers/CMSIS/Include/cmsis_gcc.h ****   #pragma GCC diagnostic push
  96:Drivers/CMSIS/Include/cmsis_gcc.h ****   #pragma GCC diagnostic ignored "-Wpacked"
  97:Drivers/CMSIS/Include/cmsis_gcc.h ****   #pragma GCC diagnostic ignored "-Wattributes"
  98:Drivers/CMSIS/Include/cmsis_gcc.h ****   __PACKED_STRUCT T_UINT32_WRITE { uint32_t v; };
  99:Drivers/CMSIS/Include/cmsis_gcc.h ****   #pragma GCC diagnostic pop
 100:Drivers/CMSIS/Include/cmsis_gcc.h ****   #define __UNALIGNED_UINT32_WRITE(addr, val)    (void)((((struct T_UINT32_WRITE *)(void *)(addr))-
 101:Drivers/CMSIS/Include/cmsis_gcc.h **** #endif
 102:Drivers/CMSIS/Include/cmsis_gcc.h **** #ifndef   __UNALIGNED_UINT32_READ
 103:Drivers/CMSIS/Include/cmsis_gcc.h ****   #pragma GCC diagnostic push
 104:Drivers/CMSIS/Include/cmsis_gcc.h ****   #pragma GCC diagnostic ignored "-Wpacked"
 105:Drivers/CMSIS/Include/cmsis_gcc.h ****   #pragma GCC diagnostic ignored "-Wattributes"
 106:Drivers/CMSIS/Include/cmsis_gcc.h ****   __PACKED_STRUCT T_UINT32_READ { uint32_t v; };
 107:Drivers/CMSIS/Include/cmsis_gcc.h ****   #pragma GCC diagnostic pop
ARM GAS  C:\Users\jdcox\AppData\Local\Temp\ccRYgA8S.s 			page 41


 108:Drivers/CMSIS/Include/cmsis_gcc.h ****   #define __UNALIGNED_UINT32_READ(addr)          (((const struct T_UINT32_READ *)(const void *)(add
 109:Drivers/CMSIS/Include/cmsis_gcc.h **** #endif
 110:Drivers/CMSIS/Include/cmsis_gcc.h **** #ifndef   __ALIGNED
 111:Drivers/CMSIS/Include/cmsis_gcc.h ****   #define __ALIGNED(x)                           __attribute__((aligned(x)))
 112:Drivers/CMSIS/Include/cmsis_gcc.h **** #endif
 113:Drivers/CMSIS/Include/cmsis_gcc.h **** #ifndef   __RESTRICT
 114:Drivers/CMSIS/Include/cmsis_gcc.h ****   #define __RESTRICT                             __restrict
 115:Drivers/CMSIS/Include/cmsis_gcc.h **** #endif
 116:Drivers/CMSIS/Include/cmsis_gcc.h **** 
 117:Drivers/CMSIS/Include/cmsis_gcc.h **** 
 118:Drivers/CMSIS/Include/cmsis_gcc.h **** /* ###########################  Core Function Access  ########################### */
 119:Drivers/CMSIS/Include/cmsis_gcc.h **** /** \ingroup  CMSIS_Core_FunctionInterface
 120:Drivers/CMSIS/Include/cmsis_gcc.h ****     \defgroup CMSIS_Core_RegAccFunctions CMSIS Core Register Access Functions
 121:Drivers/CMSIS/Include/cmsis_gcc.h ****   @{
 122:Drivers/CMSIS/Include/cmsis_gcc.h ****  */
 123:Drivers/CMSIS/Include/cmsis_gcc.h **** 
 124:Drivers/CMSIS/Include/cmsis_gcc.h **** /**
 125:Drivers/CMSIS/Include/cmsis_gcc.h ****   \brief   Enable IRQ Interrupts
 126:Drivers/CMSIS/Include/cmsis_gcc.h ****   \details Enables IRQ interrupts by clearing the I-bit in the CPSR.
 127:Drivers/CMSIS/Include/cmsis_gcc.h ****            Can only be executed in Privileged modes.
 128:Drivers/CMSIS/Include/cmsis_gcc.h ****  */
 129:Drivers/CMSIS/Include/cmsis_gcc.h **** __STATIC_FORCEINLINE void __enable_irq(void)
 130:Drivers/CMSIS/Include/cmsis_gcc.h **** {
 131:Drivers/CMSIS/Include/cmsis_gcc.h ****   __ASM volatile ("cpsie i" : : : "memory");
 132:Drivers/CMSIS/Include/cmsis_gcc.h **** }
 133:Drivers/CMSIS/Include/cmsis_gcc.h **** 
 134:Drivers/CMSIS/Include/cmsis_gcc.h **** 
 135:Drivers/CMSIS/Include/cmsis_gcc.h **** /**
 136:Drivers/CMSIS/Include/cmsis_gcc.h ****   \brief   Disable IRQ Interrupts
 137:Drivers/CMSIS/Include/cmsis_gcc.h ****   \details Disables IRQ interrupts by setting the I-bit in the CPSR.
 138:Drivers/CMSIS/Include/cmsis_gcc.h ****            Can only be executed in Privileged modes.
 139:Drivers/CMSIS/Include/cmsis_gcc.h ****  */
 140:Drivers/CMSIS/Include/cmsis_gcc.h **** __STATIC_FORCEINLINE void __disable_irq(void)
 1231              		.loc 2 140 27 view .LVU274
 1232              	.LBB12:
 141:Drivers/CMSIS/Include/cmsis_gcc.h **** {
 142:Drivers/CMSIS/Include/cmsis_gcc.h ****   __ASM volatile ("cpsid i" : : : "memory");
 1233              		.loc 2 142 3 view .LVU275
 1234              		.syntax unified
 1235              	@ 142 "Drivers/CMSIS/Include/cmsis_gcc.h" 1
 1236 0000 72B6     		cpsid i
 1237              	@ 0 "" 2
 1238              		.thumb
 1239              		.syntax unified
 1240              	.L55:
 1241              	.LBE12:
 1242              	.LBE11:
 689:Core/Src/main.c ****   while (1)
 1243              		.loc 1 689 3 discriminator 1 view .LVU276
 690:Core/Src/main.c ****   {
 691:Core/Src/main.c ****   }
 1244              		.loc 1 691 3 discriminator 1 view .LVU277
 689:Core/Src/main.c ****   while (1)
 1245              		.loc 1 689 9 discriminator 1 view .LVU278
 1246 0002 FEE7     		b	.L55
 1247              		.cfi_endproc
 1248              	.LFE151:
ARM GAS  C:\Users\jdcox\AppData\Local\Temp\ccRYgA8S.s 			page 42


 1250              		.section	.text.MX_SPI1_Init,"ax",%progbits
 1251              		.align	1
 1252              		.syntax unified
 1253              		.thumb
 1254              		.thumb_func
 1256              	MX_SPI1_Init:
 1257              	.LFB141:
 285:Core/Src/main.c **** 
 1258              		.loc 1 285 1 view -0
 1259              		.cfi_startproc
 1260              		@ args = 0, pretend = 0, frame = 0
 1261              		@ frame_needed = 0, uses_anonymous_args = 0
 1262 0000 08B5     		push	{r3, lr}
 1263              	.LCFI11:
 1264              		.cfi_def_cfa_offset 8
 1265              		.cfi_offset 3, -8
 1266              		.cfi_offset 14, -4
 295:Core/Src/main.c ****   hspi1.Init.Mode = SPI_MODE_MASTER;
 1267              		.loc 1 295 3 view .LVU280
 295:Core/Src/main.c ****   hspi1.Init.Mode = SPI_MODE_MASTER;
 1268              		.loc 1 295 18 is_stmt 0 view .LVU281
 1269 0002 0D48     		ldr	r0, .L60
 1270 0004 0D4B     		ldr	r3, .L60+4
 1271 0006 0360     		str	r3, [r0]
 296:Core/Src/main.c ****   hspi1.Init.Direction = SPI_DIRECTION_2LINES;
 1272              		.loc 1 296 3 is_stmt 1 view .LVU282
 296:Core/Src/main.c ****   hspi1.Init.Direction = SPI_DIRECTION_2LINES;
 1273              		.loc 1 296 19 is_stmt 0 view .LVU283
 1274 0008 4FF48273 		mov	r3, #260
 1275 000c 4360     		str	r3, [r0, #4]
 297:Core/Src/main.c ****   hspi1.Init.DataSize = SPI_DATASIZE_8BIT;
 1276              		.loc 1 297 3 is_stmt 1 view .LVU284
 297:Core/Src/main.c ****   hspi1.Init.DataSize = SPI_DATASIZE_8BIT;
 1277              		.loc 1 297 24 is_stmt 0 view .LVU285
 1278 000e 0023     		movs	r3, #0
 1279 0010 8360     		str	r3, [r0, #8]
 298:Core/Src/main.c ****   hspi1.Init.CLKPolarity = SPI_POLARITY_LOW;
 1280              		.loc 1 298 3 is_stmt 1 view .LVU286
 298:Core/Src/main.c ****   hspi1.Init.CLKPolarity = SPI_POLARITY_LOW;
 1281              		.loc 1 298 23 is_stmt 0 view .LVU287
 1282 0012 C360     		str	r3, [r0, #12]
 299:Core/Src/main.c ****   hspi1.Init.CLKPhase = SPI_PHASE_1EDGE;
 1283              		.loc 1 299 3 is_stmt 1 view .LVU288
 299:Core/Src/main.c ****   hspi1.Init.CLKPhase = SPI_PHASE_1EDGE;
 1284              		.loc 1 299 26 is_stmt 0 view .LVU289
 1285 0014 0361     		str	r3, [r0, #16]
 300:Core/Src/main.c ****   hspi1.Init.NSS = SPI_NSS_SOFT;
 1286              		.loc 1 300 3 is_stmt 1 view .LVU290
 300:Core/Src/main.c ****   hspi1.Init.NSS = SPI_NSS_SOFT;
 1287              		.loc 1 300 23 is_stmt 0 view .LVU291
 1288 0016 4361     		str	r3, [r0, #20]
 301:Core/Src/main.c ****   hspi1.Init.BaudRatePrescaler = SPI_BAUDRATEPRESCALER_16;
 1289              		.loc 1 301 3 is_stmt 1 view .LVU292
 301:Core/Src/main.c ****   hspi1.Init.BaudRatePrescaler = SPI_BAUDRATEPRESCALER_16;
 1290              		.loc 1 301 18 is_stmt 0 view .LVU293
 1291 0018 4FF40072 		mov	r2, #512
 1292 001c 8261     		str	r2, [r0, #24]
ARM GAS  C:\Users\jdcox\AppData\Local\Temp\ccRYgA8S.s 			page 43


 302:Core/Src/main.c ****   hspi1.Init.FirstBit = SPI_FIRSTBIT_MSB;
 1293              		.loc 1 302 3 is_stmt 1 view .LVU294
 302:Core/Src/main.c ****   hspi1.Init.FirstBit = SPI_FIRSTBIT_MSB;
 1294              		.loc 1 302 32 is_stmt 0 view .LVU295
 1295 001e 1822     		movs	r2, #24
 1296 0020 C261     		str	r2, [r0, #28]
 303:Core/Src/main.c ****   hspi1.Init.TIMode = SPI_TIMODE_DISABLE;
 1297              		.loc 1 303 3 is_stmt 1 view .LVU296
 303:Core/Src/main.c ****   hspi1.Init.TIMode = SPI_TIMODE_DISABLE;
 1298              		.loc 1 303 23 is_stmt 0 view .LVU297
 1299 0022 0362     		str	r3, [r0, #32]
 304:Core/Src/main.c ****   hspi1.Init.CRCCalculation = SPI_CRCCALCULATION_DISABLE;
 1300              		.loc 1 304 3 is_stmt 1 view .LVU298
 304:Core/Src/main.c ****   hspi1.Init.CRCCalculation = SPI_CRCCALCULATION_DISABLE;
 1301              		.loc 1 304 21 is_stmt 0 view .LVU299
 1302 0024 4362     		str	r3, [r0, #36]
 305:Core/Src/main.c ****   hspi1.Init.CRCPolynomial = 10;
 1303              		.loc 1 305 3 is_stmt 1 view .LVU300
 305:Core/Src/main.c ****   hspi1.Init.CRCPolynomial = 10;
 1304              		.loc 1 305 29 is_stmt 0 view .LVU301
 1305 0026 8362     		str	r3, [r0, #40]
 306:Core/Src/main.c ****   if (HAL_SPI_Init(&hspi1) != HAL_OK)
 1306              		.loc 1 306 3 is_stmt 1 view .LVU302
 306:Core/Src/main.c ****   if (HAL_SPI_Init(&hspi1) != HAL_OK)
 1307              		.loc 1 306 28 is_stmt 0 view .LVU303
 1308 0028 0A23     		movs	r3, #10
 1309 002a C362     		str	r3, [r0, #44]
 307:Core/Src/main.c ****   {
 1310              		.loc 1 307 3 is_stmt 1 view .LVU304
 307:Core/Src/main.c ****   {
 1311              		.loc 1 307 7 is_stmt 0 view .LVU305
 1312 002c FFF7FEFF 		bl	HAL_SPI_Init
 1313              	.LVL104:
 307:Core/Src/main.c ****   {
 1314              		.loc 1 307 6 view .LVU306
 1315 0030 00B9     		cbnz	r0, .L59
 315:Core/Src/main.c **** 
 1316              		.loc 1 315 1 view .LVU307
 1317 0032 08BD     		pop	{r3, pc}
 1318              	.L59:
 309:Core/Src/main.c ****   }
 1319              		.loc 1 309 5 is_stmt 1 view .LVU308
 1320 0034 FFF7FEFF 		bl	Error_Handler
 1321              	.LVL105:
 1322              	.L61:
 1323              		.align	2
 1324              	.L60:
 1325 0038 00000000 		.word	.LANCHOR2
 1326 003c 00300140 		.word	1073819648
 1327              		.cfi_endproc
 1328              	.LFE141:
 1330              		.section	.text.MX_I2C1_Init,"ax",%progbits
 1331              		.align	1
 1332              		.syntax unified
 1333              		.thumb
 1334              		.thumb_func
 1336              	MX_I2C1_Init:
ARM GAS  C:\Users\jdcox\AppData\Local\Temp\ccRYgA8S.s 			page 44


 1337              	.LFB140:
 251:Core/Src/main.c **** 
 1338              		.loc 1 251 1 view -0
 1339              		.cfi_startproc
 1340              		@ args = 0, pretend = 0, frame = 0
 1341              		@ frame_needed = 0, uses_anonymous_args = 0
 1342 0000 08B5     		push	{r3, lr}
 1343              	.LCFI12:
 1344              		.cfi_def_cfa_offset 8
 1345              		.cfi_offset 3, -8
 1346              		.cfi_offset 14, -4
 260:Core/Src/main.c ****   hi2c1.Init.ClockSpeed = 100000;
 1347              		.loc 1 260 3 view .LVU310
 260:Core/Src/main.c ****   hi2c1.Init.ClockSpeed = 100000;
 1348              		.loc 1 260 18 is_stmt 0 view .LVU311
 1349 0002 0B48     		ldr	r0, .L66
 1350 0004 0B4B     		ldr	r3, .L66+4
 1351 0006 0360     		str	r3, [r0]
 261:Core/Src/main.c ****   hi2c1.Init.DutyCycle = I2C_DUTYCYCLE_2;
 1352              		.loc 1 261 3 is_stmt 1 view .LVU312
 261:Core/Src/main.c ****   hi2c1.Init.DutyCycle = I2C_DUTYCYCLE_2;
 1353              		.loc 1 261 25 is_stmt 0 view .LVU313
 1354 0008 0B4B     		ldr	r3, .L66+8
 1355 000a 4360     		str	r3, [r0, #4]
 262:Core/Src/main.c ****   hi2c1.Init.OwnAddress1 = 78;
 1356              		.loc 1 262 3 is_stmt 1 view .LVU314
 262:Core/Src/main.c ****   hi2c1.Init.OwnAddress1 = 78;
 1357              		.loc 1 262 24 is_stmt 0 view .LVU315
 1358 000c 0023     		movs	r3, #0
 1359 000e 8360     		str	r3, [r0, #8]
 263:Core/Src/main.c ****   hi2c1.Init.AddressingMode = I2C_ADDRESSINGMODE_7BIT;
 1360              		.loc 1 263 3 is_stmt 1 view .LVU316
 263:Core/Src/main.c ****   hi2c1.Init.AddressingMode = I2C_ADDRESSINGMODE_7BIT;
 1361              		.loc 1 263 26 is_stmt 0 view .LVU317
 1362 0010 4E22     		movs	r2, #78
 1363 0012 C260     		str	r2, [r0, #12]
 264:Core/Src/main.c ****   hi2c1.Init.DualAddressMode = I2C_DUALADDRESS_DISABLE;
 1364              		.loc 1 264 3 is_stmt 1 view .LVU318
 264:Core/Src/main.c ****   hi2c1.Init.DualAddressMode = I2C_DUALADDRESS_DISABLE;
 1365              		.loc 1 264 29 is_stmt 0 view .LVU319
 1366 0014 4FF48042 		mov	r2, #16384
 1367 0018 0261     		str	r2, [r0, #16]
 265:Core/Src/main.c ****   hi2c1.Init.OwnAddress2 = 0;
 1368              		.loc 1 265 3 is_stmt 1 view .LVU320
 265:Core/Src/main.c ****   hi2c1.Init.OwnAddress2 = 0;
 1369              		.loc 1 265 30 is_stmt 0 view .LVU321
 1370 001a 4361     		str	r3, [r0, #20]
 266:Core/Src/main.c ****   hi2c1.Init.GeneralCallMode = I2C_GENERALCALL_DISABLE;
 1371              		.loc 1 266 3 is_stmt 1 view .LVU322
 266:Core/Src/main.c ****   hi2c1.Init.GeneralCallMode = I2C_GENERALCALL_DISABLE;
 1372              		.loc 1 266 26 is_stmt 0 view .LVU323
 1373 001c 8361     		str	r3, [r0, #24]
 267:Core/Src/main.c ****   hi2c1.Init.NoStretchMode = I2C_NOSTRETCH_DISABLE;
 1374              		.loc 1 267 3 is_stmt 1 view .LVU324
 267:Core/Src/main.c ****   hi2c1.Init.NoStretchMode = I2C_NOSTRETCH_DISABLE;
 1375              		.loc 1 267 30 is_stmt 0 view .LVU325
 1376 001e C361     		str	r3, [r0, #28]
ARM GAS  C:\Users\jdcox\AppData\Local\Temp\ccRYgA8S.s 			page 45


 268:Core/Src/main.c ****   if (HAL_I2C_Init(&hi2c1) != HAL_OK)
 1377              		.loc 1 268 3 is_stmt 1 view .LVU326
 268:Core/Src/main.c ****   if (HAL_I2C_Init(&hi2c1) != HAL_OK)
 1378              		.loc 1 268 28 is_stmt 0 view .LVU327
 1379 0020 0362     		str	r3, [r0, #32]
 269:Core/Src/main.c ****   {
 1380              		.loc 1 269 3 is_stmt 1 view .LVU328
 269:Core/Src/main.c ****   {
 1381              		.loc 1 269 7 is_stmt 0 view .LVU329
 1382 0022 FFF7FEFF 		bl	HAL_I2C_Init
 1383              	.LVL106:
 269:Core/Src/main.c ****   {
 1384              		.loc 1 269 6 view .LVU330
 1385 0026 00B9     		cbnz	r0, .L65
 277:Core/Src/main.c **** 
 1386              		.loc 1 277 1 view .LVU331
 1387 0028 08BD     		pop	{r3, pc}
 1388              	.L65:
 271:Core/Src/main.c ****   }
 1389              		.loc 1 271 5 is_stmt 1 view .LVU332
 1390 002a FFF7FEFF 		bl	Error_Handler
 1391              	.LVL107:
 1392              	.L67:
 1393 002e 00BF     		.align	2
 1394              	.L66:
 1395 0030 00000000 		.word	.LANCHOR5
 1396 0034 00540040 		.word	1073763328
 1397 0038 A0860100 		.word	100000
 1398              		.cfi_endproc
 1399              	.LFE140:
 1401              		.section	.text.SystemClock_Config,"ax",%progbits
 1402              		.align	1
 1403              		.global	SystemClock_Config
 1404              		.syntax unified
 1405              		.thumb
 1406              		.thumb_func
 1408              	SystemClock_Config:
 1409              	.LFB139:
 205:Core/Src/main.c ****   RCC_OscInitTypeDef RCC_OscInitStruct = {0};
 1410              		.loc 1 205 1 view -0
 1411              		.cfi_startproc
 1412              		@ args = 0, pretend = 0, frame = 80
 1413              		@ frame_needed = 0, uses_anonymous_args = 0
 1414 0000 00B5     		push	{lr}
 1415              	.LCFI13:
 1416              		.cfi_def_cfa_offset 4
 1417              		.cfi_offset 14, -4
 1418 0002 95B0     		sub	sp, sp, #84
 1419              	.LCFI14:
 1420              		.cfi_def_cfa_offset 88
 206:Core/Src/main.c ****   RCC_ClkInitTypeDef RCC_ClkInitStruct = {0};
 1421              		.loc 1 206 3 view .LVU334
 206:Core/Src/main.c ****   RCC_ClkInitTypeDef RCC_ClkInitStruct = {0};
 1422              		.loc 1 206 22 is_stmt 0 view .LVU335
 1423 0004 3022     		movs	r2, #48
 1424 0006 0021     		movs	r1, #0
 1425 0008 08A8     		add	r0, sp, #32
ARM GAS  C:\Users\jdcox\AppData\Local\Temp\ccRYgA8S.s 			page 46


 1426 000a FFF7FEFF 		bl	memset
 1427              	.LVL108:
 207:Core/Src/main.c **** 
 1428              		.loc 1 207 3 is_stmt 1 view .LVU336
 207:Core/Src/main.c **** 
 1429              		.loc 1 207 22 is_stmt 0 view .LVU337
 1430 000e 0023     		movs	r3, #0
 1431 0010 0393     		str	r3, [sp, #12]
 1432 0012 0493     		str	r3, [sp, #16]
 1433 0014 0593     		str	r3, [sp, #20]
 1434 0016 0693     		str	r3, [sp, #24]
 1435 0018 0793     		str	r3, [sp, #28]
 211:Core/Src/main.c ****   __HAL_PWR_VOLTAGESCALING_CONFIG(PWR_REGULATOR_VOLTAGE_SCALE2);
 1436              		.loc 1 211 3 is_stmt 1 view .LVU338
 1437              	.LBB13:
 211:Core/Src/main.c ****   __HAL_PWR_VOLTAGESCALING_CONFIG(PWR_REGULATOR_VOLTAGE_SCALE2);
 1438              		.loc 1 211 3 view .LVU339
 1439 001a 0193     		str	r3, [sp, #4]
 211:Core/Src/main.c ****   __HAL_PWR_VOLTAGESCALING_CONFIG(PWR_REGULATOR_VOLTAGE_SCALE2);
 1440              		.loc 1 211 3 view .LVU340
 1441 001c 214A     		ldr	r2, .L74
 1442 001e 116C     		ldr	r1, [r2, #64]
 1443 0020 41F08051 		orr	r1, r1, #268435456
 1444 0024 1164     		str	r1, [r2, #64]
 211:Core/Src/main.c ****   __HAL_PWR_VOLTAGESCALING_CONFIG(PWR_REGULATOR_VOLTAGE_SCALE2);
 1445              		.loc 1 211 3 view .LVU341
 1446 0026 126C     		ldr	r2, [r2, #64]
 1447 0028 02F08052 		and	r2, r2, #268435456
 1448 002c 0192     		str	r2, [sp, #4]
 211:Core/Src/main.c ****   __HAL_PWR_VOLTAGESCALING_CONFIG(PWR_REGULATOR_VOLTAGE_SCALE2);
 1449              		.loc 1 211 3 view .LVU342
 1450 002e 019A     		ldr	r2, [sp, #4]
 1451              	.LBE13:
 211:Core/Src/main.c ****   __HAL_PWR_VOLTAGESCALING_CONFIG(PWR_REGULATOR_VOLTAGE_SCALE2);
 1452              		.loc 1 211 3 view .LVU343
 212:Core/Src/main.c **** 
 1453              		.loc 1 212 3 view .LVU344
 1454              	.LBB14:
 212:Core/Src/main.c **** 
 1455              		.loc 1 212 3 view .LVU345
 1456 0030 0293     		str	r3, [sp, #8]
 212:Core/Src/main.c **** 
 1457              		.loc 1 212 3 view .LVU346
 1458 0032 1D4A     		ldr	r2, .L74+4
 1459 0034 1368     		ldr	r3, [r2]
 1460 0036 23F44043 		bic	r3, r3, #49152
 1461 003a 43F40043 		orr	r3, r3, #32768
 1462 003e 1360     		str	r3, [r2]
 212:Core/Src/main.c **** 
 1463              		.loc 1 212 3 view .LVU347
 1464 0040 1368     		ldr	r3, [r2]
 1465 0042 03F44043 		and	r3, r3, #49152
 1466 0046 0293     		str	r3, [sp, #8]
 212:Core/Src/main.c **** 
 1467              		.loc 1 212 3 view .LVU348
 1468 0048 029B     		ldr	r3, [sp, #8]
 1469              	.LBE14:
ARM GAS  C:\Users\jdcox\AppData\Local\Temp\ccRYgA8S.s 			page 47


 212:Core/Src/main.c **** 
 1470              		.loc 1 212 3 view .LVU349
 217:Core/Src/main.c ****   RCC_OscInitStruct.HSEState = RCC_HSE_ON;
 1471              		.loc 1 217 3 view .LVU350
 217:Core/Src/main.c ****   RCC_OscInitStruct.HSEState = RCC_HSE_ON;
 1472              		.loc 1 217 36 is_stmt 0 view .LVU351
 1473 004a 0123     		movs	r3, #1
 1474 004c 0893     		str	r3, [sp, #32]
 218:Core/Src/main.c ****   RCC_OscInitStruct.PLL.PLLState = RCC_PLL_ON;
 1475              		.loc 1 218 3 is_stmt 1 view .LVU352
 218:Core/Src/main.c ****   RCC_OscInitStruct.PLL.PLLState = RCC_PLL_ON;
 1476              		.loc 1 218 30 is_stmt 0 view .LVU353
 1477 004e 4FF48033 		mov	r3, #65536
 1478 0052 0993     		str	r3, [sp, #36]
 219:Core/Src/main.c ****   RCC_OscInitStruct.PLL.PLLSource = RCC_PLLSOURCE_HSE;
 1479              		.loc 1 219 3 is_stmt 1 view .LVU354
 219:Core/Src/main.c ****   RCC_OscInitStruct.PLL.PLLSource = RCC_PLLSOURCE_HSE;
 1480              		.loc 1 219 34 is_stmt 0 view .LVU355
 1481 0054 0223     		movs	r3, #2
 1482 0056 0E93     		str	r3, [sp, #56]
 220:Core/Src/main.c ****   RCC_OscInitStruct.PLL.PLLM = 25;
 1483              		.loc 1 220 3 is_stmt 1 view .LVU356
 220:Core/Src/main.c ****   RCC_OscInitStruct.PLL.PLLM = 25;
 1484              		.loc 1 220 35 is_stmt 0 view .LVU357
 1485 0058 4FF48003 		mov	r3, #4194304
 1486 005c 0F93     		str	r3, [sp, #60]
 221:Core/Src/main.c ****   RCC_OscInitStruct.PLL.PLLN = 336;
 1487              		.loc 1 221 3 is_stmt 1 view .LVU358
 221:Core/Src/main.c ****   RCC_OscInitStruct.PLL.PLLN = 336;
 1488              		.loc 1 221 30 is_stmt 0 view .LVU359
 1489 005e 1923     		movs	r3, #25
 1490 0060 1093     		str	r3, [sp, #64]
 222:Core/Src/main.c ****   RCC_OscInitStruct.PLL.PLLP = RCC_PLLP_DIV4;
 1491              		.loc 1 222 3 is_stmt 1 view .LVU360
 222:Core/Src/main.c ****   RCC_OscInitStruct.PLL.PLLP = RCC_PLLP_DIV4;
 1492              		.loc 1 222 30 is_stmt 0 view .LVU361
 1493 0062 4FF4A873 		mov	r3, #336
 1494 0066 1193     		str	r3, [sp, #68]
 223:Core/Src/main.c ****   RCC_OscInitStruct.PLL.PLLQ = 7;
 1495              		.loc 1 223 3 is_stmt 1 view .LVU362
 223:Core/Src/main.c ****   RCC_OscInitStruct.PLL.PLLQ = 7;
 1496              		.loc 1 223 30 is_stmt 0 view .LVU363
 1497 0068 0423     		movs	r3, #4
 1498 006a 1293     		str	r3, [sp, #72]
 224:Core/Src/main.c ****   if (HAL_RCC_OscConfig(&RCC_OscInitStruct) != HAL_OK)
 1499              		.loc 1 224 3 is_stmt 1 view .LVU364
 224:Core/Src/main.c ****   if (HAL_RCC_OscConfig(&RCC_OscInitStruct) != HAL_OK)
 1500              		.loc 1 224 30 is_stmt 0 view .LVU365
 1501 006c 0723     		movs	r3, #7
 1502 006e 1393     		str	r3, [sp, #76]
 225:Core/Src/main.c ****   {
 1503              		.loc 1 225 3 is_stmt 1 view .LVU366
 225:Core/Src/main.c ****   {
 1504              		.loc 1 225 7 is_stmt 0 view .LVU367
 1505 0070 08A8     		add	r0, sp, #32
 1506 0072 FFF7FEFF 		bl	HAL_RCC_OscConfig
 1507              	.LVL109:
ARM GAS  C:\Users\jdcox\AppData\Local\Temp\ccRYgA8S.s 			page 48


 225:Core/Src/main.c ****   {
 1508              		.loc 1 225 6 view .LVU368
 1509 0076 80B9     		cbnz	r0, .L72
 232:Core/Src/main.c ****                               |RCC_CLOCKTYPE_PCLK1|RCC_CLOCKTYPE_PCLK2;
 1510              		.loc 1 232 3 is_stmt 1 view .LVU369
 232:Core/Src/main.c ****                               |RCC_CLOCKTYPE_PCLK1|RCC_CLOCKTYPE_PCLK2;
 1511              		.loc 1 232 31 is_stmt 0 view .LVU370
 1512 0078 0F23     		movs	r3, #15
 1513 007a 0393     		str	r3, [sp, #12]
 234:Core/Src/main.c ****   RCC_ClkInitStruct.AHBCLKDivider = RCC_SYSCLK_DIV1;
 1514              		.loc 1 234 3 is_stmt 1 view .LVU371
 234:Core/Src/main.c ****   RCC_ClkInitStruct.AHBCLKDivider = RCC_SYSCLK_DIV1;
 1515              		.loc 1 234 34 is_stmt 0 view .LVU372
 1516 007c 0221     		movs	r1, #2
 1517 007e 0491     		str	r1, [sp, #16]
 235:Core/Src/main.c ****   RCC_ClkInitStruct.APB1CLKDivider = RCC_HCLK_DIV2;
 1518              		.loc 1 235 3 is_stmt 1 view .LVU373
 235:Core/Src/main.c ****   RCC_ClkInitStruct.APB1CLKDivider = RCC_HCLK_DIV2;
 1519              		.loc 1 235 35 is_stmt 0 view .LVU374
 1520 0080 0023     		movs	r3, #0
 1521 0082 0593     		str	r3, [sp, #20]
 236:Core/Src/main.c ****   RCC_ClkInitStruct.APB2CLKDivider = RCC_HCLK_DIV1;
 1522              		.loc 1 236 3 is_stmt 1 view .LVU375
 236:Core/Src/main.c ****   RCC_ClkInitStruct.APB2CLKDivider = RCC_HCLK_DIV1;
 1523              		.loc 1 236 36 is_stmt 0 view .LVU376
 1524 0084 4FF48052 		mov	r2, #4096
 1525 0088 0692     		str	r2, [sp, #24]
 237:Core/Src/main.c **** 
 1526              		.loc 1 237 3 is_stmt 1 view .LVU377
 237:Core/Src/main.c **** 
 1527              		.loc 1 237 36 is_stmt 0 view .LVU378
 1528 008a 0793     		str	r3, [sp, #28]
 239:Core/Src/main.c ****   {
 1529              		.loc 1 239 3 is_stmt 1 view .LVU379
 239:Core/Src/main.c ****   {
 1530              		.loc 1 239 7 is_stmt 0 view .LVU380
 1531 008c 03A8     		add	r0, sp, #12
 1532 008e FFF7FEFF 		bl	HAL_RCC_ClockConfig
 1533              	.LVL110:
 239:Core/Src/main.c ****   {
 1534              		.loc 1 239 6 view .LVU381
 1535 0092 20B9     		cbnz	r0, .L73
 243:Core/Src/main.c **** 
 1536              		.loc 1 243 1 view .LVU382
 1537 0094 15B0     		add	sp, sp, #84
 1538              	.LCFI15:
 1539              		.cfi_remember_state
 1540              		.cfi_def_cfa_offset 4
 1541              		@ sp needed
 1542 0096 5DF804FB 		ldr	pc, [sp], #4
 1543              	.L72:
 1544              	.LCFI16:
 1545              		.cfi_restore_state
 227:Core/Src/main.c ****   }
 1546              		.loc 1 227 5 is_stmt 1 view .LVU383
 1547 009a FFF7FEFF 		bl	Error_Handler
 1548              	.LVL111:
ARM GAS  C:\Users\jdcox\AppData\Local\Temp\ccRYgA8S.s 			page 49


 1549              	.L73:
 241:Core/Src/main.c ****   }
 1550              		.loc 1 241 5 view .LVU384
 1551 009e FFF7FEFF 		bl	Error_Handler
 1552              	.LVL112:
 1553              	.L75:
 1554 00a2 00BF     		.align	2
 1555              	.L74:
 1556 00a4 00380240 		.word	1073887232
 1557 00a8 00700040 		.word	1073770496
 1558              		.cfi_endproc
 1559              	.LFE139:
 1561              		.section	.text.main,"ax",%progbits
 1562              		.align	1
 1563              		.global	main
 1564              		.syntax unified
 1565              		.thumb
 1566              		.thumb_func
 1568              	main:
 1569              	.LFB138:
  99:Core/Src/main.c ****   /* USER CODE BEGIN 1 */
 1570              		.loc 1 99 1 view -0
 1571              		.cfi_startproc
 1572              		@ Volatile: function does not return.
 1573              		@ args = 0, pretend = 0, frame = 80
 1574              		@ frame_needed = 0, uses_anonymous_args = 0
 1575 0000 00B5     		push	{lr}
 1576              	.LCFI17:
 1577              		.cfi_def_cfa_offset 4
 1578              		.cfi_offset 14, -4
 1579 0002 95B0     		sub	sp, sp, #84
 1580              	.LCFI18:
 1581              		.cfi_def_cfa_offset 88
 107:Core/Src/main.c **** 
 1582              		.loc 1 107 3 view .LVU386
 1583 0004 FFF7FEFF 		bl	HAL_Init
 1584              	.LVL113:
 114:Core/Src/main.c **** 
 1585              		.loc 1 114 3 view .LVU387
 1586 0008 FFF7FEFF 		bl	SystemClock_Config
 1587              	.LVL114:
 121:Core/Src/main.c ****   MX_DMA_Init();
 1588              		.loc 1 121 3 view .LVU388
 1589 000c FFF7FEFF 		bl	MX_GPIO_Init
 1590              	.LVL115:
 122:Core/Src/main.c ****   MX_SPI1_Init();
 1591              		.loc 1 122 3 view .LVU389
 1592 0010 FFF7FEFF 		bl	MX_DMA_Init
 1593              	.LVL116:
 123:Core/Src/main.c ****   MX_I2C1_Init();
 1594              		.loc 1 123 3 view .LVU390
 1595 0014 FFF7FEFF 		bl	MX_SPI1_Init
 1596              	.LVL117:
 124:Core/Src/main.c ****   /* USER CODE BEGIN 2 */
 1597              		.loc 1 124 3 view .LVU391
 1598 0018 FFF7FEFF 		bl	MX_I2C1_Init
 1599              	.LVL118:
ARM GAS  C:\Users\jdcox\AppData\Local\Temp\ccRYgA8S.s 			page 50


 139:Core/Src/main.c **** 
 1600              		.loc 1 139 3 view .LVU392
 139:Core/Src/main.c **** 
 1601              		.loc 1 139 16 is_stmt 0 view .LVU393
 1602 001c 0120     		movs	r0, #1
 1603 001e FFF7FEFF 		bl	xQueueCreateMutex
 1604              	.LVL119:
 139:Core/Src/main.c **** 
 1605              		.loc 1 139 14 view .LVU394
 1606 0022 244B     		ldr	r3, .L79
 1607 0024 1860     		str	r0, [r3]
 149:Core/Src/main.c ****   msTickHandle = osTimerCreate(osTimer(msTick), osTimerPeriodic, NULL);
 1608              		.loc 1 149 3 is_stmt 1 view .LVU395
 1609 0026 244B     		ldr	r3, .L79+4
 1610 0028 1293     		str	r3, [sp, #72]
 1611 002a 0025     		movs	r5, #0
 1612 002c 1395     		str	r5, [sp, #76]
 150:Core/Src/main.c **** 
 1613              		.loc 1 150 3 view .LVU396
 150:Core/Src/main.c **** 
 1614              		.loc 1 150 18 is_stmt 0 view .LVU397
 1615 002e 2A46     		mov	r2, r5
 1616 0030 0121     		movs	r1, #1
 1617 0032 12A8     		add	r0, sp, #72
 1618 0034 FFF7FEFF 		bl	osTimerCreate
 1619              	.LVL120:
 150:Core/Src/main.c **** 
 1620              		.loc 1 150 16 view .LVU398
 1621 0038 204B     		ldr	r3, .L79+8
 1622 003a 1860     		str	r0, [r3]
 153:Core/Src/main.c ****   debounceTimerHandle = osTimerCreate(osTimer(debounceTimer), osTimerOnce, NULL);
 1623              		.loc 1 153 3 is_stmt 1 view .LVU399
 1624 003c 204B     		ldr	r3, .L79+12
 1625 003e 1093     		str	r3, [sp, #64]
 1626 0040 1195     		str	r5, [sp, #68]
 154:Core/Src/main.c **** 
 1627              		.loc 1 154 3 view .LVU400
 154:Core/Src/main.c **** 
 1628              		.loc 1 154 25 is_stmt 0 view .LVU401
 1629 0042 2A46     		mov	r2, r5
 1630 0044 2946     		mov	r1, r5
 1631 0046 10A8     		add	r0, sp, #64
 1632 0048 FFF7FEFF 		bl	osTimerCreate
 1633              	.LVL121:
 154:Core/Src/main.c **** 
 1634              		.loc 1 154 23 view .LVU402
 1635 004c 1D4B     		ldr	r3, .L79+16
 1636 004e 1860     		str	r0, [r3]
 157:Core/Src/main.c ****   blinkTimerHandle = osTimerCreate(osTimer(blinkTimer), osTimerOnce, NULL);
 1637              		.loc 1 157 3 is_stmt 1 view .LVU403
 1638 0050 1D4B     		ldr	r3, .L79+20
 1639 0052 0E93     		str	r3, [sp, #56]
 1640 0054 0F95     		str	r5, [sp, #60]
 158:Core/Src/main.c **** 
 1641              		.loc 1 158 3 view .LVU404
 158:Core/Src/main.c **** 
 1642              		.loc 1 158 22 is_stmt 0 view .LVU405
ARM GAS  C:\Users\jdcox\AppData\Local\Temp\ccRYgA8S.s 			page 51


 1643 0056 2A46     		mov	r2, r5
 1644 0058 2946     		mov	r1, r5
 1645 005a 0EA8     		add	r0, sp, #56
 1646 005c FFF7FEFF 		bl	osTimerCreate
 1647              	.LVL122:
 158:Core/Src/main.c **** 
 1648              		.loc 1 158 20 view .LVU406
 1649 0060 1A4B     		ldr	r3, .L79+24
 1650 0062 1860     		str	r0, [r3]
 171:Core/Src/main.c ****   defaultTaskHandle = osThreadCreate(osThread(defaultTask), NULL);
 1651              		.loc 1 171 3 is_stmt 1 view .LVU407
 1652 0064 1A4C     		ldr	r4, .L79+28
 1653 0066 0DF11C0C 		add	ip, sp, #28
 1654 006a 04F11C0E 		add	lr, r4, #28
 1655 006e BEE80F00 		ldmia	lr!, {r0, r1, r2, r3}
 1656 0072 ACE80F00 		stmia	ip!, {r0, r1, r2, r3}
 1657 0076 9EE80700 		ldm	lr, {r0, r1, r2}
 1658 007a 8CE80700 		stm	ip, {r0, r1, r2}
 172:Core/Src/main.c **** 
 1659              		.loc 1 172 3 view .LVU408
 172:Core/Src/main.c **** 
 1660              		.loc 1 172 23 is_stmt 0 view .LVU409
 1661 007e 2946     		mov	r1, r5
 1662 0080 07A8     		add	r0, sp, #28
 1663 0082 FFF7FEFF 		bl	osThreadCreate
 1664              	.LVL123:
 172:Core/Src/main.c **** 
 1665              		.loc 1 172 21 view .LVU410
 1666 0086 134B     		ldr	r3, .L79+32
 1667 0088 1860     		str	r0, [r3]
 178:Core/Src/main.c ****   displayTaskHandle = osThreadCreate(osThread(displayTask), NULL);
 1668              		.loc 1 178 3 is_stmt 1 view .LVU411
 1669 008a EE46     		mov	lr, sp
 1670 008c 04F1380C 		add	ip, r4, #56
 1671 0090 BCE80F00 		ldmia	ip!, {r0, r1, r2, r3}
 1672 0094 AEE80F00 		stmia	lr!, {r0, r1, r2, r3}
 1673 0098 9CE80700 		ldm	ip, {r0, r1, r2}
 1674 009c 8EE80700 		stm	lr, {r0, r1, r2}
 179:Core/Src/main.c **** 
 1675              		.loc 1 179 3 view .LVU412
 179:Core/Src/main.c **** 
 1676              		.loc 1 179 23 is_stmt 0 view .LVU413
 1677 00a0 2946     		mov	r1, r5
 1678 00a2 6846     		mov	r0, sp
 1679 00a4 FFF7FEFF 		bl	osThreadCreate
 1680              	.LVL124:
 179:Core/Src/main.c **** 
 1681              		.loc 1 179 21 view .LVU414
 1682 00a8 0B4B     		ldr	r3, .L79+36
 1683 00aa 1860     		str	r0, [r3]
 186:Core/Src/main.c **** 
 1684              		.loc 1 186 3 is_stmt 1 view .LVU415
 1685 00ac FFF7FEFF 		bl	osKernelStart
 1686              	.LVL125:
 1687              	.L77:
 191:Core/Src/main.c ****   {
 1688              		.loc 1 191 3 discriminator 1 view .LVU416
ARM GAS  C:\Users\jdcox\AppData\Local\Temp\ccRYgA8S.s 			page 52


 196:Core/Src/main.c ****   /* USER CODE END 3 */
 1689              		.loc 1 196 3 discriminator 1 view .LVU417
 191:Core/Src/main.c ****   {
 1690              		.loc 1 191 9 discriminator 1 view .LVU418
 1691 00b0 FEE7     		b	.L77
 1692              	.L80:
 1693 00b2 00BF     		.align	2
 1694              	.L79:
 1695 00b4 00000000 		.word	.LANCHOR0
 1696 00b8 00000000 		.word	msTickCallback
 1697 00bc 00000000 		.word	.LANCHOR6
 1698 00c0 00000000 		.word	debounceCallback
 1699 00c4 00000000 		.word	.LANCHOR7
 1700 00c8 00000000 		.word	blinkTimerCallback
 1701 00cc 00000000 		.word	.LANCHOR8
 1702 00d0 00000000 		.word	.LANCHOR3
 1703 00d4 00000000 		.word	.LANCHOR9
 1704 00d8 00000000 		.word	.LANCHOR10
 1705              		.cfi_endproc
 1706              	.LFE138:
 1708              		.section	.rodata.str1.4,"aMS",%progbits,1
 1709              		.align	2
 1710              	.LC4:
 1711 0000 6C6F7261 		.ascii	"loraRXTask\000"
 1711      52585461 
 1711      736B00
 1712 000b 00       		.align	2
 1713              	.LC2:
 1714 000c 64697370 		.ascii	"displayTask\000"
 1714      6C617954 
 1714      61736B00 
 1715              		.align	2
 1716              	.LC0:
 1717 0018 64656661 		.ascii	"defaultTask\000"
 1717      756C7454 
 1717      61736B00 
 1718              		.global	myLoRa
 1719              		.global	xloraMutex
 1720              		.global	lora_mutexHandle
 1721              		.global	blinkTimerHandle
 1722              		.global	debounceTimerHandle
 1723              		.global	msTickHandle
 1724              		.global	displayTaskHandle
 1725              		.global	loraRXTaskHandle
 1726              		.global	defaultTaskHandle
 1727              		.global	hdma_spi1_rx
 1728              		.global	hdma_spi1_tx
 1729              		.global	hspi1
 1730              		.global	hdma_i2c1_tx
 1731              		.global	hi2c1
 1732              		.section	.rodata
 1733              		.align	2
 1734              		.set	.LANCHOR3,. + 0
 1735              	.LC7:
 1736 0000 00000000 		.word	.LC4
 1737 0004 00000000 		.word	StartLoraRXTask
 1738 0008 0100     		.short	1
ARM GAS  C:\Users\jdcox\AppData\Local\Temp\ccRYgA8S.s 			page 53


 1739 000a 0000     		.space	2
 1740 000c 00000000 		.word	0
 1741 0010 80000000 		.word	128
 1742 0014 00000000 		.word	0
 1743 0018 00000000 		.word	0
 1744              	.LC20:
 1745 001c 18000000 		.word	.LC0
 1746 0020 00000000 		.word	StartDefaultTask
 1747 0024 0000     		.short	0
 1748 0026 0000     		.space	2
 1749 0028 00000000 		.word	0
 1750 002c 80000000 		.word	128
 1751 0030 00000000 		.word	0
 1752 0034 00000000 		.word	0
 1753              	.LC21:
 1754 0038 0C000000 		.word	.LC2
 1755 003c 00000000 		.word	StartDisplayTask
 1756 0040 0000     		.short	0
 1757 0042 0000     		.space	2
 1758 0044 00000000 		.word	0
 1759 0048 80000000 		.word	128
 1760 004c 00000000 		.word	0
 1761 0050 00000000 		.word	0
 1762              		.section	.bss.blinkTimerHandle,"aw",%nobits
 1763              		.align	2
 1764              		.set	.LANCHOR8,. + 0
 1767              	blinkTimerHandle:
 1768 0000 00000000 		.space	4
 1769              		.section	.bss.debounceTimerHandle,"aw",%nobits
 1770              		.align	2
 1771              		.set	.LANCHOR7,. + 0
 1774              	debounceTimerHandle:
 1775 0000 00000000 		.space	4
 1776              		.section	.bss.defaultTaskHandle,"aw",%nobits
 1777              		.align	2
 1778              		.set	.LANCHOR9,. + 0
 1781              	defaultTaskHandle:
 1782 0000 00000000 		.space	4
 1783              		.section	.bss.displayTaskHandle,"aw",%nobits
 1784              		.align	2
 1785              		.set	.LANCHOR10,. + 0
 1788              	displayTaskHandle:
 1789 0000 00000000 		.space	4
 1790              		.section	.bss.hdma_i2c1_tx,"aw",%nobits
 1791              		.align	2
 1794              	hdma_i2c1_tx:
 1795 0000 00000000 		.space	96
 1795      00000000 
 1795      00000000 
 1795      00000000 
 1795      00000000 
 1796              		.section	.bss.hdma_spi1_rx,"aw",%nobits
 1797              		.align	2
 1800              	hdma_spi1_rx:
 1801 0000 00000000 		.space	96
 1801      00000000 
 1801      00000000 
ARM GAS  C:\Users\jdcox\AppData\Local\Temp\ccRYgA8S.s 			page 54


 1801      00000000 
 1801      00000000 
 1802              		.section	.bss.hdma_spi1_tx,"aw",%nobits
 1803              		.align	2
 1806              	hdma_spi1_tx:
 1807 0000 00000000 		.space	96
 1807      00000000 
 1807      00000000 
 1807      00000000 
 1807      00000000 
 1808              		.section	.bss.hi2c1,"aw",%nobits
 1809              		.align	2
 1810              		.set	.LANCHOR5,. + 0
 1813              	hi2c1:
 1814 0000 00000000 		.space	84
 1814      00000000 
 1814      00000000 
 1814      00000000 
 1814      00000000 
 1815              		.section	.bss.hspi1,"aw",%nobits
 1816              		.align	2
 1817              		.set	.LANCHOR2,. + 0
 1820              	hspi1:
 1821 0000 00000000 		.space	88
 1821      00000000 
 1821      00000000 
 1821      00000000 
 1821      00000000 
 1822              		.section	.bss.loraRXTaskHandle,"aw",%nobits
 1823              		.align	2
 1824              		.set	.LANCHOR4,. + 0
 1827              	loraRXTaskHandle:
 1828 0000 00000000 		.space	4
 1829              		.section	.bss.lora_mutexHandle,"aw",%nobits
 1830              		.align	2
 1833              	lora_mutexHandle:
 1834 0000 00000000 		.space	4
 1835              		.section	.bss.msTickHandle,"aw",%nobits
 1836              		.align	2
 1837              		.set	.LANCHOR6,. + 0
 1840              	msTickHandle:
 1841 0000 00000000 		.space	4
 1842              		.section	.bss.myLoRa,"aw",%nobits
 1843              		.align	2
 1844              		.set	.LANCHOR1,. + 0
 1847              	myLoRa:
 1848 0000 00000000 		.space	44
 1848      00000000 
 1848      00000000 
 1848      00000000 
 1848      00000000 
 1849              		.section	.bss.xloraMutex,"aw",%nobits
 1850              		.align	2
 1851              		.set	.LANCHOR0,. + 0
 1854              	xloraMutex:
 1855 0000 00000000 		.space	4
 1856              		.text
ARM GAS  C:\Users\jdcox\AppData\Local\Temp\ccRYgA8S.s 			page 55


 1857              	.Letext0:
 1858              		.file 3 "Drivers/CMSIS/Device/ST/STM32F4xx/Include/stm32f401xc.h"
 1859              		.file 4 "c:\\libraries\\gcc\\11.2 2022.02\\arm-none-eabi\\include\\machine\\_default_types.h"
 1860              		.file 5 "c:\\libraries\\gcc\\11.2 2022.02\\arm-none-eabi\\include\\sys\\_stdint.h"
 1861              		.file 6 "Drivers/CMSIS/Device/ST/STM32F4xx/Include/stm32f4xx.h"
 1862              		.file 7 "Drivers/STM32F4xx_HAL_Driver/Inc/stm32f4xx_hal_def.h"
 1863              		.file 8 "Drivers/STM32F4xx_HAL_Driver/Inc/stm32f4xx_hal_rcc_ex.h"
 1864              		.file 9 "Drivers/STM32F4xx_HAL_Driver/Inc/stm32f4xx_hal_rcc.h"
 1865              		.file 10 "Drivers/STM32F4xx_HAL_Driver/Inc/stm32f4xx_hal_gpio.h"
 1866              		.file 11 "Drivers/STM32F4xx_HAL_Driver/Inc/stm32f4xx_hal_dma.h"
 1867              		.file 12 "Drivers/STM32F4xx_HAL_Driver/Inc/stm32f4xx_hal_i2c.h"
 1868              		.file 13 "Drivers/STM32F4xx_HAL_Driver/Inc/stm32f4xx_hal_spi.h"
 1869              		.file 14 "Drivers/STM32F4xx_HAL_Driver/Inc/stm32f4xx_hal_tim.h"
 1870              		.file 15 "Middlewares/Third_Party/FreeRTOS/Source/include/projdefs.h"
 1871              		.file 16 "Middlewares/Third_Party/FreeRTOS/Source/portable/GCC/ARM_CM4F/portmacro.h"
 1872              		.file 17 "Middlewares/Third_Party/FreeRTOS/Source/include/FreeRTOS.h"
 1873              		.file 18 "Middlewares/Third_Party/FreeRTOS/Source/include/task.h"
 1874              		.file 19 "Middlewares/Third_Party/FreeRTOS/Source/include/timers.h"
 1875              		.file 20 "Middlewares/Third_Party/FreeRTOS/Source/include/queue.h"
 1876              		.file 21 "Middlewares/Third_Party/FreeRTOS/Source/include/semphr.h"
 1877              		.file 22 "Middlewares/Third_Party/FreeRTOS/Source/CMSIS_RTOS/cmsis_os.h"
 1878              		.file 23 "Core/Inc/lora.h"
 1879              		.file 24 "Core/Inc/extern.h"
 1880              		.file 25 "Core/Inc/ssd1306_fonts.h"
 1881              		.file 26 "Core/Inc/ssd1306.h"
 1882              		.file 27 "Core/Inc/i2c-lcd.h"
 1883              		.file 28 "Drivers/STM32F4xx_HAL_Driver/Inc/stm32f4xx_hal.h"
 1884              		.file 29 "c:\\libraries\\gcc\\11.2 2022.02\\arm-none-eabi\\include\\stdio.h"
 1885              		.file 30 "Drivers/STM32F4xx_HAL_Driver/Inc/stm32f4xx_hal_cortex.h"
 1886              		.file 31 "<built-in>"
ARM GAS  C:\Users\jdcox\AppData\Local\Temp\ccRYgA8S.s 			page 56


DEFINED SYMBOLS
                            *ABS*:00000000 main.c
C:\Users\jdcox\AppData\Local\Temp\ccRYgA8S.s:20     .text.msTickCallback:00000000 $t
C:\Users\jdcox\AppData\Local\Temp\ccRYgA8S.s:26     .text.msTickCallback:00000000 msTickCallback
C:\Users\jdcox\AppData\Local\Temp\ccRYgA8S.s:101    .text.msTickCallback:00000050 $d
C:\Users\jdcox\AppData\Local\Temp\ccRYgA8S.s:110    .text.debounceCallback:00000000 $t
C:\Users\jdcox\AppData\Local\Temp\ccRYgA8S.s:116    .text.debounceCallback:00000000 debounceCallback
C:\Users\jdcox\AppData\Local\Temp\ccRYgA8S.s:134    .text.debounceCallback:00000008 $d
C:\Users\jdcox\AppData\Local\Temp\ccRYgA8S.s:139    .text.blinkTimerCallback:00000000 $t
C:\Users\jdcox\AppData\Local\Temp\ccRYgA8S.s:145    .text.blinkTimerCallback:00000000 blinkTimerCallback
C:\Users\jdcox\AppData\Local\Temp\ccRYgA8S.s:159    .text.MX_GPIO_Init:00000000 $t
C:\Users\jdcox\AppData\Local\Temp\ccRYgA8S.s:164    .text.MX_GPIO_Init:00000000 MX_GPIO_Init
C:\Users\jdcox\AppData\Local\Temp\ccRYgA8S.s:340    .text.MX_GPIO_Init:000000d4 $d
C:\Users\jdcox\AppData\Local\Temp\ccRYgA8S.s:347    .text.MX_DMA_Init:00000000 $t
C:\Users\jdcox\AppData\Local\Temp\ccRYgA8S.s:352    .text.MX_DMA_Init:00000000 MX_DMA_Init
C:\Users\jdcox\AppData\Local\Temp\ccRYgA8S.s:439    .text.MX_DMA_Init:00000064 $d
C:\Users\jdcox\AppData\Local\Temp\ccRYgA8S.s:444    .text.StartDisplayTask:00000000 $t
C:\Users\jdcox\AppData\Local\Temp\ccRYgA8S.s:450    .text.StartDisplayTask:00000000 StartDisplayTask
C:\Users\jdcox\AppData\Local\Temp\ccRYgA8S.s:477    .rodata.StartDefaultTask.str1.4:00000000 $d
C:\Users\jdcox\AppData\Local\Temp\ccRYgA8S.s:517    .text.StartDefaultTask:00000000 $t
C:\Users\jdcox\AppData\Local\Temp\ccRYgA8S.s:523    .text.StartDefaultTask:00000000 StartDefaultTask
C:\Users\jdcox\AppData\Local\Temp\ccRYgA8S.s:781    .text.StartDefaultTask:00000168 $d
C:\Users\jdcox\AppData\Local\Temp\ccRYgA8S.s:787    .text.StartDefaultTask:00000180 $t
C:\Users\jdcox\AppData\Local\Temp\ccRYgA8S.s:1044   .text.StartDefaultTask:000002f4 $d
C:\Users\jdcox\AppData\Local\Temp\ccRYgA8S.s:1076   .text.StartDefaultTask:00000360 $t
C:\Users\jdcox\AppData\Local\Temp\ccRYgA8S.s:1115   .text.StartDefaultTask:0000039c $d
C:\Users\jdcox\AppData\Local\Temp\ccRYgA8S.s:1123   .text.StartLoraRXTask:00000000 $t
C:\Users\jdcox\AppData\Local\Temp\ccRYgA8S.s:1129   .text.StartLoraRXTask:00000000 StartLoraRXTask
C:\Users\jdcox\AppData\Local\Temp\ccRYgA8S.s:1163   .text.StartLoraRXTask:00000018 $d
C:\Users\jdcox\AppData\Local\Temp\ccRYgA8S.s:1168   .text.HAL_TIM_PeriodElapsedCallback:00000000 $t
C:\Users\jdcox\AppData\Local\Temp\ccRYgA8S.s:1174   .text.HAL_TIM_PeriodElapsedCallback:00000000 HAL_TIM_PeriodElapsedCallback
C:\Users\jdcox\AppData\Local\Temp\ccRYgA8S.s:1208   .text.HAL_TIM_PeriodElapsedCallback:00000014 $d
C:\Users\jdcox\AppData\Local\Temp\ccRYgA8S.s:1213   .text.Error_Handler:00000000 $t
C:\Users\jdcox\AppData\Local\Temp\ccRYgA8S.s:1219   .text.Error_Handler:00000000 Error_Handler
C:\Users\jdcox\AppData\Local\Temp\ccRYgA8S.s:1251   .text.MX_SPI1_Init:00000000 $t
C:\Users\jdcox\AppData\Local\Temp\ccRYgA8S.s:1256   .text.MX_SPI1_Init:00000000 MX_SPI1_Init
C:\Users\jdcox\AppData\Local\Temp\ccRYgA8S.s:1325   .text.MX_SPI1_Init:00000038 $d
C:\Users\jdcox\AppData\Local\Temp\ccRYgA8S.s:1331   .text.MX_I2C1_Init:00000000 $t
C:\Users\jdcox\AppData\Local\Temp\ccRYgA8S.s:1336   .text.MX_I2C1_Init:00000000 MX_I2C1_Init
C:\Users\jdcox\AppData\Local\Temp\ccRYgA8S.s:1395   .text.MX_I2C1_Init:00000030 $d
C:\Users\jdcox\AppData\Local\Temp\ccRYgA8S.s:1402   .text.SystemClock_Config:00000000 $t
C:\Users\jdcox\AppData\Local\Temp\ccRYgA8S.s:1408   .text.SystemClock_Config:00000000 SystemClock_Config
C:\Users\jdcox\AppData\Local\Temp\ccRYgA8S.s:1556   .text.SystemClock_Config:000000a4 $d
C:\Users\jdcox\AppData\Local\Temp\ccRYgA8S.s:1562   .text.main:00000000 $t
C:\Users\jdcox\AppData\Local\Temp\ccRYgA8S.s:1568   .text.main:00000000 main
C:\Users\jdcox\AppData\Local\Temp\ccRYgA8S.s:1695   .text.main:000000b4 $d
C:\Users\jdcox\AppData\Local\Temp\ccRYgA8S.s:1709   .rodata.str1.4:00000000 $d
C:\Users\jdcox\AppData\Local\Temp\ccRYgA8S.s:1847   .bss.myLoRa:00000000 myLoRa
C:\Users\jdcox\AppData\Local\Temp\ccRYgA8S.s:1854   .bss.xloraMutex:00000000 xloraMutex
C:\Users\jdcox\AppData\Local\Temp\ccRYgA8S.s:1833   .bss.lora_mutexHandle:00000000 lora_mutexHandle
C:\Users\jdcox\AppData\Local\Temp\ccRYgA8S.s:1767   .bss.blinkTimerHandle:00000000 blinkTimerHandle
C:\Users\jdcox\AppData\Local\Temp\ccRYgA8S.s:1774   .bss.debounceTimerHandle:00000000 debounceTimerHandle
C:\Users\jdcox\AppData\Local\Temp\ccRYgA8S.s:1840   .bss.msTickHandle:00000000 msTickHandle
C:\Users\jdcox\AppData\Local\Temp\ccRYgA8S.s:1788   .bss.displayTaskHandle:00000000 displayTaskHandle
C:\Users\jdcox\AppData\Local\Temp\ccRYgA8S.s:1827   .bss.loraRXTaskHandle:00000000 loraRXTaskHandle
C:\Users\jdcox\AppData\Local\Temp\ccRYgA8S.s:1781   .bss.defaultTaskHandle:00000000 defaultTaskHandle
C:\Users\jdcox\AppData\Local\Temp\ccRYgA8S.s:1800   .bss.hdma_spi1_rx:00000000 hdma_spi1_rx
ARM GAS  C:\Users\jdcox\AppData\Local\Temp\ccRYgA8S.s 			page 57


C:\Users\jdcox\AppData\Local\Temp\ccRYgA8S.s:1806   .bss.hdma_spi1_tx:00000000 hdma_spi1_tx
C:\Users\jdcox\AppData\Local\Temp\ccRYgA8S.s:1820   .bss.hspi1:00000000 hspi1
C:\Users\jdcox\AppData\Local\Temp\ccRYgA8S.s:1794   .bss.hdma_i2c1_tx:00000000 hdma_i2c1_tx
C:\Users\jdcox\AppData\Local\Temp\ccRYgA8S.s:1813   .bss.hi2c1:00000000 hi2c1
C:\Users\jdcox\AppData\Local\Temp\ccRYgA8S.s:1733   .rodata:00000000 $d
C:\Users\jdcox\AppData\Local\Temp\ccRYgA8S.s:1763   .bss.blinkTimerHandle:00000000 $d
C:\Users\jdcox\AppData\Local\Temp\ccRYgA8S.s:1770   .bss.debounceTimerHandle:00000000 $d
C:\Users\jdcox\AppData\Local\Temp\ccRYgA8S.s:1777   .bss.defaultTaskHandle:00000000 $d
C:\Users\jdcox\AppData\Local\Temp\ccRYgA8S.s:1784   .bss.displayTaskHandle:00000000 $d
C:\Users\jdcox\AppData\Local\Temp\ccRYgA8S.s:1791   .bss.hdma_i2c1_tx:00000000 $d
C:\Users\jdcox\AppData\Local\Temp\ccRYgA8S.s:1797   .bss.hdma_spi1_rx:00000000 $d
C:\Users\jdcox\AppData\Local\Temp\ccRYgA8S.s:1803   .bss.hdma_spi1_tx:00000000 $d
C:\Users\jdcox\AppData\Local\Temp\ccRYgA8S.s:1809   .bss.hi2c1:00000000 $d
C:\Users\jdcox\AppData\Local\Temp\ccRYgA8S.s:1816   .bss.hspi1:00000000 $d
C:\Users\jdcox\AppData\Local\Temp\ccRYgA8S.s:1823   .bss.loraRXTaskHandle:00000000 $d
C:\Users\jdcox\AppData\Local\Temp\ccRYgA8S.s:1830   .bss.lora_mutexHandle:00000000 $d
C:\Users\jdcox\AppData\Local\Temp\ccRYgA8S.s:1836   .bss.msTickHandle:00000000 $d
C:\Users\jdcox\AppData\Local\Temp\ccRYgA8S.s:1843   .bss.myLoRa:00000000 $d
C:\Users\jdcox\AppData\Local\Temp\ccRYgA8S.s:1850   .bss.xloraMutex:00000000 $d

UNDEFINED SYMBOLS
p1King_flag
p2King_flag
p1King_counter
gameState
p2King_counter
debouncing_Flag
HAL_GPIO_WritePin
HAL_GPIO_Init
HAL_NVIC_SetPriority
HAL_NVIC_EnableIRQ
osDelay
xQueueCreateMutex
newLoRa
LoRa_init
sprintf
LoRa_startReceiving
osThreadCreate
ssd1306_Init
ssd1306_SetCursor
ssd1306_WriteString
ssd1306_UpdateScreen
ssd1306_Fill
LoRa_transmit
HAL_GPIO_TogglePin
lcd_put_cur
opcodeString
debugBuddy
Font_16x24
stateChange_flag
Font_7x10
getKOTHPacket
HAL_IncTick
HAL_SPI_Init
HAL_I2C_Init
memset
HAL_RCC_OscConfig
ARM GAS  C:\Users\jdcox\AppData\Local\Temp\ccRYgA8S.s 			page 58


HAL_RCC_ClockConfig
HAL_Init
osTimerCreate
osKernelStart
