ARM GAS  C:\Users\jdcox\AppData\Local\Temp\ccHRpQhd.s 			page 1


   1              		.cpu cortex-m4
   2              		.arch armv7e-m
   3              		.fpu fpv4-sp-d16
   4              		.eabi_attribute 27, 1
   5              		.eabi_attribute 28, 1
   6              		.eabi_attribute 20, 1
   7              		.eabi_attribute 21, 1
   8              		.eabi_attribute 23, 3
   9              		.eabi_attribute 24, 1
  10              		.eabi_attribute 25, 1
  11              		.eabi_attribute 26, 1
  12              		.eabi_attribute 30, 1
  13              		.eabi_attribute 34, 1
  14              		.eabi_attribute 18, 4
  15              		.file	"main.c"
  16              		.text
  17              	.Ltext0:
  18              		.cfi_sections	.debug_frame
  19              		.section	.text.msTickCallback,"ax",%progbits
  20              		.align	1
  21              		.global	msTickCallback
  22              		.syntax unified
  23              		.thumb
  24              		.thumb_func
  26              	msTickCallback:
  27              	.LVL0:
  28              	.LFB147:
  29              		.file 1 "Core/Src/main.c"
   1:Core/Src/main.c **** /* USER CODE BEGIN Header */
   2:Core/Src/main.c **** /**
   3:Core/Src/main.c ****   ******************************************************************************
   4:Core/Src/main.c ****   * @file           : main.c
   5:Core/Src/main.c ****   * @brief          : Main program body
   6:Core/Src/main.c ****   ******************************************************************************
   7:Core/Src/main.c ****   * @attention
   8:Core/Src/main.c ****   *
   9:Core/Src/main.c ****   * Copyright (c) 2024 STMicroelectronics.
  10:Core/Src/main.c ****   * All rights reserved.
  11:Core/Src/main.c ****   *
  12:Core/Src/main.c ****   * This software is licensed under terms that can be found in the LICENSE file
  13:Core/Src/main.c ****   * in the root directory of this software component.
  14:Core/Src/main.c ****   * If no LICENSE file comes with this software, it is provided AS-IS.
  15:Core/Src/main.c ****   *
  16:Core/Src/main.c ****   ******************************************************************************
  17:Core/Src/main.c ****   */
  18:Core/Src/main.c **** /* USER CODE END Header */
  19:Core/Src/main.c **** /* Includes ------------------------------------------------------------------*/
  20:Core/Src/main.c **** #include "main.h"
  21:Core/Src/main.c **** #include "cmsis_os.h"
  22:Core/Src/main.c **** 
  23:Core/Src/main.c **** /* Private includes ----------------------------------------------------------*/
  24:Core/Src/main.c **** /* USER CODE BEGIN Includes */
  25:Core/Src/main.c **** #include "extern.h"
  26:Core/Src/main.c **** #include "i2c-lcd.h"
  27:Core/Src/main.c **** #include "lora_sx1276.h"
  28:Core/Src/main.c **** #include <string.h>
  29:Core/Src/main.c **** #include <stdio.h>
ARM GAS  C:\Users\jdcox\AppData\Local\Temp\ccHRpQhd.s 			page 2


  30:Core/Src/main.c **** #include "ssd1306.h"
  31:Core/Src/main.c **** #include "semphr.h"
  32:Core/Src/main.c **** 
  33:Core/Src/main.c **** 
  34:Core/Src/main.c **** /* USER CODE END Includes */
  35:Core/Src/main.c **** 
  36:Core/Src/main.c **** /* Private typedef -----------------------------------------------------------*/
  37:Core/Src/main.c **** /* USER CODE BEGIN PTD */
  38:Core/Src/main.c **** 
  39:Core/Src/main.c **** /* USER CODE END PTD */
  40:Core/Src/main.c **** 
  41:Core/Src/main.c **** /* Private define ------------------------------------------------------------*/
  42:Core/Src/main.c **** /* USER CODE BEGIN PD */
  43:Core/Src/main.c **** /* USER CODE END PD */
  44:Core/Src/main.c **** 
  45:Core/Src/main.c **** /* Private macro -------------------------------------------------------------*/
  46:Core/Src/main.c **** /* USER CODE BEGIN PM */
  47:Core/Src/main.c **** 
  48:Core/Src/main.c **** /* USER CODE END PM */
  49:Core/Src/main.c **** 
  50:Core/Src/main.c **** /* Private variables ---------------------------------------------------------*/
  51:Core/Src/main.c **** I2C_HandleTypeDef hi2c1;
  52:Core/Src/main.c **** DMA_HandleTypeDef hdma_i2c1_tx;
  53:Core/Src/main.c **** 
  54:Core/Src/main.c **** SPI_HandleTypeDef hspi1;
  55:Core/Src/main.c **** DMA_HandleTypeDef hdma_spi1_tx;
  56:Core/Src/main.c **** DMA_HandleTypeDef hdma_spi1_rx;
  57:Core/Src/main.c **** 
  58:Core/Src/main.c **** osThreadId defaultTaskHandle;
  59:Core/Src/main.c **** osThreadId loraRXTaskHandle;
  60:Core/Src/main.c **** osThreadId displayTaskHandle;
  61:Core/Src/main.c **** osTimerId msTickHandle;
  62:Core/Src/main.c **** osTimerId debounceTimerHandle;
  63:Core/Src/main.c **** osTimerId blinkTimerHandle;
  64:Core/Src/main.c **** osMutexId lora_mutexHandle;
  65:Core/Src/main.c **** /* USER CODE BEGIN PV */
  66:Core/Src/main.c **** SemaphoreHandle_t xloraMutex;
  67:Core/Src/main.c **** 
  68:Core/Src/main.c **** lora_sx1276 lora;
  69:Core/Src/main.c **** 
  70:Core/Src/main.c **** /* USER CODE END PV */
  71:Core/Src/main.c **** 
  72:Core/Src/main.c **** /* Private function prototypes -----------------------------------------------*/
  73:Core/Src/main.c **** void SystemClock_Config(void);
  74:Core/Src/main.c **** static void MX_GPIO_Init(void);
  75:Core/Src/main.c **** static void MX_DMA_Init(void);
  76:Core/Src/main.c **** static void MX_SPI1_Init(void);
  77:Core/Src/main.c **** static void MX_I2C1_Init(void);
  78:Core/Src/main.c **** void StartDefaultTask(void const * argument);
  79:Core/Src/main.c **** void StartLoraRXTask(void const * argument);
  80:Core/Src/main.c **** void StartDisplayTask(void const * argument);
  81:Core/Src/main.c **** void msTickCallback(void const * argument);
  82:Core/Src/main.c **** void debounceCallback(void const * argument);
  83:Core/Src/main.c **** void blinkTimerCallback(void const * argument);
  84:Core/Src/main.c **** 
  85:Core/Src/main.c **** /* USER CODE BEGIN PFP */
  86:Core/Src/main.c **** 
ARM GAS  C:\Users\jdcox\AppData\Local\Temp\ccHRpQhd.s 			page 3


  87:Core/Src/main.c **** /* USER CODE END PFP */
  88:Core/Src/main.c **** 
  89:Core/Src/main.c **** /* Private user code ---------------------------------------------------------*/
  90:Core/Src/main.c **** /* USER CODE BEGIN 0 */
  91:Core/Src/main.c **** 
  92:Core/Src/main.c **** /* USER CODE END 0 */
  93:Core/Src/main.c **** 
  94:Core/Src/main.c **** /**
  95:Core/Src/main.c ****   * @brief  The application entry point.
  96:Core/Src/main.c ****   * @retval int
  97:Core/Src/main.c ****   */
  98:Core/Src/main.c **** int main(void)
  99:Core/Src/main.c **** {
 100:Core/Src/main.c ****   /* USER CODE BEGIN 1 */
 101:Core/Src/main.c **** 
 102:Core/Src/main.c ****   /* USER CODE END 1 */
 103:Core/Src/main.c **** 
 104:Core/Src/main.c ****   /* MCU Configuration--------------------------------------------------------*/
 105:Core/Src/main.c **** 
 106:Core/Src/main.c ****   /* Reset of all peripherals, Initializes the Flash interface and the Systick. */
 107:Core/Src/main.c ****   HAL_Init();
 108:Core/Src/main.c **** 
 109:Core/Src/main.c ****   /* USER CODE BEGIN Init */
 110:Core/Src/main.c **** 
 111:Core/Src/main.c ****   /* USER CODE END Init */
 112:Core/Src/main.c **** 
 113:Core/Src/main.c ****   /* Configure the system clock */
 114:Core/Src/main.c ****   SystemClock_Config();
 115:Core/Src/main.c **** 
 116:Core/Src/main.c ****   /* USER CODE BEGIN SysInit */
 117:Core/Src/main.c **** 
 118:Core/Src/main.c ****   /* USER CODE END SysInit */
 119:Core/Src/main.c **** 
 120:Core/Src/main.c ****   /* Initialize all configured peripherals */
 121:Core/Src/main.c ****   MX_GPIO_Init();
 122:Core/Src/main.c ****   MX_DMA_Init();
 123:Core/Src/main.c ****   MX_SPI1_Init();
 124:Core/Src/main.c ****   MX_I2C1_Init();
 125:Core/Src/main.c ****   /* USER CODE BEGIN 2 */
 126:Core/Src/main.c **** 
 127:Core/Src/main.c **** 
 128:Core/Src/main.c **** 
 129:Core/Src/main.c ****   /* USER CODE END 2 */
 130:Core/Src/main.c **** 
 131:Core/Src/main.c ****   /* Create the mutex(es) */
 132:Core/Src/main.c ****   /* definition and creation of lora_mutex */
 133:Core/Src/main.c ****   //debug osMutexDef(lora_mutex);
 134:Core/Src/main.c ****   //debug lora_mutexHandle = osMutexCreate(osMutex(lora_mutex));
 135:Core/Src/main.c **** 
 136:Core/Src/main.c ****   /* USER CODE BEGIN RTOS_MUTEX */
 137:Core/Src/main.c ****   /* add mutexes, ... */
 138:Core/Src/main.c **** 
 139:Core/Src/main.c ****   xloraMutex = xSemaphoreCreateMutex();
 140:Core/Src/main.c **** 
 141:Core/Src/main.c ****   /* USER CODE END RTOS_MUTEX */
 142:Core/Src/main.c **** 
 143:Core/Src/main.c ****   /* USER CODE BEGIN RTOS_SEMAPHORES */
ARM GAS  C:\Users\jdcox\AppData\Local\Temp\ccHRpQhd.s 			page 4


 144:Core/Src/main.c ****   /* add semaphores, ... */
 145:Core/Src/main.c ****   /* USER CODE END RTOS_SEMAPHORES */
 146:Core/Src/main.c **** 
 147:Core/Src/main.c ****   /* Create the timer(s) */
 148:Core/Src/main.c ****   /* definition and creation of msTick */
 149:Core/Src/main.c ****   osTimerDef(msTick, msTickCallback);
 150:Core/Src/main.c ****   msTickHandle = osTimerCreate(osTimer(msTick), osTimerPeriodic, NULL);
 151:Core/Src/main.c **** 
 152:Core/Src/main.c ****   /* definition and creation of debounceTimer */
 153:Core/Src/main.c ****   osTimerDef(debounceTimer, debounceCallback);
 154:Core/Src/main.c ****   debounceTimerHandle = osTimerCreate(osTimer(debounceTimer), osTimerOnce, NULL);
 155:Core/Src/main.c **** 
 156:Core/Src/main.c ****   /* definition and creation of blinkTimer */
 157:Core/Src/main.c ****   osTimerDef(blinkTimer, blinkTimerCallback);
 158:Core/Src/main.c ****   blinkTimerHandle = osTimerCreate(osTimer(blinkTimer), osTimerOnce, NULL);
 159:Core/Src/main.c **** 
 160:Core/Src/main.c ****   /* USER CODE BEGIN RTOS_TIMERS */
 161:Core/Src/main.c ****   /* start timers, add new ones, ... */
 162:Core/Src/main.c ****  
 163:Core/Src/main.c ****   /* USER CODE END RTOS_TIMERS */
 164:Core/Src/main.c **** 
 165:Core/Src/main.c ****   /* USER CODE BEGIN RTOS_QUEUES */
 166:Core/Src/main.c ****   /* add queues, ... */
 167:Core/Src/main.c ****   /* USER CODE END RTOS_QUEUES */
 168:Core/Src/main.c **** 
 169:Core/Src/main.c ****   /* Create the thread(s) */
 170:Core/Src/main.c ****   /* definition and creation of defaultTask */
 171:Core/Src/main.c ****   osThreadDef(defaultTask, StartDefaultTask, osPriorityNormal, 0, 128);
 172:Core/Src/main.c ****   defaultTaskHandle = osThreadCreate(osThread(defaultTask), NULL);
 173:Core/Src/main.c **** 
 174:Core/Src/main.c ****   /* definition and creation of loraRXTask */
 175:Core/Src/main.c ****   osThreadDef(loraRXTask, StartLoraRXTask, osPriorityAboveNormal, 0, 128);
 176:Core/Src/main.c ****   loraRXTaskHandle = osThreadCreate(osThread(loraRXTask), NULL);
 177:Core/Src/main.c **** 
 178:Core/Src/main.c ****   /* definition and creation of displayTask */
 179:Core/Src/main.c ****   osThreadDef(displayTask, StartDisplayTask, osPriorityNormal, 0, 128);
 180:Core/Src/main.c ****   displayTaskHandle = osThreadCreate(osThread(displayTask), NULL);
 181:Core/Src/main.c **** 
 182:Core/Src/main.c ****   /* USER CODE BEGIN RTOS_THREADS */
 183:Core/Src/main.c ****   /* add threads, ... */
 184:Core/Src/main.c ****   /* USER CODE END RTOS_THREADS */
 185:Core/Src/main.c **** 
 186:Core/Src/main.c ****   /* Start scheduler */
 187:Core/Src/main.c ****   osKernelStart();
 188:Core/Src/main.c **** 
 189:Core/Src/main.c ****   /* We should never get here as control is now taken by the scheduler */
 190:Core/Src/main.c ****   /* Infinite loop */
 191:Core/Src/main.c ****   /* USER CODE BEGIN WHILE */
 192:Core/Src/main.c ****   while (1)
 193:Core/Src/main.c ****   {
 194:Core/Src/main.c ****     /* USER CODE END WHILE */
 195:Core/Src/main.c **** 
 196:Core/Src/main.c ****     /* USER CODE BEGIN 3 */
 197:Core/Src/main.c ****   }
 198:Core/Src/main.c ****   /* USER CODE END 3 */
 199:Core/Src/main.c **** }
 200:Core/Src/main.c **** 
ARM GAS  C:\Users\jdcox\AppData\Local\Temp\ccHRpQhd.s 			page 5


 201:Core/Src/main.c **** /**
 202:Core/Src/main.c ****   * @brief System Clock Configuration
 203:Core/Src/main.c ****   * @retval None
 204:Core/Src/main.c ****   */
 205:Core/Src/main.c **** void SystemClock_Config(void)
 206:Core/Src/main.c **** {
 207:Core/Src/main.c ****   RCC_OscInitTypeDef RCC_OscInitStruct = {0};
 208:Core/Src/main.c ****   RCC_ClkInitTypeDef RCC_ClkInitStruct = {0};
 209:Core/Src/main.c **** 
 210:Core/Src/main.c ****   /** Configure the main internal regulator output voltage
 211:Core/Src/main.c ****   */
 212:Core/Src/main.c ****   __HAL_RCC_PWR_CLK_ENABLE();
 213:Core/Src/main.c ****   __HAL_PWR_VOLTAGESCALING_CONFIG(PWR_REGULATOR_VOLTAGE_SCALE2);
 214:Core/Src/main.c **** 
 215:Core/Src/main.c ****   /** Initializes the RCC Oscillators according to the specified parameters
 216:Core/Src/main.c ****   * in the RCC_OscInitTypeDef structure.
 217:Core/Src/main.c ****   */
 218:Core/Src/main.c ****   RCC_OscInitStruct.OscillatorType = RCC_OSCILLATORTYPE_HSE;
 219:Core/Src/main.c ****   RCC_OscInitStruct.HSEState = RCC_HSE_ON;
 220:Core/Src/main.c ****   RCC_OscInitStruct.PLL.PLLState = RCC_PLL_ON;
 221:Core/Src/main.c ****   RCC_OscInitStruct.PLL.PLLSource = RCC_PLLSOURCE_HSE;
 222:Core/Src/main.c ****   RCC_OscInitStruct.PLL.PLLM = 25;
 223:Core/Src/main.c ****   RCC_OscInitStruct.PLL.PLLN = 336;
 224:Core/Src/main.c ****   RCC_OscInitStruct.PLL.PLLP = RCC_PLLP_DIV4;
 225:Core/Src/main.c ****   RCC_OscInitStruct.PLL.PLLQ = 7;
 226:Core/Src/main.c ****   if (HAL_RCC_OscConfig(&RCC_OscInitStruct) != HAL_OK)
 227:Core/Src/main.c ****   {
 228:Core/Src/main.c ****     Error_Handler();
 229:Core/Src/main.c ****   }
 230:Core/Src/main.c **** 
 231:Core/Src/main.c ****   /** Initializes the CPU, AHB and APB buses clocks
 232:Core/Src/main.c ****   */
 233:Core/Src/main.c ****   RCC_ClkInitStruct.ClockType = RCC_CLOCKTYPE_HCLK|RCC_CLOCKTYPE_SYSCLK
 234:Core/Src/main.c ****                               |RCC_CLOCKTYPE_PCLK1|RCC_CLOCKTYPE_PCLK2;
 235:Core/Src/main.c ****   RCC_ClkInitStruct.SYSCLKSource = RCC_SYSCLKSOURCE_PLLCLK;
 236:Core/Src/main.c ****   RCC_ClkInitStruct.AHBCLKDivider = RCC_SYSCLK_DIV1;
 237:Core/Src/main.c ****   RCC_ClkInitStruct.APB1CLKDivider = RCC_HCLK_DIV2;
 238:Core/Src/main.c ****   RCC_ClkInitStruct.APB2CLKDivider = RCC_HCLK_DIV1;
 239:Core/Src/main.c **** 
 240:Core/Src/main.c ****   if (HAL_RCC_ClockConfig(&RCC_ClkInitStruct, FLASH_LATENCY_2) != HAL_OK)
 241:Core/Src/main.c ****   {
 242:Core/Src/main.c ****     Error_Handler();
 243:Core/Src/main.c ****   }
 244:Core/Src/main.c **** }
 245:Core/Src/main.c **** 
 246:Core/Src/main.c **** /**
 247:Core/Src/main.c ****   * @brief I2C1 Initialization Function
 248:Core/Src/main.c ****   * @param None
 249:Core/Src/main.c ****   * @retval None
 250:Core/Src/main.c ****   */
 251:Core/Src/main.c **** static void MX_I2C1_Init(void)
 252:Core/Src/main.c **** {
 253:Core/Src/main.c **** 
 254:Core/Src/main.c ****   /* USER CODE BEGIN I2C1_Init 0 */
 255:Core/Src/main.c **** 
 256:Core/Src/main.c ****   /* USER CODE END I2C1_Init 0 */
 257:Core/Src/main.c **** 
ARM GAS  C:\Users\jdcox\AppData\Local\Temp\ccHRpQhd.s 			page 6


 258:Core/Src/main.c ****   /* USER CODE BEGIN I2C1_Init 1 */
 259:Core/Src/main.c **** 
 260:Core/Src/main.c ****   /* USER CODE END I2C1_Init 1 */
 261:Core/Src/main.c ****   hi2c1.Instance = I2C1;
 262:Core/Src/main.c ****   hi2c1.Init.ClockSpeed = 100000;
 263:Core/Src/main.c ****   hi2c1.Init.DutyCycle = I2C_DUTYCYCLE_2;
 264:Core/Src/main.c ****   hi2c1.Init.OwnAddress1 = 78;
 265:Core/Src/main.c ****   hi2c1.Init.AddressingMode = I2C_ADDRESSINGMODE_7BIT;
 266:Core/Src/main.c ****   hi2c1.Init.DualAddressMode = I2C_DUALADDRESS_DISABLE;
 267:Core/Src/main.c ****   hi2c1.Init.OwnAddress2 = 0;
 268:Core/Src/main.c ****   hi2c1.Init.GeneralCallMode = I2C_GENERALCALL_DISABLE;
 269:Core/Src/main.c ****   hi2c1.Init.NoStretchMode = I2C_NOSTRETCH_DISABLE;
 270:Core/Src/main.c ****   if (HAL_I2C_Init(&hi2c1) != HAL_OK)
 271:Core/Src/main.c ****   {
 272:Core/Src/main.c ****     Error_Handler();
 273:Core/Src/main.c ****   }
 274:Core/Src/main.c ****   /* USER CODE BEGIN I2C1_Init 2 */
 275:Core/Src/main.c **** 
 276:Core/Src/main.c ****   /* USER CODE END I2C1_Init 2 */
 277:Core/Src/main.c **** 
 278:Core/Src/main.c **** }
 279:Core/Src/main.c **** 
 280:Core/Src/main.c **** /**
 281:Core/Src/main.c ****   * @brief SPI1 Initialization Function
 282:Core/Src/main.c ****   * @param None
 283:Core/Src/main.c ****   * @retval None
 284:Core/Src/main.c ****   */
 285:Core/Src/main.c **** static void MX_SPI1_Init(void)
 286:Core/Src/main.c **** {
 287:Core/Src/main.c **** 
 288:Core/Src/main.c ****   /* USER CODE BEGIN SPI1_Init 0 */
 289:Core/Src/main.c **** 
 290:Core/Src/main.c ****   /* USER CODE END SPI1_Init 0 */
 291:Core/Src/main.c **** 
 292:Core/Src/main.c ****   /* USER CODE BEGIN SPI1_Init 1 */
 293:Core/Src/main.c **** 
 294:Core/Src/main.c ****   /* USER CODE END SPI1_Init 1 */
 295:Core/Src/main.c ****   /* SPI1 parameter configuration*/
 296:Core/Src/main.c ****   hspi1.Instance = SPI1;
 297:Core/Src/main.c ****   hspi1.Init.Mode = SPI_MODE_MASTER;
 298:Core/Src/main.c ****   hspi1.Init.Direction = SPI_DIRECTION_2LINES;
 299:Core/Src/main.c ****   hspi1.Init.DataSize = SPI_DATASIZE_8BIT;
 300:Core/Src/main.c ****   hspi1.Init.CLKPolarity = SPI_POLARITY_LOW;
 301:Core/Src/main.c ****   hspi1.Init.CLKPhase = SPI_PHASE_1EDGE;
 302:Core/Src/main.c ****   hspi1.Init.NSS = SPI_NSS_SOFT;
 303:Core/Src/main.c ****   hspi1.Init.BaudRatePrescaler = SPI_BAUDRATEPRESCALER_16;
 304:Core/Src/main.c ****   hspi1.Init.FirstBit = SPI_FIRSTBIT_MSB;
 305:Core/Src/main.c ****   hspi1.Init.TIMode = SPI_TIMODE_DISABLE;
 306:Core/Src/main.c ****   hspi1.Init.CRCCalculation = SPI_CRCCALCULATION_DISABLE;
 307:Core/Src/main.c ****   hspi1.Init.CRCPolynomial = 10;
 308:Core/Src/main.c ****   if (HAL_SPI_Init(&hspi1) != HAL_OK)
 309:Core/Src/main.c ****   {
 310:Core/Src/main.c ****     Error_Handler();
 311:Core/Src/main.c ****   }
 312:Core/Src/main.c ****   /* USER CODE BEGIN SPI1_Init 2 */
 313:Core/Src/main.c **** 
 314:Core/Src/main.c ****   /* USER CODE END SPI1_Init 2 */
ARM GAS  C:\Users\jdcox\AppData\Local\Temp\ccHRpQhd.s 			page 7


 315:Core/Src/main.c **** 
 316:Core/Src/main.c **** }
 317:Core/Src/main.c **** 
 318:Core/Src/main.c **** /**
 319:Core/Src/main.c ****   * Enable DMA controller clock
 320:Core/Src/main.c ****   */
 321:Core/Src/main.c **** static void MX_DMA_Init(void)
 322:Core/Src/main.c **** {
 323:Core/Src/main.c **** 
 324:Core/Src/main.c ****   /* DMA controller clock enable */
 325:Core/Src/main.c ****   __HAL_RCC_DMA1_CLK_ENABLE();
 326:Core/Src/main.c ****   __HAL_RCC_DMA2_CLK_ENABLE();
 327:Core/Src/main.c **** 
 328:Core/Src/main.c ****   /* DMA interrupt init */
 329:Core/Src/main.c ****   /* DMA1_Stream6_IRQn interrupt configuration */
 330:Core/Src/main.c ****   HAL_NVIC_SetPriority(DMA1_Stream6_IRQn, 5, 0);
 331:Core/Src/main.c ****   HAL_NVIC_EnableIRQ(DMA1_Stream6_IRQn);
 332:Core/Src/main.c ****   /* DMA2_Stream0_IRQn interrupt configuration */
 333:Core/Src/main.c ****   HAL_NVIC_SetPriority(DMA2_Stream0_IRQn, 5, 0);
 334:Core/Src/main.c ****   HAL_NVIC_EnableIRQ(DMA2_Stream0_IRQn);
 335:Core/Src/main.c ****   /* DMA2_Stream3_IRQn interrupt configuration */
 336:Core/Src/main.c ****   HAL_NVIC_SetPriority(DMA2_Stream3_IRQn, 5, 0);
 337:Core/Src/main.c ****   HAL_NVIC_EnableIRQ(DMA2_Stream3_IRQn);
 338:Core/Src/main.c **** 
 339:Core/Src/main.c **** }
 340:Core/Src/main.c **** 
 341:Core/Src/main.c **** /**
 342:Core/Src/main.c ****   * @brief GPIO Initialization Function
 343:Core/Src/main.c ****   * @param None
 344:Core/Src/main.c ****   * @retval None
 345:Core/Src/main.c ****   */
 346:Core/Src/main.c **** static void MX_GPIO_Init(void)
 347:Core/Src/main.c **** {
 348:Core/Src/main.c ****   GPIO_InitTypeDef GPIO_InitStruct = {0};
 349:Core/Src/main.c **** 
 350:Core/Src/main.c ****   /* GPIO Ports Clock Enable */
 351:Core/Src/main.c ****   __HAL_RCC_GPIOH_CLK_ENABLE();
 352:Core/Src/main.c ****   __HAL_RCC_GPIOA_CLK_ENABLE();
 353:Core/Src/main.c ****   __HAL_RCC_GPIOB_CLK_ENABLE();
 354:Core/Src/main.c **** 
 355:Core/Src/main.c ****   /*Configure GPIO pin Output Level */
 356:Core/Src/main.c ****   HAL_GPIO_WritePin(GPIOB, LED1_Pin|LED2_Pin, GPIO_PIN_SET);
 357:Core/Src/main.c **** 
 358:Core/Src/main.c ****   /*Configure GPIO pin Output Level */
 359:Core/Src/main.c ****   HAL_GPIO_WritePin(LORA_RST_GPIO_Port, LORA_RST_Pin, GPIO_PIN_RESET);
 360:Core/Src/main.c **** 
 361:Core/Src/main.c ****   /*Configure GPIO pin Output Level */
 362:Core/Src/main.c ****   HAL_GPIO_WritePin(LORA_CS_GPIO_Port, LORA_CS_Pin, GPIO_PIN_SET);
 363:Core/Src/main.c **** 
 364:Core/Src/main.c ****   /*Configure GPIO pin : BTN_IN_Pin */
 365:Core/Src/main.c ****   GPIO_InitStruct.Pin = BTN_IN_Pin;
 366:Core/Src/main.c ****   GPIO_InitStruct.Mode = GPIO_MODE_IT_FALLING;
 367:Core/Src/main.c ****   GPIO_InitStruct.Pull = GPIO_PULLUP;
 368:Core/Src/main.c ****   HAL_GPIO_Init(BTN_IN_GPIO_Port, &GPIO_InitStruct);
 369:Core/Src/main.c **** 
 370:Core/Src/main.c ****   /*Configure GPIO pins : LED1_Pin LED2_Pin */
 371:Core/Src/main.c ****   GPIO_InitStruct.Pin = LED1_Pin|LED2_Pin;
ARM GAS  C:\Users\jdcox\AppData\Local\Temp\ccHRpQhd.s 			page 8


 372:Core/Src/main.c ****   GPIO_InitStruct.Mode = GPIO_MODE_OUTPUT_PP;
 373:Core/Src/main.c ****   GPIO_InitStruct.Pull = GPIO_NOPULL;
 374:Core/Src/main.c ****   GPIO_InitStruct.Speed = GPIO_SPEED_FREQ_LOW;
 375:Core/Src/main.c ****   HAL_GPIO_Init(GPIOB, &GPIO_InitStruct);
 376:Core/Src/main.c **** 
 377:Core/Src/main.c ****   /*Configure GPIO pin : LORA_EXTI_Pin */
 378:Core/Src/main.c ****   GPIO_InitStruct.Pin = LORA_EXTI_Pin;
 379:Core/Src/main.c ****   GPIO_InitStruct.Mode = GPIO_MODE_IT_RISING;
 380:Core/Src/main.c ****   GPIO_InitStruct.Pull = GPIO_NOPULL;
 381:Core/Src/main.c ****   HAL_GPIO_Init(LORA_EXTI_GPIO_Port, &GPIO_InitStruct);
 382:Core/Src/main.c **** 
 383:Core/Src/main.c ****   /*Configure GPIO pins : LORA_RST_Pin LORA_CS_Pin */
 384:Core/Src/main.c ****   GPIO_InitStruct.Pin = LORA_RST_Pin|LORA_CS_Pin;
 385:Core/Src/main.c ****   GPIO_InitStruct.Mode = GPIO_MODE_OUTPUT_PP;
 386:Core/Src/main.c ****   GPIO_InitStruct.Pull = GPIO_NOPULL;
 387:Core/Src/main.c ****   GPIO_InitStruct.Speed = GPIO_SPEED_FREQ_LOW;
 388:Core/Src/main.c ****   HAL_GPIO_Init(GPIOA, &GPIO_InitStruct);
 389:Core/Src/main.c **** 
 390:Core/Src/main.c ****   /* EXTI interrupt init*/
 391:Core/Src/main.c ****   HAL_NVIC_SetPriority(EXTI0_IRQn, 5, 0);
 392:Core/Src/main.c ****   HAL_NVIC_EnableIRQ(EXTI0_IRQn);
 393:Core/Src/main.c **** 
 394:Core/Src/main.c **** }
 395:Core/Src/main.c **** 
 396:Core/Src/main.c **** /* USER CODE BEGIN 4 */
 397:Core/Src/main.c **** 
 398:Core/Src/main.c **** /* USER CODE END 4 */
 399:Core/Src/main.c **** 
 400:Core/Src/main.c **** /* USER CODE BEGIN Header_StartDefaultTask */
 401:Core/Src/main.c **** /**
 402:Core/Src/main.c ****   * @brief  Function implementing the defaultTask thread.
 403:Core/Src/main.c ****   * @param  argument: Not used
 404:Core/Src/main.c ****   * @retval None
 405:Core/Src/main.c ****   */
 406:Core/Src/main.c **** /* USER CODE END Header_StartDefaultTask */
 407:Core/Src/main.c **** void StartDefaultTask(void const * argument)
 408:Core/Src/main.c **** {
 409:Core/Src/main.c ****   /* USER CODE BEGIN 5 */
 410:Core/Src/main.c ****   xloraMutex = xSemaphoreCreateMutex();
 411:Core/Src/main.c ****   //xSemaphoreTake(xloraMutex, portMAX_DELAY);
 412:Core/Src/main.c **** 
 413:Core/Src/main.c ****   uint8_t res = lora_init(&lora, &hspi1, LORA_CS_GPIO_Port, LORA_CS_Pin, LORA_BASE_FREQUENCY_CH);
 414:Core/Src/main.c ****   if (res != LORA_OK) {
 415:Core/Src/main.c ****     // Initialization failed
 416:Core/Src/main.c ****     uint8_t debugBuddy;
 417:Core/Src/main.c ****     debugBuddy = res;
 418:Core/Src/main.c ****     debugBuddy++;
 419:Core/Src/main.c ****   }
 420:Core/Src/main.c ****   
 421:Core/Src/main.c ****   //xSemaphoreGive(xloraMutex);
 422:Core/Src/main.c ****   //debug osMutexRelease(lora_mutexHandle);
 423:Core/Src/main.c **** 
 424:Core/Src/main.c **** 
 425:Core/Src/main.c ****   P1LED_OFF;
 426:Core/Src/main.c ****   ssd1306_Init();
 427:Core/Src/main.c ****   ssd1306_SetCursor(0,0);
 428:Core/Src/main.c ****   ssd1306_WriteString("KING",Font_16x24,1);
ARM GAS  C:\Users\jdcox\AppData\Local\Temp\ccHRpQhd.s 			page 9


 429:Core/Src/main.c ****   ssd1306_UpdateScreen();
 430:Core/Src/main.c ****   osDelay(750);
 431:Core/Src/main.c ****   ssd1306_Fill(0);
 432:Core/Src/main.c ****   ssd1306_SetCursor(64,0);
 433:Core/Src/main.c ****   ssd1306_WriteString("OF",Font_16x24,1);
 434:Core/Src/main.c ****   ssd1306_UpdateScreen();
 435:Core/Src/main.c ****   osDelay(750);
 436:Core/Src/main.c ****   ssd1306_Fill(0);
 437:Core/Src/main.c ****   ssd1306_SetCursor(0,8);
 438:Core/Src/main.c ****   ssd1306_WriteString("THE",Font_16x24,1);
 439:Core/Src/main.c ****   ssd1306_UpdateScreen();
 440:Core/Src/main.c ****   osDelay(750);
 441:Core/Src/main.c ****   ssd1306_Fill(0);
 442:Core/Src/main.c ****   ssd1306_SetCursor(64,8);
 443:Core/Src/main.c ****   ssd1306_WriteString("HILL",Font_16x24,1);
 444:Core/Src/main.c ****   ssd1306_UpdateScreen();
 445:Core/Src/main.c **** 
 446:Core/Src/main.c ****   lora_mode_receive_continuous(&lora);
 447:Core/Src/main.c **** 
 448:Core/Src/main.c ****   osDelay(2000);
 449:Core/Src/main.c **** 
 450:Core/Src/main.c ****   gameState = waiting;
 451:Core/Src/main.c ****   stateChange_flag = 1;
 452:Core/Src/main.c ****   
 453:Core/Src/main.c **** 
 454:Core/Src/main.c ****   /* Infinite loop */
 455:Core/Src/main.c ****   for(;;)
 456:Core/Src/main.c ****   {
 457:Core/Src/main.c ****     //debug
 458:Core/Src/main.c ****     HAL_GPIO_TogglePin(LED1_GPIO_Port,LED1_Pin);
 459:Core/Src/main.c ****     
 460:Core/Src/main.c ****     switch (gameState)
 461:Core/Src/main.c ****     {
 462:Core/Src/main.c ****       case waiting:
 463:Core/Src/main.c ****         if(stateChange_flag)
 464:Core/Src/main.c ****         {
 465:Core/Src/main.c ****           stateChange_flag = 0;
 466:Core/Src/main.c ****           ssd1306_Fill(0); 
 467:Core/Src/main.c ****           ssd1306_SetCursor(0,0);
 468:Core/Src/main.c ****           ssd1306_WriteString("Push to play",Font_7x10,1);
 469:Core/Src/main.c ****           ssd1306_UpdateScreen();
 470:Core/Src/main.c ****         }
 471:Core/Src/main.c ****       break;
 472:Core/Src/main.c **** 
 473:Core/Src/main.c ****       case p1King:
 474:Core/Src/main.c ****         if(stateChange_flag)
 475:Core/Src/main.c ****         {
 476:Core/Src/main.c ****           stateChange_flag = 0;
 477:Core/Src/main.c ****           P1LED_OFF; // The hill is yours
 478:Core/Src/main.c ****           ssd1306_Fill(0);
 479:Core/Src/main.c ****           ssd1306_SetCursor(0,0);
 480:Core/Src/main.c ****           ssd1306_WriteString("You are king",Font_7x10,1);
 481:Core/Src/main.c ****           ssd1306_SetCursor(0,10);
 482:Core/Src/main.c ****           ssd1306_WriteString("of the hill!",Font_7x10,1);
 483:Core/Src/main.c ****           ssd1306_UpdateScreen();
 484:Core/Src/main.c ****         }
 485:Core/Src/main.c ****       break;
ARM GAS  C:\Users\jdcox\AppData\Local\Temp\ccHRpQhd.s 			page 10


 486:Core/Src/main.c **** 
 487:Core/Src/main.c ****       case p2King:
 488:Core/Src/main.c ****         if(stateChange_flag)
 489:Core/Src/main.c ****         {
 490:Core/Src/main.c ****           stateChange_flag = 0;
 491:Core/Src/main.c ****           P1LED_ON; // Better push the button!
 492:Core/Src/main.c ****           ssd1306_Fill(0);
 493:Core/Src/main.c ****           ssd1306_SetCursor(0,0);
 494:Core/Src/main.c ****           ssd1306_WriteString("Take the hill!!",Font_7x10,1);
 495:Core/Src/main.c ****           ssd1306_UpdateScreen();
 496:Core/Src/main.c ****         }
 497:Core/Src/main.c ****       break;
 498:Core/Src/main.c **** 
 499:Core/Src/main.c ****       case p1Winner:
 500:Core/Src/main.c ****         if(stateChange_flag)
 501:Core/Src/main.c ****         {
 502:Core/Src/main.c ****           stateChange_flag = 0;
 503:Core/Src/main.c ****           P1LED_OFF;
 504:Core/Src/main.c ****           ssd1306_Fill(0);
 505:Core/Src/main.c ****           ssd1306_SetCursor(0,0);
 506:Core/Src/main.c ****           ssd1306_WriteString("P1 wins!",Font_7x10,1);
 507:Core/Src/main.c ****           char score [16];
 508:Core/Src/main.c ****           uint16_t difference = p1King_counter - p2King_counter;
 509:Core/Src/main.c ****           sprintf(score, "Won by %ums", difference);
 510:Core/Src/main.c ****           lcd_put_cur(1,0);
 511:Core/Src/main.c ****           ssd1306_WriteString(score,Font_7x10,1);
 512:Core/Src/main.c ****           ssd1306_UpdateScreen();
 513:Core/Src/main.c **** 
 514:Core/Src/main.c ****         }
 515:Core/Src/main.c ****       break;
 516:Core/Src/main.c **** 
 517:Core/Src/main.c ****       case p2Winner:
 518:Core/Src/main.c ****         if(stateChange_flag)
 519:Core/Src/main.c ****         {
 520:Core/Src/main.c ****           stateChange_flag = 0;
 521:Core/Src/main.c ****           P1LED_OFF;
 522:Core/Src/main.c ****           ssd1306_Fill(0);
 523:Core/Src/main.c ****           ssd1306_SetCursor(0,0);
 524:Core/Src/main.c ****           ssd1306_WriteString("P2 wins!",Font_7x10,1);
 525:Core/Src/main.c ****           char score [16];
 526:Core/Src/main.c ****           uint16_t difference = p2King_counter - p1King_counter;
 527:Core/Src/main.c ****           sprintf(score, "Won by %ums", difference);
 528:Core/Src/main.c ****           lcd_put_cur(1,0);
 529:Core/Src/main.c ****           ssd1306_WriteString(score,Font_7x10,1);
 530:Core/Src/main.c ****           ssd1306_UpdateScreen();
 531:Core/Src/main.c ****         }
 532:Core/Src/main.c ****       break;
 533:Core/Src/main.c **** 
 534:Core/Src/main.c ****         case penalty:
 535:Core/Src/main.c ****         if(stateChange_flag)
 536:Core/Src/main.c ****         {
 537:Core/Src/main.c ****           stateChange_flag = 0;
 538:Core/Src/main.c ****           P1LED_OFF;
 539:Core/Src/main.c ****           ssd1306_Fill(0); 
 540:Core/Src/main.c ****           ssd1306_SetCursor(0,0);
 541:Core/Src/main.c ****           ssd1306_WriteString("Penalty!",Font_7x10,1);
 542:Core/Src/main.c ****           ssd1306_UpdateScreen();
ARM GAS  C:\Users\jdcox\AppData\Local\Temp\ccHRpQhd.s 			page 11


 543:Core/Src/main.c ****         }
 544:Core/Src/main.c **** 
 545:Core/Src/main.c ****       break;
 546:Core/Src/main.c ****       
 547:Core/Src/main.c ****     }
 548:Core/Src/main.c **** 
 549:Core/Src/main.c **** 
 550:Core/Src/main.c ****     osDelay(1);
 551:Core/Src/main.c ****    
 552:Core/Src/main.c **** 
 553:Core/Src/main.c **** 
 554:Core/Src/main.c ****   }
 555:Core/Src/main.c ****   /* USER CODE END 5 */
 556:Core/Src/main.c **** }
 557:Core/Src/main.c **** 
 558:Core/Src/main.c **** /* USER CODE BEGIN Header_StartLoraRXTask */
 559:Core/Src/main.c **** /**
 560:Core/Src/main.c **** * @brief Function implementing the loraRXTask thread.
 561:Core/Src/main.c **** * @param argument: Not used
 562:Core/Src/main.c **** * @retval None
 563:Core/Src/main.c **** */
 564:Core/Src/main.c **** /* USER CODE END Header_StartLoraRXTask */
 565:Core/Src/main.c **** void StartLoraRXTask(void const * argument)
 566:Core/Src/main.c **** {
 567:Core/Src/main.c ****   /* USER CODE BEGIN StartLoraRXTask */
 568:Core/Src/main.c ****   /* Infinite loop */
 569:Core/Src/main.c ****   for(;;)
 570:Core/Src/main.c ****   {
 571:Core/Src/main.c ****     //debug
 572:Core/Src/main.c ****     HAL_GPIO_TogglePin(LED2_GPIO_Port,LED2_Pin);
 573:Core/Src/main.c **** 
 574:Core/Src/main.c ****     // Wait for LoRa availability
 575:Core/Src/main.c ****     //xSemaphoreTake(xloraMutex, portMAX_DELAY);
 576:Core/Src/main.c **** 
 577:Core/Src/main.c ****     // Check for a new packet
 578:Core/Src/main.c ****     if(lora_is_packet_available(&lora) > 0)
 579:Core/Src/main.c ****     {
 580:Core/Src/main.c ****       //release mutex
 581:Core/Src/main.c ****       //xSemaphoreGive(xloraMutex);
 582:Core/Src/main.c ****       
 583:Core/Src/main.c ****       // Get the data
 584:Core/Src/main.c ****       getKOTHPacket();
 585:Core/Src/main.c **** 
 586:Core/Src/main.c ****     }
 587:Core/Src/main.c **** 
 588:Core/Src/main.c ****     
 589:Core/Src/main.c ****     
 590:Core/Src/main.c ****     osDelay(25);
 591:Core/Src/main.c **** 
 592:Core/Src/main.c ****   }
 593:Core/Src/main.c ****   /* USER CODE END StartLoraRXTask */
 594:Core/Src/main.c **** }
 595:Core/Src/main.c **** 
 596:Core/Src/main.c **** /* USER CODE BEGIN Header_StartDisplayTask */
 597:Core/Src/main.c **** /**
 598:Core/Src/main.c **** * @brief Function implementing the displayTask thread.
 599:Core/Src/main.c **** * @param argument: Not used
ARM GAS  C:\Users\jdcox\AppData\Local\Temp\ccHRpQhd.s 			page 12


 600:Core/Src/main.c **** * @retval None
 601:Core/Src/main.c **** */
 602:Core/Src/main.c **** /* USER CODE END Header_StartDisplayTask */
 603:Core/Src/main.c **** void StartDisplayTask(void const * argument)
 604:Core/Src/main.c **** {
 605:Core/Src/main.c ****   /* USER CODE BEGIN StartDisplayTask */
 606:Core/Src/main.c ****   /* Infinite loop */
 607:Core/Src/main.c ****   for(;;)
 608:Core/Src/main.c ****   {
 609:Core/Src/main.c **** 
 610:Core/Src/main.c ****     osDelay(100);
 611:Core/Src/main.c ****   }
 612:Core/Src/main.c ****   /* USER CODE END StartDisplayTask */
 613:Core/Src/main.c **** }
 614:Core/Src/main.c **** 
 615:Core/Src/main.c **** /* msTickCallback function */
 616:Core/Src/main.c **** void msTickCallback(void const * argument)
 617:Core/Src/main.c **** {
  30              		.loc 1 617 1 view -0
  31              		.cfi_startproc
  32              		@ args = 0, pretend = 0, frame = 0
  33              		@ frame_needed = 0, uses_anonymous_args = 0
  34              		@ link register save eliminated.
 618:Core/Src/main.c ****   /* USER CODE BEGIN msTickCallback */
 619:Core/Src/main.c ****     if(p1King_flag == 1)
  35              		.loc 1 619 5 view .LVU1
  36              		.loc 1 619 20 is_stmt 0 view .LVU2
  37 0000 134B     		ldr	r3, .L6
  38 0002 1B78     		ldrb	r3, [r3]	@ zero_extendqisi2
  39              		.loc 1 619 7 view .LVU3
  40 0004 012B     		cmp	r3, #1
  41 0006 04D0     		beq	.L4
  42              	.L2:
 620:Core/Src/main.c ****     {
 621:Core/Src/main.c ****       if(++p1King_counter >= 10000)
 622:Core/Src/main.c ****       {
 623:Core/Src/main.c ****         p1King_flag = 0;
 624:Core/Src/main.c ****         gameState = p1Winner;
 625:Core/Src/main.c ****       }
 626:Core/Src/main.c ****     }
 627:Core/Src/main.c **** 
 628:Core/Src/main.c ****     if(p2King_flag == 1)
  43              		.loc 1 628 5 is_stmt 1 view .LVU4
  44              		.loc 1 628 20 is_stmt 0 view .LVU5
  45 0008 124B     		ldr	r3, .L6+4
  46 000a 1B78     		ldrb	r3, [r3]	@ zero_extendqisi2
  47              		.loc 1 628 7 view .LVU6
  48 000c 012B     		cmp	r3, #1
  49 000e 0FD0     		beq	.L5
  50              	.L1:
 629:Core/Src/main.c ****     {
 630:Core/Src/main.c ****       if(++p2King_counter >= 10000)
 631:Core/Src/main.c ****       { 
 632:Core/Src/main.c ****         p2King_flag = 0;
 633:Core/Src/main.c ****         gameState = p2Winner;
 634:Core/Src/main.c ****       }
 635:Core/Src/main.c ****     }
ARM GAS  C:\Users\jdcox\AppData\Local\Temp\ccHRpQhd.s 			page 13


 636:Core/Src/main.c ****   /* USER CODE END msTickCallback */
 637:Core/Src/main.c **** }
  51              		.loc 1 637 1 view .LVU7
  52 0010 7047     		bx	lr
  53              	.L4:
 621:Core/Src/main.c ****       {
  54              		.loc 1 621 7 is_stmt 1 view .LVU8
 621:Core/Src/main.c ****       {
  55              		.loc 1 621 10 is_stmt 0 view .LVU9
  56 0012 114A     		ldr	r2, .L6+8
  57 0014 1368     		ldr	r3, [r2]
  58 0016 0133     		adds	r3, r3, #1
 621:Core/Src/main.c ****       {
  59              		.loc 1 621 9 view .LVU10
  60 0018 1360     		str	r3, [r2]
  61 001a 42F20F72 		movw	r2, #9999
  62 001e 9342     		cmp	r3, r2
  63 0020 F2D9     		bls	.L2
 623:Core/Src/main.c ****         gameState = p1Winner;
  64              		.loc 1 623 9 is_stmt 1 view .LVU11
 623:Core/Src/main.c ****         gameState = p1Winner;
  65              		.loc 1 623 21 is_stmt 0 view .LVU12
  66 0022 0B4B     		ldr	r3, .L6
  67 0024 0022     		movs	r2, #0
  68 0026 1A70     		strb	r2, [r3]
 624:Core/Src/main.c ****       }
  69              		.loc 1 624 9 is_stmt 1 view .LVU13
 624:Core/Src/main.c ****       }
  70              		.loc 1 624 19 is_stmt 0 view .LVU14
  71 0028 0C4B     		ldr	r3, .L6+12
  72 002a 0322     		movs	r2, #3
  73 002c 1A70     		strb	r2, [r3]
  74 002e EBE7     		b	.L2
  75              	.L5:
 630:Core/Src/main.c ****       { 
  76              		.loc 1 630 7 is_stmt 1 view .LVU15
 630:Core/Src/main.c ****       { 
  77              		.loc 1 630 10 is_stmt 0 view .LVU16
  78 0030 0B4A     		ldr	r2, .L6+16
  79 0032 1368     		ldr	r3, [r2]
  80 0034 0133     		adds	r3, r3, #1
 630:Core/Src/main.c ****       { 
  81              		.loc 1 630 9 view .LVU17
  82 0036 1360     		str	r3, [r2]
  83 0038 42F20F72 		movw	r2, #9999
  84 003c 9342     		cmp	r3, r2
  85 003e E7D9     		bls	.L1
 632:Core/Src/main.c ****         gameState = p2Winner;
  86              		.loc 1 632 9 is_stmt 1 view .LVU18
 632:Core/Src/main.c ****         gameState = p2Winner;
  87              		.loc 1 632 21 is_stmt 0 view .LVU19
  88 0040 044B     		ldr	r3, .L6+4
  89 0042 0022     		movs	r2, #0
  90 0044 1A70     		strb	r2, [r3]
 633:Core/Src/main.c ****       }
  91              		.loc 1 633 9 is_stmt 1 view .LVU20
 633:Core/Src/main.c ****       }
ARM GAS  C:\Users\jdcox\AppData\Local\Temp\ccHRpQhd.s 			page 14


  92              		.loc 1 633 19 is_stmt 0 view .LVU21
  93 0046 054B     		ldr	r3, .L6+12
  94 0048 0422     		movs	r2, #4
  95 004a 1A70     		strb	r2, [r3]
  96              		.loc 1 637 1 view .LVU22
  97 004c E0E7     		b	.L1
  98              	.L7:
  99 004e 00BF     		.align	2
 100              	.L6:
 101 0050 00000000 		.word	p1King_flag
 102 0054 00000000 		.word	p2King_flag
 103 0058 00000000 		.word	p1King_counter
 104 005c 00000000 		.word	gameState
 105 0060 00000000 		.word	p2King_counter
 106              		.cfi_endproc
 107              	.LFE147:
 109              		.section	.text.debounceCallback,"ax",%progbits
 110              		.align	1
 111              		.global	debounceCallback
 112              		.syntax unified
 113              		.thumb
 114              		.thumb_func
 116              	debounceCallback:
 117              	.LVL1:
 118              	.LFB148:
 638:Core/Src/main.c **** 
 639:Core/Src/main.c **** /* debounceCallback function */
 640:Core/Src/main.c **** 
 641:Core/Src/main.c **** 
 642:Core/Src/main.c **** void debounceCallback(void const * argument)
 643:Core/Src/main.c **** {
 119              		.loc 1 643 1 is_stmt 1 view -0
 120              		.cfi_startproc
 121              		@ args = 0, pretend = 0, frame = 0
 122              		@ frame_needed = 0, uses_anonymous_args = 0
 123              		@ link register save eliminated.
 644:Core/Src/main.c ****   /* USER CODE BEGIN debounceCallback */
 645:Core/Src/main.c ****   debouncing_Flag = 0;
 124              		.loc 1 645 3 view .LVU24
 125              		.loc 1 645 19 is_stmt 0 view .LVU25
 126 0000 014B     		ldr	r3, .L9
 127 0002 0022     		movs	r2, #0
 128 0004 1A70     		strb	r2, [r3]
 646:Core/Src/main.c ****   /* USER CODE END debounceCallback */
 647:Core/Src/main.c **** }
 129              		.loc 1 647 1 view .LVU26
 130 0006 7047     		bx	lr
 131              	.L10:
 132              		.align	2
 133              	.L9:
 134 0008 00000000 		.word	debouncing_Flag
 135              		.cfi_endproc
 136              	.LFE148:
 138              		.section	.text.blinkTimerCallback,"ax",%progbits
 139              		.align	1
 140              		.global	blinkTimerCallback
 141              		.syntax unified
ARM GAS  C:\Users\jdcox\AppData\Local\Temp\ccHRpQhd.s 			page 15


 142              		.thumb
 143              		.thumb_func
 145              	blinkTimerCallback:
 146              	.LVL2:
 147              	.LFB149:
 648:Core/Src/main.c **** 
 649:Core/Src/main.c **** /* blinkTimerCallback function */
 650:Core/Src/main.c **** void blinkTimerCallback(void const * argument)
 651:Core/Src/main.c **** {
 148              		.loc 1 651 1 is_stmt 1 view -0
 149              		.cfi_startproc
 150              		@ args = 0, pretend = 0, frame = 0
 151              		@ frame_needed = 0, uses_anonymous_args = 0
 152              		@ link register save eliminated.
 652:Core/Src/main.c ****   /* USER CODE BEGIN blinkTimerCallback */
 653:Core/Src/main.c **** 
 654:Core/Src/main.c ****   /* USER CODE END blinkTimerCallback */
 655:Core/Src/main.c **** }
 153              		.loc 1 655 1 view .LVU28
 154 0000 7047     		bx	lr
 155              		.cfi_endproc
 156              	.LFE149:
 158              		.section	.text.MX_GPIO_Init,"ax",%progbits
 159              		.align	1
 160              		.syntax unified
 161              		.thumb
 162              		.thumb_func
 164              	MX_GPIO_Init:
 165              	.LFB143:
 347:Core/Src/main.c ****   GPIO_InitTypeDef GPIO_InitStruct = {0};
 166              		.loc 1 347 1 view -0
 167              		.cfi_startproc
 168              		@ args = 0, pretend = 0, frame = 32
 169              		@ frame_needed = 0, uses_anonymous_args = 0
 170 0000 2DE9F041 		push	{r4, r5, r6, r7, r8, lr}
 171              	.LCFI0:
 172              		.cfi_def_cfa_offset 24
 173              		.cfi_offset 4, -24
 174              		.cfi_offset 5, -20
 175              		.cfi_offset 6, -16
 176              		.cfi_offset 7, -12
 177              		.cfi_offset 8, -8
 178              		.cfi_offset 14, -4
 179 0004 88B0     		sub	sp, sp, #32
 180              	.LCFI1:
 181              		.cfi_def_cfa_offset 56
 348:Core/Src/main.c **** 
 182              		.loc 1 348 3 view .LVU30
 348:Core/Src/main.c **** 
 183              		.loc 1 348 20 is_stmt 0 view .LVU31
 184 0006 0024     		movs	r4, #0
 185 0008 0394     		str	r4, [sp, #12]
 186 000a 0494     		str	r4, [sp, #16]
 187 000c 0594     		str	r4, [sp, #20]
 188 000e 0694     		str	r4, [sp, #24]
 189 0010 0794     		str	r4, [sp, #28]
 351:Core/Src/main.c ****   __HAL_RCC_GPIOA_CLK_ENABLE();
ARM GAS  C:\Users\jdcox\AppData\Local\Temp\ccHRpQhd.s 			page 16


 190              		.loc 1 351 3 is_stmt 1 view .LVU32
 191              	.LBB4:
 351:Core/Src/main.c ****   __HAL_RCC_GPIOA_CLK_ENABLE();
 192              		.loc 1 351 3 view .LVU33
 193 0012 0094     		str	r4, [sp]
 351:Core/Src/main.c ****   __HAL_RCC_GPIOA_CLK_ENABLE();
 194              		.loc 1 351 3 view .LVU34
 195 0014 324B     		ldr	r3, .L14
 196 0016 1A6B     		ldr	r2, [r3, #48]
 197 0018 42F08002 		orr	r2, r2, #128
 198 001c 1A63     		str	r2, [r3, #48]
 351:Core/Src/main.c ****   __HAL_RCC_GPIOA_CLK_ENABLE();
 199              		.loc 1 351 3 view .LVU35
 200 001e 1A6B     		ldr	r2, [r3, #48]
 201 0020 02F08002 		and	r2, r2, #128
 202 0024 0092     		str	r2, [sp]
 351:Core/Src/main.c ****   __HAL_RCC_GPIOA_CLK_ENABLE();
 203              		.loc 1 351 3 view .LVU36
 204 0026 009A     		ldr	r2, [sp]
 205              	.LBE4:
 351:Core/Src/main.c ****   __HAL_RCC_GPIOA_CLK_ENABLE();
 206              		.loc 1 351 3 view .LVU37
 352:Core/Src/main.c ****   __HAL_RCC_GPIOB_CLK_ENABLE();
 207              		.loc 1 352 3 view .LVU38
 208              	.LBB5:
 352:Core/Src/main.c ****   __HAL_RCC_GPIOB_CLK_ENABLE();
 209              		.loc 1 352 3 view .LVU39
 210 0028 0194     		str	r4, [sp, #4]
 352:Core/Src/main.c ****   __HAL_RCC_GPIOB_CLK_ENABLE();
 211              		.loc 1 352 3 view .LVU40
 212 002a 1A6B     		ldr	r2, [r3, #48]
 213 002c 42F00102 		orr	r2, r2, #1
 214 0030 1A63     		str	r2, [r3, #48]
 352:Core/Src/main.c ****   __HAL_RCC_GPIOB_CLK_ENABLE();
 215              		.loc 1 352 3 view .LVU41
 216 0032 1A6B     		ldr	r2, [r3, #48]
 217 0034 02F00102 		and	r2, r2, #1
 218 0038 0192     		str	r2, [sp, #4]
 352:Core/Src/main.c ****   __HAL_RCC_GPIOB_CLK_ENABLE();
 219              		.loc 1 352 3 view .LVU42
 220 003a 019A     		ldr	r2, [sp, #4]
 221              	.LBE5:
 352:Core/Src/main.c ****   __HAL_RCC_GPIOB_CLK_ENABLE();
 222              		.loc 1 352 3 view .LVU43
 353:Core/Src/main.c **** 
 223              		.loc 1 353 3 view .LVU44
 224              	.LBB6:
 353:Core/Src/main.c **** 
 225              		.loc 1 353 3 view .LVU45
 226 003c 0294     		str	r4, [sp, #8]
 353:Core/Src/main.c **** 
 227              		.loc 1 353 3 view .LVU46
 228 003e 1A6B     		ldr	r2, [r3, #48]
 229 0040 42F00202 		orr	r2, r2, #2
 230 0044 1A63     		str	r2, [r3, #48]
 353:Core/Src/main.c **** 
 231              		.loc 1 353 3 view .LVU47
ARM GAS  C:\Users\jdcox\AppData\Local\Temp\ccHRpQhd.s 			page 17


 232 0046 1B6B     		ldr	r3, [r3, #48]
 233 0048 03F00203 		and	r3, r3, #2
 234 004c 0293     		str	r3, [sp, #8]
 353:Core/Src/main.c **** 
 235              		.loc 1 353 3 view .LVU48
 236 004e 029B     		ldr	r3, [sp, #8]
 237              	.LBE6:
 353:Core/Src/main.c **** 
 238              		.loc 1 353 3 view .LVU49
 356:Core/Src/main.c **** 
 239              		.loc 1 356 3 view .LVU50
 240 0050 DFF89480 		ldr	r8, .L14+8
 241 0054 0122     		movs	r2, #1
 242 0056 0621     		movs	r1, #6
 243 0058 4046     		mov	r0, r8
 244 005a FFF7FEFF 		bl	HAL_GPIO_WritePin
 245              	.LVL3:
 359:Core/Src/main.c **** 
 246              		.loc 1 359 3 view .LVU51
 247 005e 214D     		ldr	r5, .L14+4
 248 0060 2246     		mov	r2, r4
 249 0062 4FF40071 		mov	r1, #512
 250 0066 2846     		mov	r0, r5
 251 0068 FFF7FEFF 		bl	HAL_GPIO_WritePin
 252              	.LVL4:
 362:Core/Src/main.c **** 
 253              		.loc 1 362 3 view .LVU52
 254 006c 0122     		movs	r2, #1
 255 006e 4FF48061 		mov	r1, #1024
 256 0072 2846     		mov	r0, r5
 257 0074 FFF7FEFF 		bl	HAL_GPIO_WritePin
 258              	.LVL5:
 365:Core/Src/main.c ****   GPIO_InitStruct.Mode = GPIO_MODE_IT_FALLING;
 259              		.loc 1 365 3 view .LVU53
 365:Core/Src/main.c ****   GPIO_InitStruct.Mode = GPIO_MODE_IT_FALLING;
 260              		.loc 1 365 23 is_stmt 0 view .LVU54
 261 0078 0126     		movs	r6, #1
 262 007a 0396     		str	r6, [sp, #12]
 366:Core/Src/main.c ****   GPIO_InitStruct.Pull = GPIO_PULLUP;
 263              		.loc 1 366 3 is_stmt 1 view .LVU55
 366:Core/Src/main.c ****   GPIO_InitStruct.Pull = GPIO_PULLUP;
 264              		.loc 1 366 24 is_stmt 0 view .LVU56
 265 007c 4FF40413 		mov	r3, #2162688
 266 0080 0493     		str	r3, [sp, #16]
 367:Core/Src/main.c ****   HAL_GPIO_Init(BTN_IN_GPIO_Port, &GPIO_InitStruct);
 267              		.loc 1 367 3 is_stmt 1 view .LVU57
 367:Core/Src/main.c ****   HAL_GPIO_Init(BTN_IN_GPIO_Port, &GPIO_InitStruct);
 268              		.loc 1 367 24 is_stmt 0 view .LVU58
 269 0082 0596     		str	r6, [sp, #20]
 368:Core/Src/main.c **** 
 270              		.loc 1 368 3 is_stmt 1 view .LVU59
 271 0084 03A9     		add	r1, sp, #12
 272 0086 4046     		mov	r0, r8
 273 0088 FFF7FEFF 		bl	HAL_GPIO_Init
 274              	.LVL6:
 371:Core/Src/main.c ****   GPIO_InitStruct.Mode = GPIO_MODE_OUTPUT_PP;
 275              		.loc 1 371 3 view .LVU60
ARM GAS  C:\Users\jdcox\AppData\Local\Temp\ccHRpQhd.s 			page 18


 371:Core/Src/main.c ****   GPIO_InitStruct.Mode = GPIO_MODE_OUTPUT_PP;
 276              		.loc 1 371 23 is_stmt 0 view .LVU61
 277 008c 0627     		movs	r7, #6
 278 008e 0397     		str	r7, [sp, #12]
 372:Core/Src/main.c ****   GPIO_InitStruct.Pull = GPIO_NOPULL;
 279              		.loc 1 372 3 is_stmt 1 view .LVU62
 372:Core/Src/main.c ****   GPIO_InitStruct.Pull = GPIO_NOPULL;
 280              		.loc 1 372 24 is_stmt 0 view .LVU63
 281 0090 0496     		str	r6, [sp, #16]
 373:Core/Src/main.c ****   GPIO_InitStruct.Speed = GPIO_SPEED_FREQ_LOW;
 282              		.loc 1 373 3 is_stmt 1 view .LVU64
 373:Core/Src/main.c ****   GPIO_InitStruct.Speed = GPIO_SPEED_FREQ_LOW;
 283              		.loc 1 373 24 is_stmt 0 view .LVU65
 284 0092 0594     		str	r4, [sp, #20]
 374:Core/Src/main.c ****   HAL_GPIO_Init(GPIOB, &GPIO_InitStruct);
 285              		.loc 1 374 3 is_stmt 1 view .LVU66
 374:Core/Src/main.c ****   HAL_GPIO_Init(GPIOB, &GPIO_InitStruct);
 286              		.loc 1 374 25 is_stmt 0 view .LVU67
 287 0094 0694     		str	r4, [sp, #24]
 375:Core/Src/main.c **** 
 288              		.loc 1 375 3 is_stmt 1 view .LVU68
 289 0096 03A9     		add	r1, sp, #12
 290 0098 4046     		mov	r0, r8
 291 009a FFF7FEFF 		bl	HAL_GPIO_Init
 292              	.LVL7:
 378:Core/Src/main.c ****   GPIO_InitStruct.Mode = GPIO_MODE_IT_RISING;
 293              		.loc 1 378 3 view .LVU69
 378:Core/Src/main.c ****   GPIO_InitStruct.Mode = GPIO_MODE_IT_RISING;
 294              		.loc 1 378 23 is_stmt 0 view .LVU70
 295 009e 4FF48073 		mov	r3, #256
 296 00a2 0393     		str	r3, [sp, #12]
 379:Core/Src/main.c ****   GPIO_InitStruct.Pull = GPIO_NOPULL;
 297              		.loc 1 379 3 is_stmt 1 view .LVU71
 379:Core/Src/main.c ****   GPIO_InitStruct.Pull = GPIO_NOPULL;
 298              		.loc 1 379 24 is_stmt 0 view .LVU72
 299 00a4 4FF48813 		mov	r3, #1114112
 300 00a8 0493     		str	r3, [sp, #16]
 380:Core/Src/main.c ****   HAL_GPIO_Init(LORA_EXTI_GPIO_Port, &GPIO_InitStruct);
 301              		.loc 1 380 3 is_stmt 1 view .LVU73
 380:Core/Src/main.c ****   HAL_GPIO_Init(LORA_EXTI_GPIO_Port, &GPIO_InitStruct);
 302              		.loc 1 380 24 is_stmt 0 view .LVU74
 303 00aa 0594     		str	r4, [sp, #20]
 381:Core/Src/main.c **** 
 304              		.loc 1 381 3 is_stmt 1 view .LVU75
 305 00ac 03A9     		add	r1, sp, #12
 306 00ae 2846     		mov	r0, r5
 307 00b0 FFF7FEFF 		bl	HAL_GPIO_Init
 308              	.LVL8:
 384:Core/Src/main.c ****   GPIO_InitStruct.Mode = GPIO_MODE_OUTPUT_PP;
 309              		.loc 1 384 3 view .LVU76
 384:Core/Src/main.c ****   GPIO_InitStruct.Mode = GPIO_MODE_OUTPUT_PP;
 310              		.loc 1 384 23 is_stmt 0 view .LVU77
 311 00b4 4FF4C063 		mov	r3, #1536
 312 00b8 0393     		str	r3, [sp, #12]
 385:Core/Src/main.c ****   GPIO_InitStruct.Pull = GPIO_NOPULL;
 313              		.loc 1 385 3 is_stmt 1 view .LVU78
 385:Core/Src/main.c ****   GPIO_InitStruct.Pull = GPIO_NOPULL;
ARM GAS  C:\Users\jdcox\AppData\Local\Temp\ccHRpQhd.s 			page 19


 314              		.loc 1 385 24 is_stmt 0 view .LVU79
 315 00ba 0496     		str	r6, [sp, #16]
 386:Core/Src/main.c ****   GPIO_InitStruct.Speed = GPIO_SPEED_FREQ_LOW;
 316              		.loc 1 386 3 is_stmt 1 view .LVU80
 386:Core/Src/main.c ****   GPIO_InitStruct.Speed = GPIO_SPEED_FREQ_LOW;
 317              		.loc 1 386 24 is_stmt 0 view .LVU81
 318 00bc 0594     		str	r4, [sp, #20]
 387:Core/Src/main.c ****   HAL_GPIO_Init(GPIOA, &GPIO_InitStruct);
 319              		.loc 1 387 3 is_stmt 1 view .LVU82
 387:Core/Src/main.c ****   HAL_GPIO_Init(GPIOA, &GPIO_InitStruct);
 320              		.loc 1 387 25 is_stmt 0 view .LVU83
 321 00be 0694     		str	r4, [sp, #24]
 388:Core/Src/main.c **** 
 322              		.loc 1 388 3 is_stmt 1 view .LVU84
 323 00c0 03A9     		add	r1, sp, #12
 324 00c2 2846     		mov	r0, r5
 325 00c4 FFF7FEFF 		bl	HAL_GPIO_Init
 326              	.LVL9:
 391:Core/Src/main.c ****   HAL_NVIC_EnableIRQ(EXTI0_IRQn);
 327              		.loc 1 391 3 view .LVU85
 328 00c8 2246     		mov	r2, r4
 329 00ca 0521     		movs	r1, #5
 330 00cc 3846     		mov	r0, r7
 331 00ce FFF7FEFF 		bl	HAL_NVIC_SetPriority
 332              	.LVL10:
 392:Core/Src/main.c **** 
 333              		.loc 1 392 3 view .LVU86
 334 00d2 3846     		mov	r0, r7
 335 00d4 FFF7FEFF 		bl	HAL_NVIC_EnableIRQ
 336              	.LVL11:
 394:Core/Src/main.c **** 
 337              		.loc 1 394 1 is_stmt 0 view .LVU87
 338 00d8 08B0     		add	sp, sp, #32
 339              	.LCFI2:
 340              		.cfi_def_cfa_offset 24
 341              		@ sp needed
 342 00da BDE8F081 		pop	{r4, r5, r6, r7, r8, pc}
 343              	.L15:
 344 00de 00BF     		.align	2
 345              	.L14:
 346 00e0 00380240 		.word	1073887232
 347 00e4 00000240 		.word	1073872896
 348 00e8 00040240 		.word	1073873920
 349              		.cfi_endproc
 350              	.LFE143:
 352              		.section	.text.MX_DMA_Init,"ax",%progbits
 353              		.align	1
 354              		.syntax unified
 355              		.thumb
 356              		.thumb_func
 358              	MX_DMA_Init:
 359              	.LFB142:
 322:Core/Src/main.c **** 
 360              		.loc 1 322 1 is_stmt 1 view -0
 361              		.cfi_startproc
 362              		@ args = 0, pretend = 0, frame = 8
 363              		@ frame_needed = 0, uses_anonymous_args = 0
ARM GAS  C:\Users\jdcox\AppData\Local\Temp\ccHRpQhd.s 			page 20


 364 0000 10B5     		push	{r4, lr}
 365              	.LCFI3:
 366              		.cfi_def_cfa_offset 8
 367              		.cfi_offset 4, -8
 368              		.cfi_offset 14, -4
 369 0002 82B0     		sub	sp, sp, #8
 370              	.LCFI4:
 371              		.cfi_def_cfa_offset 16
 325:Core/Src/main.c ****   __HAL_RCC_DMA2_CLK_ENABLE();
 372              		.loc 1 325 3 view .LVU89
 373              	.LBB7:
 325:Core/Src/main.c ****   __HAL_RCC_DMA2_CLK_ENABLE();
 374              		.loc 1 325 3 view .LVU90
 375 0004 0024     		movs	r4, #0
 376 0006 0094     		str	r4, [sp]
 325:Core/Src/main.c ****   __HAL_RCC_DMA2_CLK_ENABLE();
 377              		.loc 1 325 3 view .LVU91
 378 0008 164B     		ldr	r3, .L18
 379 000a 1A6B     		ldr	r2, [r3, #48]
 380 000c 42F40012 		orr	r2, r2, #2097152
 381 0010 1A63     		str	r2, [r3, #48]
 325:Core/Src/main.c ****   __HAL_RCC_DMA2_CLK_ENABLE();
 382              		.loc 1 325 3 view .LVU92
 383 0012 1A6B     		ldr	r2, [r3, #48]
 384 0014 02F40012 		and	r2, r2, #2097152
 385 0018 0092     		str	r2, [sp]
 325:Core/Src/main.c ****   __HAL_RCC_DMA2_CLK_ENABLE();
 386              		.loc 1 325 3 view .LVU93
 387 001a 009A     		ldr	r2, [sp]
 388              	.LBE7:
 325:Core/Src/main.c ****   __HAL_RCC_DMA2_CLK_ENABLE();
 389              		.loc 1 325 3 view .LVU94
 326:Core/Src/main.c **** 
 390              		.loc 1 326 3 view .LVU95
 391              	.LBB8:
 326:Core/Src/main.c **** 
 392              		.loc 1 326 3 view .LVU96
 393 001c 0194     		str	r4, [sp, #4]
 326:Core/Src/main.c **** 
 394              		.loc 1 326 3 view .LVU97
 395 001e 1A6B     		ldr	r2, [r3, #48]
 396 0020 42F48002 		orr	r2, r2, #4194304
 397 0024 1A63     		str	r2, [r3, #48]
 326:Core/Src/main.c **** 
 398              		.loc 1 326 3 view .LVU98
 399 0026 1B6B     		ldr	r3, [r3, #48]
 400 0028 03F48003 		and	r3, r3, #4194304
 401 002c 0193     		str	r3, [sp, #4]
 326:Core/Src/main.c **** 
 402              		.loc 1 326 3 view .LVU99
 403 002e 019B     		ldr	r3, [sp, #4]
 404              	.LBE8:
 326:Core/Src/main.c **** 
 405              		.loc 1 326 3 view .LVU100
 330:Core/Src/main.c ****   HAL_NVIC_EnableIRQ(DMA1_Stream6_IRQn);
 406              		.loc 1 330 3 view .LVU101
 407 0030 2246     		mov	r2, r4
ARM GAS  C:\Users\jdcox\AppData\Local\Temp\ccHRpQhd.s 			page 21


 408 0032 0521     		movs	r1, #5
 409 0034 1120     		movs	r0, #17
 410 0036 FFF7FEFF 		bl	HAL_NVIC_SetPriority
 411              	.LVL12:
 331:Core/Src/main.c ****   /* DMA2_Stream0_IRQn interrupt configuration */
 412              		.loc 1 331 3 view .LVU102
 413 003a 1120     		movs	r0, #17
 414 003c FFF7FEFF 		bl	HAL_NVIC_EnableIRQ
 415              	.LVL13:
 333:Core/Src/main.c ****   HAL_NVIC_EnableIRQ(DMA2_Stream0_IRQn);
 416              		.loc 1 333 3 view .LVU103
 417 0040 2246     		mov	r2, r4
 418 0042 0521     		movs	r1, #5
 419 0044 3820     		movs	r0, #56
 420 0046 FFF7FEFF 		bl	HAL_NVIC_SetPriority
 421              	.LVL14:
 334:Core/Src/main.c ****   /* DMA2_Stream3_IRQn interrupt configuration */
 422              		.loc 1 334 3 view .LVU104
 423 004a 3820     		movs	r0, #56
 424 004c FFF7FEFF 		bl	HAL_NVIC_EnableIRQ
 425              	.LVL15:
 336:Core/Src/main.c ****   HAL_NVIC_EnableIRQ(DMA2_Stream3_IRQn);
 426              		.loc 1 336 3 view .LVU105
 427 0050 2246     		mov	r2, r4
 428 0052 0521     		movs	r1, #5
 429 0054 3B20     		movs	r0, #59
 430 0056 FFF7FEFF 		bl	HAL_NVIC_SetPriority
 431              	.LVL16:
 337:Core/Src/main.c **** 
 432              		.loc 1 337 3 view .LVU106
 433 005a 3B20     		movs	r0, #59
 434 005c FFF7FEFF 		bl	HAL_NVIC_EnableIRQ
 435              	.LVL17:
 339:Core/Src/main.c **** 
 436              		.loc 1 339 1 is_stmt 0 view .LVU107
 437 0060 02B0     		add	sp, sp, #8
 438              	.LCFI5:
 439              		.cfi_def_cfa_offset 8
 440              		@ sp needed
 441 0062 10BD     		pop	{r4, pc}
 442              	.L19:
 443              		.align	2
 444              	.L18:
 445 0064 00380240 		.word	1073887232
 446              		.cfi_endproc
 447              	.LFE142:
 449              		.section	.text.StartDisplayTask,"ax",%progbits
 450              		.align	1
 451              		.global	StartDisplayTask
 452              		.syntax unified
 453              		.thumb
 454              		.thumb_func
 456              	StartDisplayTask:
 457              	.LFB146:
 604:Core/Src/main.c ****   /* USER CODE BEGIN StartDisplayTask */
 458              		.loc 1 604 1 is_stmt 1 view -0
 459              		.cfi_startproc
ARM GAS  C:\Users\jdcox\AppData\Local\Temp\ccHRpQhd.s 			page 22


 460              		@ Volatile: function does not return.
 461              		@ args = 0, pretend = 0, frame = 0
 462              		@ frame_needed = 0, uses_anonymous_args = 0
 463              	.LVL18:
 604:Core/Src/main.c ****   /* USER CODE BEGIN StartDisplayTask */
 464              		.loc 1 604 1 is_stmt 0 view .LVU109
 465 0000 08B5     		push	{r3, lr}
 466              	.LCFI6:
 467              		.cfi_def_cfa_offset 8
 468              		.cfi_offset 3, -8
 469              		.cfi_offset 14, -4
 470              	.LVL19:
 471              	.L21:
 607:Core/Src/main.c ****   {
 472              		.loc 1 607 3 is_stmt 1 discriminator 1 view .LVU110
 610:Core/Src/main.c ****   }
 473              		.loc 1 610 5 discriminator 1 view .LVU111
 474 0002 6420     		movs	r0, #100
 475 0004 FFF7FEFF 		bl	osDelay
 476              	.LVL20:
 607:Core/Src/main.c ****   {
 477              		.loc 1 607 3 discriminator 1 view .LVU112
 478 0008 FBE7     		b	.L21
 479              		.cfi_endproc
 480              	.LFE146:
 482              		.section	.rodata.StartDefaultTask.str1.4,"aMS",%progbits,1
 483              		.align	2
 484              	.LC6:
 485 0000 4B494E47 		.ascii	"KING\000"
 485      00
 486 0005 000000   		.align	2
 487              	.LC7:
 488 0008 4F4600   		.ascii	"OF\000"
 489 000b 00       		.align	2
 490              	.LC8:
 491 000c 54484500 		.ascii	"THE\000"
 492              		.align	2
 493              	.LC9:
 494 0010 48494C4C 		.ascii	"HILL\000"
 494      00
 495 0015 000000   		.align	2
 496              	.LC10:
 497 0018 50757368 		.ascii	"Push to play\000"
 497      20746F20 
 497      706C6179 
 497      00
 498 0025 000000   		.align	2
 499              	.LC11:
 500 0028 596F7520 		.ascii	"You are king\000"
 500      61726520 
 500      6B696E67 
 500      00
 501 0035 000000   		.align	2
 502              	.LC12:
 503 0038 6F662074 		.ascii	"of the hill!\000"
 503      68652068 
 503      696C6C21 
ARM GAS  C:\Users\jdcox\AppData\Local\Temp\ccHRpQhd.s 			page 23


 503      00
 504 0045 000000   		.align	2
 505              	.LC13:
 506 0048 54616B65 		.ascii	"Take the hill!!\000"
 506      20746865 
 506      2068696C 
 506      6C212100 
 507              		.align	2
 508              	.LC14:
 509 0058 50312077 		.ascii	"P1 wins!\000"
 509      696E7321 
 509      00
 510 0061 000000   		.align	2
 511              	.LC15:
 512 0064 576F6E20 		.ascii	"Won by %ums\000"
 512      62792025 
 512      756D7300 
 513              		.align	2
 514              	.LC16:
 515 0070 50322077 		.ascii	"P2 wins!\000"
 515      696E7321 
 515      00
 516 0079 000000   		.align	2
 517              	.LC17:
 518 007c 50656E61 		.ascii	"Penalty!\000"
 518      6C747921 
 518      00
 519              		.section	.text.StartDefaultTask,"ax",%progbits
 520              		.align	1
 521              		.global	StartDefaultTask
 522              		.syntax unified
 523              		.thumb
 524              		.thumb_func
 526              	StartDefaultTask:
 527              	.LVL21:
 528              	.LFB144:
 408:Core/Src/main.c ****   /* USER CODE BEGIN 5 */
 529              		.loc 1 408 1 view -0
 530              		.cfi_startproc
 531              		@ args = 0, pretend = 0, frame = 16
 532              		@ frame_needed = 0, uses_anonymous_args = 0
 408:Core/Src/main.c ****   /* USER CODE BEGIN 5 */
 533              		.loc 1 408 1 is_stmt 0 view .LVU114
 534 0000 30B5     		push	{r4, r5, lr}
 535              	.LCFI7:
 536              		.cfi_def_cfa_offset 12
 537              		.cfi_offset 4, -12
 538              		.cfi_offset 5, -8
 539              		.cfi_offset 14, -4
 540 0002 87B0     		sub	sp, sp, #28
 541              	.LCFI8:
 542              		.cfi_def_cfa_offset 40
 410:Core/Src/main.c ****   //xSemaphoreTake(xloraMutex, portMAX_DELAY);
 543              		.loc 1 410 3 is_stmt 1 view .LVU115
 410:Core/Src/main.c ****   //xSemaphoreTake(xloraMutex, portMAX_DELAY);
 544              		.loc 1 410 16 is_stmt 0 view .LVU116
 545 0004 0120     		movs	r0, #1
ARM GAS  C:\Users\jdcox\AppData\Local\Temp\ccHRpQhd.s 			page 24


 546              	.LVL22:
 410:Core/Src/main.c ****   //xSemaphoreTake(xloraMutex, portMAX_DELAY);
 547              		.loc 1 410 16 view .LVU117
 548 0006 FFF7FEFF 		bl	xQueueCreateMutex
 549              	.LVL23:
 410:Core/Src/main.c ****   //xSemaphoreTake(xloraMutex, portMAX_DELAY);
 550              		.loc 1 410 14 view .LVU118
 551 000a B14B     		ldr	r3, .L36+8
 552 000c 1860     		str	r0, [r3]
 413:Core/Src/main.c ****   if (res != LORA_OK) {
 553              		.loc 1 413 3 is_stmt 1 view .LVU119
 413:Core/Src/main.c ****   if (res != LORA_OK) {
 554              		.loc 1 413 17 is_stmt 0 view .LVU120
 555 000e B14D     		ldr	r5, .L36+12
 556 0010 ADA3     		adr	r3, .L36
 557 0012 D3E90023 		ldrd	r2, [r3]
 558 0016 CDE90023 		strd	r2, [sp]
 559 001a 4FF48063 		mov	r3, #1024
 560 001e AE4A     		ldr	r2, .L36+16
 561 0020 AE49     		ldr	r1, .L36+20
 562 0022 2846     		mov	r0, r5
 563 0024 FFF7FEFF 		bl	lora_init
 564              	.LVL24:
 414:Core/Src/main.c ****     // Initialization failed
 565              		.loc 1 414 3 is_stmt 1 view .LVU121
 425:Core/Src/main.c ****   ssd1306_Init();
 566              		.loc 1 425 3 view .LVU122
 567 0028 0122     		movs	r2, #1
 568 002a 0221     		movs	r1, #2
 569 002c AC48     		ldr	r0, .L36+24
 570 002e FFF7FEFF 		bl	HAL_GPIO_WritePin
 571              	.LVL25:
 426:Core/Src/main.c ****   ssd1306_SetCursor(0,0);
 572              		.loc 1 426 3 view .LVU123
 573 0032 FFF7FEFF 		bl	ssd1306_Init
 574              	.LVL26:
 427:Core/Src/main.c ****   ssd1306_WriteString("KING",Font_16x24,1);
 575              		.loc 1 427 3 view .LVU124
 576 0036 0021     		movs	r1, #0
 577 0038 0846     		mov	r0, r1
 578 003a FFF7FEFF 		bl	ssd1306_SetCursor
 579              	.LVL27:
 428:Core/Src/main.c ****   ssd1306_UpdateScreen();
 580              		.loc 1 428 3 view .LVU125
 581 003e A94C     		ldr	r4, .L36+28
 582 0040 0123     		movs	r3, #1
 583 0042 94E80600 		ldm	r4, {r1, r2}
 584 0046 A848     		ldr	r0, .L36+32
 585 0048 FFF7FEFF 		bl	ssd1306_WriteString
 586              	.LVL28:
 429:Core/Src/main.c ****   osDelay(750);
 587              		.loc 1 429 3 view .LVU126
 588 004c FFF7FEFF 		bl	ssd1306_UpdateScreen
 589              	.LVL29:
 430:Core/Src/main.c ****   ssd1306_Fill(0);
 590              		.loc 1 430 3 view .LVU127
 591 0050 40F2EE20 		movw	r0, #750
ARM GAS  C:\Users\jdcox\AppData\Local\Temp\ccHRpQhd.s 			page 25


 592 0054 FFF7FEFF 		bl	osDelay
 593              	.LVL30:
 431:Core/Src/main.c ****   ssd1306_SetCursor(64,0);
 594              		.loc 1 431 3 view .LVU128
 595 0058 0020     		movs	r0, #0
 596 005a FFF7FEFF 		bl	ssd1306_Fill
 597              	.LVL31:
 432:Core/Src/main.c ****   ssd1306_WriteString("OF",Font_16x24,1);
 598              		.loc 1 432 3 view .LVU129
 599 005e 0021     		movs	r1, #0
 600 0060 4020     		movs	r0, #64
 601 0062 FFF7FEFF 		bl	ssd1306_SetCursor
 602              	.LVL32:
 433:Core/Src/main.c ****   ssd1306_UpdateScreen();
 603              		.loc 1 433 3 view .LVU130
 604 0066 0123     		movs	r3, #1
 605 0068 94E80600 		ldm	r4, {r1, r2}
 606 006c 9F48     		ldr	r0, .L36+36
 607 006e FFF7FEFF 		bl	ssd1306_WriteString
 608              	.LVL33:
 434:Core/Src/main.c ****   osDelay(750);
 609              		.loc 1 434 3 view .LVU131
 610 0072 FFF7FEFF 		bl	ssd1306_UpdateScreen
 611              	.LVL34:
 435:Core/Src/main.c ****   ssd1306_Fill(0);
 612              		.loc 1 435 3 view .LVU132
 613 0076 40F2EE20 		movw	r0, #750
 614 007a FFF7FEFF 		bl	osDelay
 615              	.LVL35:
 436:Core/Src/main.c ****   ssd1306_SetCursor(0,8);
 616              		.loc 1 436 3 view .LVU133
 617 007e 0020     		movs	r0, #0
 618 0080 FFF7FEFF 		bl	ssd1306_Fill
 619              	.LVL36:
 437:Core/Src/main.c ****   ssd1306_WriteString("THE",Font_16x24,1);
 620              		.loc 1 437 3 view .LVU134
 621 0084 0821     		movs	r1, #8
 622 0086 0020     		movs	r0, #0
 623 0088 FFF7FEFF 		bl	ssd1306_SetCursor
 624              	.LVL37:
 438:Core/Src/main.c ****   ssd1306_UpdateScreen();
 625              		.loc 1 438 3 view .LVU135
 626 008c 0123     		movs	r3, #1
 627 008e 94E80600 		ldm	r4, {r1, r2}
 628 0092 9748     		ldr	r0, .L36+40
 629 0094 FFF7FEFF 		bl	ssd1306_WriteString
 630              	.LVL38:
 439:Core/Src/main.c ****   osDelay(750);
 631              		.loc 1 439 3 view .LVU136
 632 0098 FFF7FEFF 		bl	ssd1306_UpdateScreen
 633              	.LVL39:
 440:Core/Src/main.c ****   ssd1306_Fill(0);
 634              		.loc 1 440 3 view .LVU137
 635 009c 40F2EE20 		movw	r0, #750
 636 00a0 FFF7FEFF 		bl	osDelay
 637              	.LVL40:
 441:Core/Src/main.c ****   ssd1306_SetCursor(64,8);
ARM GAS  C:\Users\jdcox\AppData\Local\Temp\ccHRpQhd.s 			page 26


 638              		.loc 1 441 3 view .LVU138
 639 00a4 0020     		movs	r0, #0
 640 00a6 FFF7FEFF 		bl	ssd1306_Fill
 641              	.LVL41:
 442:Core/Src/main.c ****   ssd1306_WriteString("HILL",Font_16x24,1);
 642              		.loc 1 442 3 view .LVU139
 643 00aa 0821     		movs	r1, #8
 644 00ac 4020     		movs	r0, #64
 645 00ae FFF7FEFF 		bl	ssd1306_SetCursor
 646              	.LVL42:
 443:Core/Src/main.c ****   ssd1306_UpdateScreen();
 647              		.loc 1 443 3 view .LVU140
 648 00b2 0123     		movs	r3, #1
 649 00b4 94E80600 		ldm	r4, {r1, r2}
 650 00b8 8E48     		ldr	r0, .L36+44
 651 00ba FFF7FEFF 		bl	ssd1306_WriteString
 652              	.LVL43:
 444:Core/Src/main.c **** 
 653              		.loc 1 444 3 view .LVU141
 654 00be FFF7FEFF 		bl	ssd1306_UpdateScreen
 655              	.LVL44:
 446:Core/Src/main.c **** 
 656              		.loc 1 446 3 view .LVU142
 657 00c2 2846     		mov	r0, r5
 658 00c4 FFF7FEFF 		bl	lora_mode_receive_continuous
 659              	.LVL45:
 448:Core/Src/main.c **** 
 660              		.loc 1 448 3 view .LVU143
 661 00c8 4FF4FA60 		mov	r0, #2000
 662 00cc FFF7FEFF 		bl	osDelay
 663              	.LVL46:
 450:Core/Src/main.c ****   stateChange_flag = 1;
 664              		.loc 1 450 3 view .LVU144
 450:Core/Src/main.c ****   stateChange_flag = 1;
 665              		.loc 1 450 13 is_stmt 0 view .LVU145
 666 00d0 894B     		ldr	r3, .L36+48
 667 00d2 0022     		movs	r2, #0
 668 00d4 1A70     		strb	r2, [r3]
 451:Core/Src/main.c ****   
 669              		.loc 1 451 3 is_stmt 1 view .LVU146
 451:Core/Src/main.c ****   
 670              		.loc 1 451 20 is_stmt 0 view .LVU147
 671 00d6 894B     		ldr	r3, .L36+52
 672 00d8 0122     		movs	r2, #1
 673 00da 1A70     		strb	r2, [r3]
 674 00dc 05E0     		b	.L32
 675              	.L31:
 463:Core/Src/main.c ****         {
 676              		.loc 1 463 9 is_stmt 1 view .LVU148
 463:Core/Src/main.c ****         {
 677              		.loc 1 463 12 is_stmt 0 view .LVU149
 678 00de 874B     		ldr	r3, .L36+52
 679 00e0 1B78     		ldrb	r3, [r3]	@ zero_extendqisi2
 463:Core/Src/main.c ****         {
 680              		.loc 1 463 11 view .LVU150
 681 00e2 CBB9     		cbnz	r3, .L35
 682              	.L24:
ARM GAS  C:\Users\jdcox\AppData\Local\Temp\ccHRpQhd.s 			page 27


 550:Core/Src/main.c ****    
 683              		.loc 1 550 5 is_stmt 1 view .LVU151
 684 00e4 0120     		movs	r0, #1
 685 00e6 FFF7FEFF 		bl	osDelay
 686              	.LVL47:
 455:Core/Src/main.c ****   {
 687              		.loc 1 455 3 view .LVU152
 688              	.L32:
 455:Core/Src/main.c ****   {
 689              		.loc 1 455 3 view .LVU153
 458:Core/Src/main.c ****     
 690              		.loc 1 458 5 view .LVU154
 691 00ea 0221     		movs	r1, #2
 692 00ec 7C48     		ldr	r0, .L36+24
 693 00ee FFF7FEFF 		bl	HAL_GPIO_TogglePin
 694              	.LVL48:
 460:Core/Src/main.c ****     {
 695              		.loc 1 460 5 view .LVU155
 696 00f2 814B     		ldr	r3, .L36+48
 697 00f4 1B78     		ldrb	r3, [r3]	@ zero_extendqisi2
 698 00f6 052B     		cmp	r3, #5
 699 00f8 F4D8     		bhi	.L24
 700 00fa 01A2     		adr	r2, .L26
 701 00fc 52F823F0 		ldr	pc, [r2, r3, lsl #2]
 702              		.p2align 2
 703              	.L26:
 704 0100 DF000000 		.word	.L31+1
 705 0104 3F010000 		.word	.L30+1
 706 0108 8D010000 		.word	.L29+1
 707 010c C5010000 		.word	.L28+1
 708 0110 27020000 		.word	.L27+1
 709 0114 8B020000 		.word	.L25+1
 710              		.p2align 1
 711              	.L35:
 465:Core/Src/main.c ****           ssd1306_Fill(0); 
 712              		.loc 1 465 11 view .LVU156
 465:Core/Src/main.c ****           ssd1306_Fill(0); 
 713              		.loc 1 465 28 is_stmt 0 view .LVU157
 714 0118 0024     		movs	r4, #0
 715 011a 784B     		ldr	r3, .L36+52
 716 011c 1C70     		strb	r4, [r3]
 466:Core/Src/main.c ****           ssd1306_SetCursor(0,0);
 717              		.loc 1 466 11 is_stmt 1 view .LVU158
 718 011e 2046     		mov	r0, r4
 719 0120 FFF7FEFF 		bl	ssd1306_Fill
 720              	.LVL49:
 467:Core/Src/main.c ****           ssd1306_WriteString("Push to play",Font_7x10,1);
 721              		.loc 1 467 11 view .LVU159
 722 0124 2146     		mov	r1, r4
 723 0126 2046     		mov	r0, r4
 724 0128 FFF7FEFF 		bl	ssd1306_SetCursor
 725              	.LVL50:
 468:Core/Src/main.c ****           ssd1306_UpdateScreen();
 726              		.loc 1 468 11 view .LVU160
 727 012c 744A     		ldr	r2, .L36+56
 728 012e 0123     		movs	r3, #1
 729 0130 06CA     		ldm	r2, {r1, r2}
ARM GAS  C:\Users\jdcox\AppData\Local\Temp\ccHRpQhd.s 			page 28


 730 0132 7448     		ldr	r0, .L36+60
 731 0134 FFF7FEFF 		bl	ssd1306_WriteString
 732              	.LVL51:
 469:Core/Src/main.c ****         }
 733              		.loc 1 469 11 view .LVU161
 734 0138 FFF7FEFF 		bl	ssd1306_UpdateScreen
 735              	.LVL52:
 736 013c D2E7     		b	.L24
 737              	.L30:
 474:Core/Src/main.c ****         {
 738              		.loc 1 474 9 view .LVU162
 474:Core/Src/main.c ****         {
 739              		.loc 1 474 12 is_stmt 0 view .LVU163
 740 013e 6F4B     		ldr	r3, .L36+52
 741 0140 1B78     		ldrb	r3, [r3]	@ zero_extendqisi2
 474:Core/Src/main.c ****         {
 742              		.loc 1 474 11 view .LVU164
 743 0142 002B     		cmp	r3, #0
 744 0144 CED0     		beq	.L24
 476:Core/Src/main.c ****           P1LED_OFF; // The hill is yours
 745              		.loc 1 476 11 is_stmt 1 view .LVU165
 476:Core/Src/main.c ****           P1LED_OFF; // The hill is yours
 746              		.loc 1 476 28 is_stmt 0 view .LVU166
 747 0146 0024     		movs	r4, #0
 748 0148 6C4B     		ldr	r3, .L36+52
 749 014a 1C70     		strb	r4, [r3]
 477:Core/Src/main.c ****           ssd1306_Fill(0);
 750              		.loc 1 477 11 is_stmt 1 view .LVU167
 751 014c 0122     		movs	r2, #1
 752 014e 0221     		movs	r1, #2
 753 0150 6348     		ldr	r0, .L36+24
 754 0152 FFF7FEFF 		bl	HAL_GPIO_WritePin
 755              	.LVL53:
 478:Core/Src/main.c ****           ssd1306_SetCursor(0,0);
 756              		.loc 1 478 11 view .LVU168
 757 0156 2046     		mov	r0, r4
 758 0158 FFF7FEFF 		bl	ssd1306_Fill
 759              	.LVL54:
 479:Core/Src/main.c ****           ssd1306_WriteString("You are king",Font_7x10,1);
 760              		.loc 1 479 11 view .LVU169
 761 015c 2146     		mov	r1, r4
 762 015e 2046     		mov	r0, r4
 763 0160 FFF7FEFF 		bl	ssd1306_SetCursor
 764              	.LVL55:
 480:Core/Src/main.c ****           ssd1306_SetCursor(0,10);
 765              		.loc 1 480 11 view .LVU170
 766 0164 664D     		ldr	r5, .L36+56
 767 0166 0123     		movs	r3, #1
 768 0168 95E80600 		ldm	r5, {r1, r2}
 769 016c 6648     		ldr	r0, .L36+64
 770 016e FFF7FEFF 		bl	ssd1306_WriteString
 771              	.LVL56:
 481:Core/Src/main.c ****           ssd1306_WriteString("of the hill!",Font_7x10,1);
 772              		.loc 1 481 11 view .LVU171
 773 0172 0A21     		movs	r1, #10
 774 0174 2046     		mov	r0, r4
 775 0176 FFF7FEFF 		bl	ssd1306_SetCursor
ARM GAS  C:\Users\jdcox\AppData\Local\Temp\ccHRpQhd.s 			page 29


 776              	.LVL57:
 482:Core/Src/main.c ****           ssd1306_UpdateScreen();
 777              		.loc 1 482 11 view .LVU172
 778 017a 0123     		movs	r3, #1
 779 017c 95E80600 		ldm	r5, {r1, r2}
 780 0180 6248     		ldr	r0, .L36+68
 781 0182 FFF7FEFF 		bl	ssd1306_WriteString
 782              	.LVL58:
 483:Core/Src/main.c ****         }
 783              		.loc 1 483 11 view .LVU173
 784 0186 FFF7FEFF 		bl	ssd1306_UpdateScreen
 785              	.LVL59:
 786 018a ABE7     		b	.L24
 787              	.L29:
 488:Core/Src/main.c ****         {
 788              		.loc 1 488 9 view .LVU174
 488:Core/Src/main.c ****         {
 789              		.loc 1 488 12 is_stmt 0 view .LVU175
 790 018c 5B4B     		ldr	r3, .L36+52
 791 018e 1B78     		ldrb	r3, [r3]	@ zero_extendqisi2
 488:Core/Src/main.c ****         {
 792              		.loc 1 488 11 view .LVU176
 793 0190 002B     		cmp	r3, #0
 794 0192 A7D0     		beq	.L24
 490:Core/Src/main.c ****           P1LED_ON; // Better push the button!
 795              		.loc 1 490 11 is_stmt 1 view .LVU177
 490:Core/Src/main.c ****           P1LED_ON; // Better push the button!
 796              		.loc 1 490 28 is_stmt 0 view .LVU178
 797 0194 0024     		movs	r4, #0
 798 0196 594B     		ldr	r3, .L36+52
 799 0198 1C70     		strb	r4, [r3]
 491:Core/Src/main.c ****           ssd1306_Fill(0);
 800              		.loc 1 491 11 is_stmt 1 view .LVU179
 801 019a 2246     		mov	r2, r4
 802 019c 0221     		movs	r1, #2
 803 019e 5048     		ldr	r0, .L36+24
 804 01a0 FFF7FEFF 		bl	HAL_GPIO_WritePin
 805              	.LVL60:
 492:Core/Src/main.c ****           ssd1306_SetCursor(0,0);
 806              		.loc 1 492 11 view .LVU180
 807 01a4 2046     		mov	r0, r4
 808 01a6 FFF7FEFF 		bl	ssd1306_Fill
 809              	.LVL61:
 493:Core/Src/main.c ****           ssd1306_WriteString("Take the hill!!",Font_7x10,1);
 810              		.loc 1 493 11 view .LVU181
 811 01aa 2146     		mov	r1, r4
 812 01ac 2046     		mov	r0, r4
 813 01ae FFF7FEFF 		bl	ssd1306_SetCursor
 814              	.LVL62:
 494:Core/Src/main.c ****           ssd1306_UpdateScreen();
 815              		.loc 1 494 11 view .LVU182
 816 01b2 534A     		ldr	r2, .L36+56
 817 01b4 0123     		movs	r3, #1
 818 01b6 06CA     		ldm	r2, {r1, r2}
 819 01b8 5548     		ldr	r0, .L36+72
 820 01ba FFF7FEFF 		bl	ssd1306_WriteString
 821              	.LVL63:
ARM GAS  C:\Users\jdcox\AppData\Local\Temp\ccHRpQhd.s 			page 30


 495:Core/Src/main.c ****         }
 822              		.loc 1 495 11 view .LVU183
 823 01be FFF7FEFF 		bl	ssd1306_UpdateScreen
 824              	.LVL64:
 825 01c2 8FE7     		b	.L24
 826              	.L28:
 500:Core/Src/main.c ****         {
 827              		.loc 1 500 9 view .LVU184
 500:Core/Src/main.c ****         {
 828              		.loc 1 500 12 is_stmt 0 view .LVU185
 829 01c4 4D4B     		ldr	r3, .L36+52
 830 01c6 1B78     		ldrb	r3, [r3]	@ zero_extendqisi2
 500:Core/Src/main.c ****         {
 831              		.loc 1 500 11 view .LVU186
 832 01c8 002B     		cmp	r3, #0
 833 01ca 8BD0     		beq	.L24
 834              	.LBB9:
 502:Core/Src/main.c ****           P1LED_OFF;
 835              		.loc 1 502 11 is_stmt 1 view .LVU187
 502:Core/Src/main.c ****           P1LED_OFF;
 836              		.loc 1 502 28 is_stmt 0 view .LVU188
 837 01cc 0024     		movs	r4, #0
 838 01ce 4B4B     		ldr	r3, .L36+52
 839 01d0 1C70     		strb	r4, [r3]
 503:Core/Src/main.c ****           ssd1306_Fill(0);
 840              		.loc 1 503 11 is_stmt 1 view .LVU189
 841 01d2 0122     		movs	r2, #1
 842 01d4 0221     		movs	r1, #2
 843 01d6 4248     		ldr	r0, .L36+24
 844 01d8 FFF7FEFF 		bl	HAL_GPIO_WritePin
 845              	.LVL65:
 504:Core/Src/main.c ****           ssd1306_SetCursor(0,0);
 846              		.loc 1 504 11 view .LVU190
 847 01dc 2046     		mov	r0, r4
 848 01de FFF7FEFF 		bl	ssd1306_Fill
 849              	.LVL66:
 505:Core/Src/main.c ****           ssd1306_WriteString("P1 wins!",Font_7x10,1);
 850              		.loc 1 505 11 view .LVU191
 851 01e2 2146     		mov	r1, r4
 852 01e4 2046     		mov	r0, r4
 853 01e6 FFF7FEFF 		bl	ssd1306_SetCursor
 854              	.LVL67:
 506:Core/Src/main.c ****           char score [16];
 855              		.loc 1 506 11 view .LVU192
 856 01ea 454D     		ldr	r5, .L36+56
 857 01ec 0123     		movs	r3, #1
 858 01ee 95E80600 		ldm	r5, {r1, r2}
 859 01f2 4848     		ldr	r0, .L36+76
 860 01f4 FFF7FEFF 		bl	ssd1306_WriteString
 861              	.LVL68:
 507:Core/Src/main.c ****           uint16_t difference = p1King_counter - p2King_counter;
 862              		.loc 1 507 11 view .LVU193
 508:Core/Src/main.c ****           sprintf(score, "Won by %ums", difference);
 863              		.loc 1 508 11 view .LVU194
 508:Core/Src/main.c ****           sprintf(score, "Won by %ums", difference);
 864              		.loc 1 508 48 is_stmt 0 view .LVU195
 865 01f8 474B     		ldr	r3, .L36+80
ARM GAS  C:\Users\jdcox\AppData\Local\Temp\ccHRpQhd.s 			page 31


 866 01fa 1A88     		ldrh	r2, [r3]
 867 01fc 474B     		ldr	r3, .L36+84
 868 01fe 1B88     		ldrh	r3, [r3]
 508:Core/Src/main.c ****           sprintf(score, "Won by %ums", difference);
 869              		.loc 1 508 20 view .LVU196
 870 0200 D21A     		subs	r2, r2, r3
 871              	.LVL69:
 509:Core/Src/main.c ****           lcd_put_cur(1,0);
 872              		.loc 1 509 11 is_stmt 1 view .LVU197
 873 0202 92B2     		uxth	r2, r2
 509:Core/Src/main.c ****           lcd_put_cur(1,0);
 874              		.loc 1 509 11 is_stmt 0 view .LVU198
 875 0204 4649     		ldr	r1, .L36+88
 876 0206 02A8     		add	r0, sp, #8
 877 0208 FFF7FEFF 		bl	sprintf
 878              	.LVL70:
 510:Core/Src/main.c ****           ssd1306_WriteString(score,Font_7x10,1);
 879              		.loc 1 510 11 is_stmt 1 view .LVU199
 880 020c 2146     		mov	r1, r4
 881 020e 0120     		movs	r0, #1
 882 0210 FFF7FEFF 		bl	lcd_put_cur
 883              	.LVL71:
 511:Core/Src/main.c ****           ssd1306_UpdateScreen();
 884              		.loc 1 511 11 view .LVU200
 885 0214 0123     		movs	r3, #1
 886 0216 95E80600 		ldm	r5, {r1, r2}
 887 021a 02A8     		add	r0, sp, #8
 888 021c FFF7FEFF 		bl	ssd1306_WriteString
 889              	.LVL72:
 512:Core/Src/main.c **** 
 890              		.loc 1 512 11 view .LVU201
 891 0220 FFF7FEFF 		bl	ssd1306_UpdateScreen
 892              	.LVL73:
 893 0224 5EE7     		b	.L24
 894              	.L27:
 512:Core/Src/main.c **** 
 895              		.loc 1 512 11 is_stmt 0 view .LVU202
 896              	.LBE9:
 518:Core/Src/main.c ****         {
 897              		.loc 1 518 9 is_stmt 1 view .LVU203
 518:Core/Src/main.c ****         {
 898              		.loc 1 518 12 is_stmt 0 view .LVU204
 899 0226 354B     		ldr	r3, .L36+52
 900 0228 1B78     		ldrb	r3, [r3]	@ zero_extendqisi2
 518:Core/Src/main.c ****         {
 901              		.loc 1 518 11 view .LVU205
 902 022a 002B     		cmp	r3, #0
 903 022c 3FF45AAF 		beq	.L24
 904              	.LBB10:
 520:Core/Src/main.c ****           P1LED_OFF;
 905              		.loc 1 520 11 is_stmt 1 view .LVU206
 520:Core/Src/main.c ****           P1LED_OFF;
 906              		.loc 1 520 28 is_stmt 0 view .LVU207
 907 0230 0024     		movs	r4, #0
 908 0232 324B     		ldr	r3, .L36+52
 909 0234 1C70     		strb	r4, [r3]
 521:Core/Src/main.c ****           ssd1306_Fill(0);
ARM GAS  C:\Users\jdcox\AppData\Local\Temp\ccHRpQhd.s 			page 32


 910              		.loc 1 521 11 is_stmt 1 view .LVU208
 911 0236 0122     		movs	r2, #1
 912 0238 0221     		movs	r1, #2
 913 023a 2948     		ldr	r0, .L36+24
 914 023c FFF7FEFF 		bl	HAL_GPIO_WritePin
 915              	.LVL74:
 522:Core/Src/main.c ****           ssd1306_SetCursor(0,0);
 916              		.loc 1 522 11 view .LVU209
 917 0240 2046     		mov	r0, r4
 918 0242 FFF7FEFF 		bl	ssd1306_Fill
 919              	.LVL75:
 523:Core/Src/main.c ****           ssd1306_WriteString("P2 wins!",Font_7x10,1);
 920              		.loc 1 523 11 view .LVU210
 921 0246 2146     		mov	r1, r4
 922 0248 2046     		mov	r0, r4
 923 024a FFF7FEFF 		bl	ssd1306_SetCursor
 924              	.LVL76:
 524:Core/Src/main.c ****           char score [16];
 925              		.loc 1 524 11 view .LVU211
 926 024e 2C4D     		ldr	r5, .L36+56
 927 0250 0123     		movs	r3, #1
 928 0252 95E80600 		ldm	r5, {r1, r2}
 929 0256 3348     		ldr	r0, .L36+92
 930 0258 FFF7FEFF 		bl	ssd1306_WriteString
 931              	.LVL77:
 525:Core/Src/main.c ****           uint16_t difference = p2King_counter - p1King_counter;
 932              		.loc 1 525 11 view .LVU212
 526:Core/Src/main.c ****           sprintf(score, "Won by %ums", difference);
 933              		.loc 1 526 11 view .LVU213
 526:Core/Src/main.c ****           sprintf(score, "Won by %ums", difference);
 934              		.loc 1 526 48 is_stmt 0 view .LVU214
 935 025c 2F4B     		ldr	r3, .L36+84
 936 025e 1A88     		ldrh	r2, [r3]
 937 0260 2D4B     		ldr	r3, .L36+80
 938 0262 1B88     		ldrh	r3, [r3]
 526:Core/Src/main.c ****           sprintf(score, "Won by %ums", difference);
 939              		.loc 1 526 20 view .LVU215
 940 0264 D21A     		subs	r2, r2, r3
 941              	.LVL78:
 527:Core/Src/main.c ****           lcd_put_cur(1,0);
 942              		.loc 1 527 11 is_stmt 1 view .LVU216
 943 0266 92B2     		uxth	r2, r2
 527:Core/Src/main.c ****           lcd_put_cur(1,0);
 944              		.loc 1 527 11 is_stmt 0 view .LVU217
 945 0268 2D49     		ldr	r1, .L36+88
 946 026a 02A8     		add	r0, sp, #8
 947 026c FFF7FEFF 		bl	sprintf
 948              	.LVL79:
 528:Core/Src/main.c ****           ssd1306_WriteString(score,Font_7x10,1);
 949              		.loc 1 528 11 is_stmt 1 view .LVU218
 950 0270 2146     		mov	r1, r4
 951 0272 0120     		movs	r0, #1
 952 0274 FFF7FEFF 		bl	lcd_put_cur
 953              	.LVL80:
 529:Core/Src/main.c ****           ssd1306_UpdateScreen();
 954              		.loc 1 529 11 view .LVU219
 955 0278 0123     		movs	r3, #1
ARM GAS  C:\Users\jdcox\AppData\Local\Temp\ccHRpQhd.s 			page 33


 956 027a 95E80600 		ldm	r5, {r1, r2}
 957 027e 02A8     		add	r0, sp, #8
 958 0280 FFF7FEFF 		bl	ssd1306_WriteString
 959              	.LVL81:
 530:Core/Src/main.c ****         }
 960              		.loc 1 530 11 view .LVU220
 961 0284 FFF7FEFF 		bl	ssd1306_UpdateScreen
 962              	.LVL82:
 963 0288 2CE7     		b	.L24
 964              	.L25:
 530:Core/Src/main.c ****         }
 965              		.loc 1 530 11 is_stmt 0 view .LVU221
 966              	.LBE10:
 535:Core/Src/main.c ****         {
 967              		.loc 1 535 9 is_stmt 1 view .LVU222
 535:Core/Src/main.c ****         {
 968              		.loc 1 535 12 is_stmt 0 view .LVU223
 969 028a 1C4B     		ldr	r3, .L36+52
 970 028c 1B78     		ldrb	r3, [r3]	@ zero_extendqisi2
 535:Core/Src/main.c ****         {
 971              		.loc 1 535 11 view .LVU224
 972 028e 002B     		cmp	r3, #0
 973 0290 3FF428AF 		beq	.L24
 537:Core/Src/main.c ****           P1LED_OFF;
 974              		.loc 1 537 11 is_stmt 1 view .LVU225
 537:Core/Src/main.c ****           P1LED_OFF;
 975              		.loc 1 537 28 is_stmt 0 view .LVU226
 976 0294 0024     		movs	r4, #0
 977 0296 194B     		ldr	r3, .L36+52
 978 0298 1C70     		strb	r4, [r3]
 538:Core/Src/main.c ****           ssd1306_Fill(0); 
 979              		.loc 1 538 11 is_stmt 1 view .LVU227
 980 029a 0122     		movs	r2, #1
 981 029c 0221     		movs	r1, #2
 982 029e 1048     		ldr	r0, .L36+24
 983 02a0 FFF7FEFF 		bl	HAL_GPIO_WritePin
 984              	.LVL83:
 539:Core/Src/main.c ****           ssd1306_SetCursor(0,0);
 985              		.loc 1 539 11 view .LVU228
 986 02a4 2046     		mov	r0, r4
 987 02a6 FFF7FEFF 		bl	ssd1306_Fill
 988              	.LVL84:
 540:Core/Src/main.c ****           ssd1306_WriteString("Penalty!",Font_7x10,1);
 989              		.loc 1 540 11 view .LVU229
 990 02aa 2146     		mov	r1, r4
 991 02ac 2046     		mov	r0, r4
 992 02ae FFF7FEFF 		bl	ssd1306_SetCursor
 993              	.LVL85:
 541:Core/Src/main.c ****           ssd1306_UpdateScreen();
 994              		.loc 1 541 11 view .LVU230
 995 02b2 134A     		ldr	r2, .L36+56
 996 02b4 0123     		movs	r3, #1
 997 02b6 06CA     		ldm	r2, {r1, r2}
 998 02b8 1B48     		ldr	r0, .L36+96
 999 02ba FFF7FEFF 		bl	ssd1306_WriteString
 1000              	.LVL86:
 542:Core/Src/main.c ****         }
ARM GAS  C:\Users\jdcox\AppData\Local\Temp\ccHRpQhd.s 			page 34


 1001              		.loc 1 542 11 view .LVU231
 1002 02be FFF7FEFF 		bl	ssd1306_UpdateScreen
 1003              	.LVL87:
 1004 02c2 0FE7     		b	.L24
 1005              	.L37:
 1006 02c4 AFF30080 		.align	3
 1007              	.L36:
 1008 02c8 400ECF19 		.word	433000000
 1009 02cc 00000000 		.word	0
 1010 02d0 00000000 		.word	.LANCHOR0
 1011 02d4 00000000 		.word	.LANCHOR2
 1012 02d8 00000240 		.word	1073872896
 1013 02dc 00000000 		.word	.LANCHOR1
 1014 02e0 00040240 		.word	1073873920
 1015 02e4 00000000 		.word	Font_16x24
 1016 02e8 00000000 		.word	.LC6
 1017 02ec 08000000 		.word	.LC7
 1018 02f0 0C000000 		.word	.LC8
 1019 02f4 10000000 		.word	.LC9
 1020 02f8 00000000 		.word	gameState
 1021 02fc 00000000 		.word	stateChange_flag
 1022 0300 00000000 		.word	Font_7x10
 1023 0304 18000000 		.word	.LC10
 1024 0308 28000000 		.word	.LC11
 1025 030c 38000000 		.word	.LC12
 1026 0310 48000000 		.word	.LC13
 1027 0314 58000000 		.word	.LC14
 1028 0318 00000000 		.word	p1King_counter
 1029 031c 00000000 		.word	p2King_counter
 1030 0320 64000000 		.word	.LC15
 1031 0324 70000000 		.word	.LC16
 1032 0328 7C000000 		.word	.LC17
 1033              		.cfi_endproc
 1034              	.LFE144:
 1036              		.section	.text.StartLoraRXTask,"ax",%progbits
 1037              		.align	1
 1038              		.global	StartLoraRXTask
 1039              		.syntax unified
 1040              		.thumb
 1041              		.thumb_func
 1043              	StartLoraRXTask:
 1044              	.LFB145:
 566:Core/Src/main.c ****   /* USER CODE BEGIN StartLoraRXTask */
 1045              		.loc 1 566 1 view -0
 1046              		.cfi_startproc
 1047              		@ Volatile: function does not return.
 1048              		@ args = 0, pretend = 0, frame = 0
 1049              		@ frame_needed = 0, uses_anonymous_args = 0
 1050              	.LVL88:
 566:Core/Src/main.c ****   /* USER CODE BEGIN StartLoraRXTask */
 1051              		.loc 1 566 1 is_stmt 0 view .LVU233
 1052 0000 08B5     		push	{r3, lr}
 1053              	.LCFI9:
 1054              		.cfi_def_cfa_offset 8
 1055              		.cfi_offset 3, -8
 1056              		.cfi_offset 14, -4
 1057 0002 04E0     		b	.L40
ARM GAS  C:\Users\jdcox\AppData\Local\Temp\ccHRpQhd.s 			page 35


 1058              	.LVL89:
 1059              	.L42:
 584:Core/Src/main.c **** 
 1060              		.loc 1 584 7 is_stmt 1 view .LVU234
 1061 0004 FFF7FEFF 		bl	getKOTHPacket
 1062              	.LVL90:
 1063              	.L39:
 590:Core/Src/main.c **** 
 1064              		.loc 1 590 5 view .LVU235
 1065 0008 1920     		movs	r0, #25
 1066 000a FFF7FEFF 		bl	osDelay
 1067              	.LVL91:
 569:Core/Src/main.c ****   {
 1068              		.loc 1 569 3 view .LVU236
 1069              	.L40:
 569:Core/Src/main.c ****   {
 1070              		.loc 1 569 3 view .LVU237
 572:Core/Src/main.c **** 
 1071              		.loc 1 572 5 view .LVU238
 1072 000e 0421     		movs	r1, #4
 1073 0010 0448     		ldr	r0, .L43
 1074 0012 FFF7FEFF 		bl	HAL_GPIO_TogglePin
 1075              	.LVL92:
 578:Core/Src/main.c ****     {
 1076              		.loc 1 578 5 view .LVU239
 578:Core/Src/main.c ****     {
 1077              		.loc 1 578 8 is_stmt 0 view .LVU240
 1078 0016 0448     		ldr	r0, .L43+4
 1079 0018 FFF7FEFF 		bl	lora_is_packet_available
 1080              	.LVL93:
 578:Core/Src/main.c ****     {
 1081              		.loc 1 578 7 view .LVU241
 1082 001c 0028     		cmp	r0, #0
 1083 001e F1D1     		bne	.L42
 1084 0020 F2E7     		b	.L39
 1085              	.L44:
 1086 0022 00BF     		.align	2
 1087              	.L43:
 1088 0024 00040240 		.word	1073873920
 1089 0028 00000000 		.word	.LANCHOR2
 1090              		.cfi_endproc
 1091              	.LFE145:
 1093              		.section	.text.HAL_TIM_PeriodElapsedCallback,"ax",%progbits
 1094              		.align	1
 1095              		.global	HAL_TIM_PeriodElapsedCallback
 1096              		.syntax unified
 1097              		.thumb
 1098              		.thumb_func
 1100              	HAL_TIM_PeriodElapsedCallback:
 1101              	.LVL94:
 1102              	.LFB150:
 656:Core/Src/main.c **** 
 657:Core/Src/main.c **** /**
 658:Core/Src/main.c ****   * @brief  Period elapsed callback in non blocking mode
 659:Core/Src/main.c ****   * @note   This function is called  when TIM1 interrupt took place, inside
 660:Core/Src/main.c ****   * HAL_TIM_IRQHandler(). It makes a direct call to HAL_IncTick() to increment
 661:Core/Src/main.c ****   * a global variable "uwTick" used as application time base.
ARM GAS  C:\Users\jdcox\AppData\Local\Temp\ccHRpQhd.s 			page 36


 662:Core/Src/main.c ****   * @param  htim : TIM handle
 663:Core/Src/main.c ****   * @retval None
 664:Core/Src/main.c ****   */
 665:Core/Src/main.c **** void HAL_TIM_PeriodElapsedCallback(TIM_HandleTypeDef *htim)
 666:Core/Src/main.c **** {
 1103              		.loc 1 666 1 is_stmt 1 view -0
 1104              		.cfi_startproc
 1105              		@ args = 0, pretend = 0, frame = 0
 1106              		@ frame_needed = 0, uses_anonymous_args = 0
 1107              		.loc 1 666 1 is_stmt 0 view .LVU243
 1108 0000 08B5     		push	{r3, lr}
 1109              	.LCFI10:
 1110              		.cfi_def_cfa_offset 8
 1111              		.cfi_offset 3, -8
 1112              		.cfi_offset 14, -4
 667:Core/Src/main.c ****   /* USER CODE BEGIN Callback 0 */
 668:Core/Src/main.c **** 
 669:Core/Src/main.c ****   /* USER CODE END Callback 0 */
 670:Core/Src/main.c ****   if (htim->Instance == TIM1) {
 1113              		.loc 1 670 3 is_stmt 1 view .LVU244
 1114              		.loc 1 670 11 is_stmt 0 view .LVU245
 1115 0002 0268     		ldr	r2, [r0]
 1116              		.loc 1 670 6 view .LVU246
 1117 0004 034B     		ldr	r3, .L49
 1118 0006 9A42     		cmp	r2, r3
 1119 0008 00D0     		beq	.L48
 1120              	.LVL95:
 1121              	.L45:
 671:Core/Src/main.c ****     HAL_IncTick();
 672:Core/Src/main.c ****   }
 673:Core/Src/main.c ****   /* USER CODE BEGIN Callback 1 */
 674:Core/Src/main.c **** 
 675:Core/Src/main.c ****   /* USER CODE END Callback 1 */
 676:Core/Src/main.c **** }
 1122              		.loc 1 676 1 view .LVU247
 1123 000a 08BD     		pop	{r3, pc}
 1124              	.LVL96:
 1125              	.L48:
 671:Core/Src/main.c ****     HAL_IncTick();
 1126              		.loc 1 671 5 is_stmt 1 view .LVU248
 1127 000c FFF7FEFF 		bl	HAL_IncTick
 1128              	.LVL97:
 1129              		.loc 1 676 1 is_stmt 0 view .LVU249
 1130 0010 FBE7     		b	.L45
 1131              	.L50:
 1132 0012 00BF     		.align	2
 1133              	.L49:
 1134 0014 00000140 		.word	1073807360
 1135              		.cfi_endproc
 1136              	.LFE150:
 1138              		.section	.text.Error_Handler,"ax",%progbits
 1139              		.align	1
 1140              		.global	Error_Handler
 1141              		.syntax unified
 1142              		.thumb
 1143              		.thumb_func
 1145              	Error_Handler:
ARM GAS  C:\Users\jdcox\AppData\Local\Temp\ccHRpQhd.s 			page 37


 1146              	.LFB151:
 677:Core/Src/main.c **** 
 678:Core/Src/main.c **** /**
 679:Core/Src/main.c ****   * @brief  This function is executed in case of error occurrence.
 680:Core/Src/main.c ****   * @retval None
 681:Core/Src/main.c ****   */
 682:Core/Src/main.c **** void Error_Handler(void)
 683:Core/Src/main.c **** {
 1147              		.loc 1 683 1 is_stmt 1 view -0
 1148              		.cfi_startproc
 1149              		@ Volatile: function does not return.
 1150              		@ args = 0, pretend = 0, frame = 0
 1151              		@ frame_needed = 0, uses_anonymous_args = 0
 1152              		@ link register save eliminated.
 684:Core/Src/main.c ****   /* USER CODE BEGIN Error_Handler_Debug */
 685:Core/Src/main.c ****   /* User can add his own implementation to report the HAL error return state */
 686:Core/Src/main.c ****   __disable_irq();
 1153              		.loc 1 686 3 view .LVU251
 1154              	.LBB11:
 1155              	.LBI11:
 1156              		.file 2 "Drivers/CMSIS/Include/cmsis_gcc.h"
   1:Drivers/CMSIS/Include/cmsis_gcc.h **** /**************************************************************************//**
   2:Drivers/CMSIS/Include/cmsis_gcc.h ****  * @file     cmsis_gcc.h
   3:Drivers/CMSIS/Include/cmsis_gcc.h ****  * @brief    CMSIS compiler GCC header file
   4:Drivers/CMSIS/Include/cmsis_gcc.h ****  * @version  V5.0.4
   5:Drivers/CMSIS/Include/cmsis_gcc.h ****  * @date     09. April 2018
   6:Drivers/CMSIS/Include/cmsis_gcc.h ****  ******************************************************************************/
   7:Drivers/CMSIS/Include/cmsis_gcc.h **** /*
   8:Drivers/CMSIS/Include/cmsis_gcc.h ****  * Copyright (c) 2009-2018 Arm Limited. All rights reserved.
   9:Drivers/CMSIS/Include/cmsis_gcc.h ****  *
  10:Drivers/CMSIS/Include/cmsis_gcc.h ****  * SPDX-License-Identifier: Apache-2.0
  11:Drivers/CMSIS/Include/cmsis_gcc.h ****  *
  12:Drivers/CMSIS/Include/cmsis_gcc.h ****  * Licensed under the Apache License, Version 2.0 (the License); you may
  13:Drivers/CMSIS/Include/cmsis_gcc.h ****  * not use this file except in compliance with the License.
  14:Drivers/CMSIS/Include/cmsis_gcc.h ****  * You may obtain a copy of the License at
  15:Drivers/CMSIS/Include/cmsis_gcc.h ****  *
  16:Drivers/CMSIS/Include/cmsis_gcc.h ****  * www.apache.org/licenses/LICENSE-2.0
  17:Drivers/CMSIS/Include/cmsis_gcc.h ****  *
  18:Drivers/CMSIS/Include/cmsis_gcc.h ****  * Unless required by applicable law or agreed to in writing, software
  19:Drivers/CMSIS/Include/cmsis_gcc.h ****  * distributed under the License is distributed on an AS IS BASIS, WITHOUT
  20:Drivers/CMSIS/Include/cmsis_gcc.h ****  * WARRANTIES OR CONDITIONS OF ANY KIND, either express or implied.
  21:Drivers/CMSIS/Include/cmsis_gcc.h ****  * See the License for the specific language governing permissions and
  22:Drivers/CMSIS/Include/cmsis_gcc.h ****  * limitations under the License.
  23:Drivers/CMSIS/Include/cmsis_gcc.h ****  */
  24:Drivers/CMSIS/Include/cmsis_gcc.h **** 
  25:Drivers/CMSIS/Include/cmsis_gcc.h **** #ifndef __CMSIS_GCC_H
  26:Drivers/CMSIS/Include/cmsis_gcc.h **** #define __CMSIS_GCC_H
  27:Drivers/CMSIS/Include/cmsis_gcc.h **** 
  28:Drivers/CMSIS/Include/cmsis_gcc.h **** /* ignore some GCC warnings */
  29:Drivers/CMSIS/Include/cmsis_gcc.h **** #pragma GCC diagnostic push
  30:Drivers/CMSIS/Include/cmsis_gcc.h **** #pragma GCC diagnostic ignored "-Wsign-conversion"
  31:Drivers/CMSIS/Include/cmsis_gcc.h **** #pragma GCC diagnostic ignored "-Wconversion"
  32:Drivers/CMSIS/Include/cmsis_gcc.h **** #pragma GCC diagnostic ignored "-Wunused-parameter"
  33:Drivers/CMSIS/Include/cmsis_gcc.h **** 
  34:Drivers/CMSIS/Include/cmsis_gcc.h **** /* Fallback for __has_builtin */
  35:Drivers/CMSIS/Include/cmsis_gcc.h **** #ifndef __has_builtin
  36:Drivers/CMSIS/Include/cmsis_gcc.h ****   #define __has_builtin(x) (0)
ARM GAS  C:\Users\jdcox\AppData\Local\Temp\ccHRpQhd.s 			page 38


  37:Drivers/CMSIS/Include/cmsis_gcc.h **** #endif
  38:Drivers/CMSIS/Include/cmsis_gcc.h **** 
  39:Drivers/CMSIS/Include/cmsis_gcc.h **** /* CMSIS compiler specific defines */
  40:Drivers/CMSIS/Include/cmsis_gcc.h **** #ifndef   __ASM
  41:Drivers/CMSIS/Include/cmsis_gcc.h ****   #define __ASM                                  __asm
  42:Drivers/CMSIS/Include/cmsis_gcc.h **** #endif
  43:Drivers/CMSIS/Include/cmsis_gcc.h **** #ifndef   __INLINE
  44:Drivers/CMSIS/Include/cmsis_gcc.h ****   #define __INLINE                               inline
  45:Drivers/CMSIS/Include/cmsis_gcc.h **** #endif
  46:Drivers/CMSIS/Include/cmsis_gcc.h **** #ifndef   __STATIC_INLINE
  47:Drivers/CMSIS/Include/cmsis_gcc.h ****   #define __STATIC_INLINE                        static inline
  48:Drivers/CMSIS/Include/cmsis_gcc.h **** #endif
  49:Drivers/CMSIS/Include/cmsis_gcc.h **** #ifndef   __STATIC_FORCEINLINE                 
  50:Drivers/CMSIS/Include/cmsis_gcc.h ****   #define __STATIC_FORCEINLINE                   __attribute__((always_inline)) static inline
  51:Drivers/CMSIS/Include/cmsis_gcc.h **** #endif                                           
  52:Drivers/CMSIS/Include/cmsis_gcc.h **** #ifndef   __NO_RETURN
  53:Drivers/CMSIS/Include/cmsis_gcc.h ****   #define __NO_RETURN                            __attribute__((__noreturn__))
  54:Drivers/CMSIS/Include/cmsis_gcc.h **** #endif
  55:Drivers/CMSIS/Include/cmsis_gcc.h **** #ifndef   __USED
  56:Drivers/CMSIS/Include/cmsis_gcc.h ****   #define __USED                                 __attribute__((used))
  57:Drivers/CMSIS/Include/cmsis_gcc.h **** #endif
  58:Drivers/CMSIS/Include/cmsis_gcc.h **** #ifndef   __WEAK
  59:Drivers/CMSIS/Include/cmsis_gcc.h ****   #define __WEAK                                 __attribute__((weak))
  60:Drivers/CMSIS/Include/cmsis_gcc.h **** #endif
  61:Drivers/CMSIS/Include/cmsis_gcc.h **** #ifndef   __PACKED
  62:Drivers/CMSIS/Include/cmsis_gcc.h ****   #define __PACKED                               __attribute__((packed, aligned(1)))
  63:Drivers/CMSIS/Include/cmsis_gcc.h **** #endif
  64:Drivers/CMSIS/Include/cmsis_gcc.h **** #ifndef   __PACKED_STRUCT
  65:Drivers/CMSIS/Include/cmsis_gcc.h ****   #define __PACKED_STRUCT                        struct __attribute__((packed, aligned(1)))
  66:Drivers/CMSIS/Include/cmsis_gcc.h **** #endif
  67:Drivers/CMSIS/Include/cmsis_gcc.h **** #ifndef   __PACKED_UNION
  68:Drivers/CMSIS/Include/cmsis_gcc.h ****   #define __PACKED_UNION                         union __attribute__((packed, aligned(1)))
  69:Drivers/CMSIS/Include/cmsis_gcc.h **** #endif
  70:Drivers/CMSIS/Include/cmsis_gcc.h **** #ifndef   __UNALIGNED_UINT32        /* deprecated */
  71:Drivers/CMSIS/Include/cmsis_gcc.h ****   #pragma GCC diagnostic push
  72:Drivers/CMSIS/Include/cmsis_gcc.h ****   #pragma GCC diagnostic ignored "-Wpacked"
  73:Drivers/CMSIS/Include/cmsis_gcc.h ****   #pragma GCC diagnostic ignored "-Wattributes"
  74:Drivers/CMSIS/Include/cmsis_gcc.h ****   struct __attribute__((packed)) T_UINT32 { uint32_t v; };
  75:Drivers/CMSIS/Include/cmsis_gcc.h ****   #pragma GCC diagnostic pop
  76:Drivers/CMSIS/Include/cmsis_gcc.h ****   #define __UNALIGNED_UINT32(x)                  (((struct T_UINT32 *)(x))->v)
  77:Drivers/CMSIS/Include/cmsis_gcc.h **** #endif
  78:Drivers/CMSIS/Include/cmsis_gcc.h **** #ifndef   __UNALIGNED_UINT16_WRITE
  79:Drivers/CMSIS/Include/cmsis_gcc.h ****   #pragma GCC diagnostic push
  80:Drivers/CMSIS/Include/cmsis_gcc.h ****   #pragma GCC diagnostic ignored "-Wpacked"
  81:Drivers/CMSIS/Include/cmsis_gcc.h ****   #pragma GCC diagnostic ignored "-Wattributes"
  82:Drivers/CMSIS/Include/cmsis_gcc.h ****   __PACKED_STRUCT T_UINT16_WRITE { uint16_t v; };
  83:Drivers/CMSIS/Include/cmsis_gcc.h ****   #pragma GCC diagnostic pop
  84:Drivers/CMSIS/Include/cmsis_gcc.h ****   #define __UNALIGNED_UINT16_WRITE(addr, val)    (void)((((struct T_UINT16_WRITE *)(void *)(addr))-
  85:Drivers/CMSIS/Include/cmsis_gcc.h **** #endif
  86:Drivers/CMSIS/Include/cmsis_gcc.h **** #ifndef   __UNALIGNED_UINT16_READ
  87:Drivers/CMSIS/Include/cmsis_gcc.h ****   #pragma GCC diagnostic push
  88:Drivers/CMSIS/Include/cmsis_gcc.h ****   #pragma GCC diagnostic ignored "-Wpacked"
  89:Drivers/CMSIS/Include/cmsis_gcc.h ****   #pragma GCC diagnostic ignored "-Wattributes"
  90:Drivers/CMSIS/Include/cmsis_gcc.h ****   __PACKED_STRUCT T_UINT16_READ { uint16_t v; };
  91:Drivers/CMSIS/Include/cmsis_gcc.h ****   #pragma GCC diagnostic pop
  92:Drivers/CMSIS/Include/cmsis_gcc.h ****   #define __UNALIGNED_UINT16_READ(addr)          (((const struct T_UINT16_READ *)(const void *)(add
  93:Drivers/CMSIS/Include/cmsis_gcc.h **** #endif
ARM GAS  C:\Users\jdcox\AppData\Local\Temp\ccHRpQhd.s 			page 39


  94:Drivers/CMSIS/Include/cmsis_gcc.h **** #ifndef   __UNALIGNED_UINT32_WRITE
  95:Drivers/CMSIS/Include/cmsis_gcc.h ****   #pragma GCC diagnostic push
  96:Drivers/CMSIS/Include/cmsis_gcc.h ****   #pragma GCC diagnostic ignored "-Wpacked"
  97:Drivers/CMSIS/Include/cmsis_gcc.h ****   #pragma GCC diagnostic ignored "-Wattributes"
  98:Drivers/CMSIS/Include/cmsis_gcc.h ****   __PACKED_STRUCT T_UINT32_WRITE { uint32_t v; };
  99:Drivers/CMSIS/Include/cmsis_gcc.h ****   #pragma GCC diagnostic pop
 100:Drivers/CMSIS/Include/cmsis_gcc.h ****   #define __UNALIGNED_UINT32_WRITE(addr, val)    (void)((((struct T_UINT32_WRITE *)(void *)(addr))-
 101:Drivers/CMSIS/Include/cmsis_gcc.h **** #endif
 102:Drivers/CMSIS/Include/cmsis_gcc.h **** #ifndef   __UNALIGNED_UINT32_READ
 103:Drivers/CMSIS/Include/cmsis_gcc.h ****   #pragma GCC diagnostic push
 104:Drivers/CMSIS/Include/cmsis_gcc.h ****   #pragma GCC diagnostic ignored "-Wpacked"
 105:Drivers/CMSIS/Include/cmsis_gcc.h ****   #pragma GCC diagnostic ignored "-Wattributes"
 106:Drivers/CMSIS/Include/cmsis_gcc.h ****   __PACKED_STRUCT T_UINT32_READ { uint32_t v; };
 107:Drivers/CMSIS/Include/cmsis_gcc.h ****   #pragma GCC diagnostic pop
 108:Drivers/CMSIS/Include/cmsis_gcc.h ****   #define __UNALIGNED_UINT32_READ(addr)          (((const struct T_UINT32_READ *)(const void *)(add
 109:Drivers/CMSIS/Include/cmsis_gcc.h **** #endif
 110:Drivers/CMSIS/Include/cmsis_gcc.h **** #ifndef   __ALIGNED
 111:Drivers/CMSIS/Include/cmsis_gcc.h ****   #define __ALIGNED(x)                           __attribute__((aligned(x)))
 112:Drivers/CMSIS/Include/cmsis_gcc.h **** #endif
 113:Drivers/CMSIS/Include/cmsis_gcc.h **** #ifndef   __RESTRICT
 114:Drivers/CMSIS/Include/cmsis_gcc.h ****   #define __RESTRICT                             __restrict
 115:Drivers/CMSIS/Include/cmsis_gcc.h **** #endif
 116:Drivers/CMSIS/Include/cmsis_gcc.h **** 
 117:Drivers/CMSIS/Include/cmsis_gcc.h **** 
 118:Drivers/CMSIS/Include/cmsis_gcc.h **** /* ###########################  Core Function Access  ########################### */
 119:Drivers/CMSIS/Include/cmsis_gcc.h **** /** \ingroup  CMSIS_Core_FunctionInterface
 120:Drivers/CMSIS/Include/cmsis_gcc.h ****     \defgroup CMSIS_Core_RegAccFunctions CMSIS Core Register Access Functions
 121:Drivers/CMSIS/Include/cmsis_gcc.h ****   @{
 122:Drivers/CMSIS/Include/cmsis_gcc.h ****  */
 123:Drivers/CMSIS/Include/cmsis_gcc.h **** 
 124:Drivers/CMSIS/Include/cmsis_gcc.h **** /**
 125:Drivers/CMSIS/Include/cmsis_gcc.h ****   \brief   Enable IRQ Interrupts
 126:Drivers/CMSIS/Include/cmsis_gcc.h ****   \details Enables IRQ interrupts by clearing the I-bit in the CPSR.
 127:Drivers/CMSIS/Include/cmsis_gcc.h ****            Can only be executed in Privileged modes.
 128:Drivers/CMSIS/Include/cmsis_gcc.h ****  */
 129:Drivers/CMSIS/Include/cmsis_gcc.h **** __STATIC_FORCEINLINE void __enable_irq(void)
 130:Drivers/CMSIS/Include/cmsis_gcc.h **** {
 131:Drivers/CMSIS/Include/cmsis_gcc.h ****   __ASM volatile ("cpsie i" : : : "memory");
 132:Drivers/CMSIS/Include/cmsis_gcc.h **** }
 133:Drivers/CMSIS/Include/cmsis_gcc.h **** 
 134:Drivers/CMSIS/Include/cmsis_gcc.h **** 
 135:Drivers/CMSIS/Include/cmsis_gcc.h **** /**
 136:Drivers/CMSIS/Include/cmsis_gcc.h ****   \brief   Disable IRQ Interrupts
 137:Drivers/CMSIS/Include/cmsis_gcc.h ****   \details Disables IRQ interrupts by setting the I-bit in the CPSR.
 138:Drivers/CMSIS/Include/cmsis_gcc.h ****            Can only be executed in Privileged modes.
 139:Drivers/CMSIS/Include/cmsis_gcc.h ****  */
 140:Drivers/CMSIS/Include/cmsis_gcc.h **** __STATIC_FORCEINLINE void __disable_irq(void)
 1157              		.loc 2 140 27 view .LVU252
 1158              	.LBB12:
 141:Drivers/CMSIS/Include/cmsis_gcc.h **** {
 142:Drivers/CMSIS/Include/cmsis_gcc.h ****   __ASM volatile ("cpsid i" : : : "memory");
 1159              		.loc 2 142 3 view .LVU253
 1160              		.syntax unified
 1161              	@ 142 "Drivers/CMSIS/Include/cmsis_gcc.h" 1
 1162 0000 72B6     		cpsid i
 1163              	@ 0 "" 2
 1164              		.thumb
ARM GAS  C:\Users\jdcox\AppData\Local\Temp\ccHRpQhd.s 			page 40


 1165              		.syntax unified
 1166              	.L52:
 1167              	.LBE12:
 1168              	.LBE11:
 687:Core/Src/main.c ****   while (1)
 1169              		.loc 1 687 3 discriminator 1 view .LVU254
 688:Core/Src/main.c ****   {
 689:Core/Src/main.c ****   }
 1170              		.loc 1 689 3 discriminator 1 view .LVU255
 687:Core/Src/main.c ****   while (1)
 1171              		.loc 1 687 9 discriminator 1 view .LVU256
 1172 0002 FEE7     		b	.L52
 1173              		.cfi_endproc
 1174              	.LFE151:
 1176              		.section	.text.MX_SPI1_Init,"ax",%progbits
 1177              		.align	1
 1178              		.syntax unified
 1179              		.thumb
 1180              		.thumb_func
 1182              	MX_SPI1_Init:
 1183              	.LFB141:
 286:Core/Src/main.c **** 
 1184              		.loc 1 286 1 view -0
 1185              		.cfi_startproc
 1186              		@ args = 0, pretend = 0, frame = 0
 1187              		@ frame_needed = 0, uses_anonymous_args = 0
 1188 0000 08B5     		push	{r3, lr}
 1189              	.LCFI11:
 1190              		.cfi_def_cfa_offset 8
 1191              		.cfi_offset 3, -8
 1192              		.cfi_offset 14, -4
 296:Core/Src/main.c ****   hspi1.Init.Mode = SPI_MODE_MASTER;
 1193              		.loc 1 296 3 view .LVU258
 296:Core/Src/main.c ****   hspi1.Init.Mode = SPI_MODE_MASTER;
 1194              		.loc 1 296 18 is_stmt 0 view .LVU259
 1195 0002 0D48     		ldr	r0, .L57
 1196 0004 0D4B     		ldr	r3, .L57+4
 1197 0006 0360     		str	r3, [r0]
 297:Core/Src/main.c ****   hspi1.Init.Direction = SPI_DIRECTION_2LINES;
 1198              		.loc 1 297 3 is_stmt 1 view .LVU260
 297:Core/Src/main.c ****   hspi1.Init.Direction = SPI_DIRECTION_2LINES;
 1199              		.loc 1 297 19 is_stmt 0 view .LVU261
 1200 0008 4FF48273 		mov	r3, #260
 1201 000c 4360     		str	r3, [r0, #4]
 298:Core/Src/main.c ****   hspi1.Init.DataSize = SPI_DATASIZE_8BIT;
 1202              		.loc 1 298 3 is_stmt 1 view .LVU262
 298:Core/Src/main.c ****   hspi1.Init.DataSize = SPI_DATASIZE_8BIT;
 1203              		.loc 1 298 24 is_stmt 0 view .LVU263
 1204 000e 0023     		movs	r3, #0
 1205 0010 8360     		str	r3, [r0, #8]
 299:Core/Src/main.c ****   hspi1.Init.CLKPolarity = SPI_POLARITY_LOW;
 1206              		.loc 1 299 3 is_stmt 1 view .LVU264
 299:Core/Src/main.c ****   hspi1.Init.CLKPolarity = SPI_POLARITY_LOW;
 1207              		.loc 1 299 23 is_stmt 0 view .LVU265
 1208 0012 C360     		str	r3, [r0, #12]
 300:Core/Src/main.c ****   hspi1.Init.CLKPhase = SPI_PHASE_1EDGE;
 1209              		.loc 1 300 3 is_stmt 1 view .LVU266
ARM GAS  C:\Users\jdcox\AppData\Local\Temp\ccHRpQhd.s 			page 41


 300:Core/Src/main.c ****   hspi1.Init.CLKPhase = SPI_PHASE_1EDGE;
 1210              		.loc 1 300 26 is_stmt 0 view .LVU267
 1211 0014 0361     		str	r3, [r0, #16]
 301:Core/Src/main.c ****   hspi1.Init.NSS = SPI_NSS_SOFT;
 1212              		.loc 1 301 3 is_stmt 1 view .LVU268
 301:Core/Src/main.c ****   hspi1.Init.NSS = SPI_NSS_SOFT;
 1213              		.loc 1 301 23 is_stmt 0 view .LVU269
 1214 0016 4361     		str	r3, [r0, #20]
 302:Core/Src/main.c ****   hspi1.Init.BaudRatePrescaler = SPI_BAUDRATEPRESCALER_16;
 1215              		.loc 1 302 3 is_stmt 1 view .LVU270
 302:Core/Src/main.c ****   hspi1.Init.BaudRatePrescaler = SPI_BAUDRATEPRESCALER_16;
 1216              		.loc 1 302 18 is_stmt 0 view .LVU271
 1217 0018 4FF40072 		mov	r2, #512
 1218 001c 8261     		str	r2, [r0, #24]
 303:Core/Src/main.c ****   hspi1.Init.FirstBit = SPI_FIRSTBIT_MSB;
 1219              		.loc 1 303 3 is_stmt 1 view .LVU272
 303:Core/Src/main.c ****   hspi1.Init.FirstBit = SPI_FIRSTBIT_MSB;
 1220              		.loc 1 303 32 is_stmt 0 view .LVU273
 1221 001e 1822     		movs	r2, #24
 1222 0020 C261     		str	r2, [r0, #28]
 304:Core/Src/main.c ****   hspi1.Init.TIMode = SPI_TIMODE_DISABLE;
 1223              		.loc 1 304 3 is_stmt 1 view .LVU274
 304:Core/Src/main.c ****   hspi1.Init.TIMode = SPI_TIMODE_DISABLE;
 1224              		.loc 1 304 23 is_stmt 0 view .LVU275
 1225 0022 0362     		str	r3, [r0, #32]
 305:Core/Src/main.c ****   hspi1.Init.CRCCalculation = SPI_CRCCALCULATION_DISABLE;
 1226              		.loc 1 305 3 is_stmt 1 view .LVU276
 305:Core/Src/main.c ****   hspi1.Init.CRCCalculation = SPI_CRCCALCULATION_DISABLE;
 1227              		.loc 1 305 21 is_stmt 0 view .LVU277
 1228 0024 4362     		str	r3, [r0, #36]
 306:Core/Src/main.c ****   hspi1.Init.CRCPolynomial = 10;
 1229              		.loc 1 306 3 is_stmt 1 view .LVU278
 306:Core/Src/main.c ****   hspi1.Init.CRCPolynomial = 10;
 1230              		.loc 1 306 29 is_stmt 0 view .LVU279
 1231 0026 8362     		str	r3, [r0, #40]
 307:Core/Src/main.c ****   if (HAL_SPI_Init(&hspi1) != HAL_OK)
 1232              		.loc 1 307 3 is_stmt 1 view .LVU280
 307:Core/Src/main.c ****   if (HAL_SPI_Init(&hspi1) != HAL_OK)
 1233              		.loc 1 307 28 is_stmt 0 view .LVU281
 1234 0028 0A23     		movs	r3, #10
 1235 002a C362     		str	r3, [r0, #44]
 308:Core/Src/main.c ****   {
 1236              		.loc 1 308 3 is_stmt 1 view .LVU282
 308:Core/Src/main.c ****   {
 1237              		.loc 1 308 7 is_stmt 0 view .LVU283
 1238 002c FFF7FEFF 		bl	HAL_SPI_Init
 1239              	.LVL98:
 308:Core/Src/main.c ****   {
 1240              		.loc 1 308 6 view .LVU284
 1241 0030 00B9     		cbnz	r0, .L56
 316:Core/Src/main.c **** 
 1242              		.loc 1 316 1 view .LVU285
 1243 0032 08BD     		pop	{r3, pc}
 1244              	.L56:
 310:Core/Src/main.c ****   }
 1245              		.loc 1 310 5 is_stmt 1 view .LVU286
 1246 0034 FFF7FEFF 		bl	Error_Handler
ARM GAS  C:\Users\jdcox\AppData\Local\Temp\ccHRpQhd.s 			page 42


 1247              	.LVL99:
 1248              	.L58:
 1249              		.align	2
 1250              	.L57:
 1251 0038 00000000 		.word	.LANCHOR1
 1252 003c 00300140 		.word	1073819648
 1253              		.cfi_endproc
 1254              	.LFE141:
 1256              		.section	.text.MX_I2C1_Init,"ax",%progbits
 1257              		.align	1
 1258              		.syntax unified
 1259              		.thumb
 1260              		.thumb_func
 1262              	MX_I2C1_Init:
 1263              	.LFB140:
 252:Core/Src/main.c **** 
 1264              		.loc 1 252 1 view -0
 1265              		.cfi_startproc
 1266              		@ args = 0, pretend = 0, frame = 0
 1267              		@ frame_needed = 0, uses_anonymous_args = 0
 1268 0000 08B5     		push	{r3, lr}
 1269              	.LCFI12:
 1270              		.cfi_def_cfa_offset 8
 1271              		.cfi_offset 3, -8
 1272              		.cfi_offset 14, -4
 261:Core/Src/main.c ****   hi2c1.Init.ClockSpeed = 100000;
 1273              		.loc 1 261 3 view .LVU288
 261:Core/Src/main.c ****   hi2c1.Init.ClockSpeed = 100000;
 1274              		.loc 1 261 18 is_stmt 0 view .LVU289
 1275 0002 0B48     		ldr	r0, .L63
 1276 0004 0B4B     		ldr	r3, .L63+4
 1277 0006 0360     		str	r3, [r0]
 262:Core/Src/main.c ****   hi2c1.Init.DutyCycle = I2C_DUTYCYCLE_2;
 1278              		.loc 1 262 3 is_stmt 1 view .LVU290
 262:Core/Src/main.c ****   hi2c1.Init.DutyCycle = I2C_DUTYCYCLE_2;
 1279              		.loc 1 262 25 is_stmt 0 view .LVU291
 1280 0008 0B4B     		ldr	r3, .L63+8
 1281 000a 4360     		str	r3, [r0, #4]
 263:Core/Src/main.c ****   hi2c1.Init.OwnAddress1 = 78;
 1282              		.loc 1 263 3 is_stmt 1 view .LVU292
 263:Core/Src/main.c ****   hi2c1.Init.OwnAddress1 = 78;
 1283              		.loc 1 263 24 is_stmt 0 view .LVU293
 1284 000c 0023     		movs	r3, #0
 1285 000e 8360     		str	r3, [r0, #8]
 264:Core/Src/main.c ****   hi2c1.Init.AddressingMode = I2C_ADDRESSINGMODE_7BIT;
 1286              		.loc 1 264 3 is_stmt 1 view .LVU294
 264:Core/Src/main.c ****   hi2c1.Init.AddressingMode = I2C_ADDRESSINGMODE_7BIT;
 1287              		.loc 1 264 26 is_stmt 0 view .LVU295
 1288 0010 4E22     		movs	r2, #78
 1289 0012 C260     		str	r2, [r0, #12]
 265:Core/Src/main.c ****   hi2c1.Init.DualAddressMode = I2C_DUALADDRESS_DISABLE;
 1290              		.loc 1 265 3 is_stmt 1 view .LVU296
 265:Core/Src/main.c ****   hi2c1.Init.DualAddressMode = I2C_DUALADDRESS_DISABLE;
 1291              		.loc 1 265 29 is_stmt 0 view .LVU297
 1292 0014 4FF48042 		mov	r2, #16384
 1293 0018 0261     		str	r2, [r0, #16]
 266:Core/Src/main.c ****   hi2c1.Init.OwnAddress2 = 0;
ARM GAS  C:\Users\jdcox\AppData\Local\Temp\ccHRpQhd.s 			page 43


 1294              		.loc 1 266 3 is_stmt 1 view .LVU298
 266:Core/Src/main.c ****   hi2c1.Init.OwnAddress2 = 0;
 1295              		.loc 1 266 30 is_stmt 0 view .LVU299
 1296 001a 4361     		str	r3, [r0, #20]
 267:Core/Src/main.c ****   hi2c1.Init.GeneralCallMode = I2C_GENERALCALL_DISABLE;
 1297              		.loc 1 267 3 is_stmt 1 view .LVU300
 267:Core/Src/main.c ****   hi2c1.Init.GeneralCallMode = I2C_GENERALCALL_DISABLE;
 1298              		.loc 1 267 26 is_stmt 0 view .LVU301
 1299 001c 8361     		str	r3, [r0, #24]
 268:Core/Src/main.c ****   hi2c1.Init.NoStretchMode = I2C_NOSTRETCH_DISABLE;
 1300              		.loc 1 268 3 is_stmt 1 view .LVU302
 268:Core/Src/main.c ****   hi2c1.Init.NoStretchMode = I2C_NOSTRETCH_DISABLE;
 1301              		.loc 1 268 30 is_stmt 0 view .LVU303
 1302 001e C361     		str	r3, [r0, #28]
 269:Core/Src/main.c ****   if (HAL_I2C_Init(&hi2c1) != HAL_OK)
 1303              		.loc 1 269 3 is_stmt 1 view .LVU304
 269:Core/Src/main.c ****   if (HAL_I2C_Init(&hi2c1) != HAL_OK)
 1304              		.loc 1 269 28 is_stmt 0 view .LVU305
 1305 0020 0362     		str	r3, [r0, #32]
 270:Core/Src/main.c ****   {
 1306              		.loc 1 270 3 is_stmt 1 view .LVU306
 270:Core/Src/main.c ****   {
 1307              		.loc 1 270 7 is_stmt 0 view .LVU307
 1308 0022 FFF7FEFF 		bl	HAL_I2C_Init
 1309              	.LVL100:
 270:Core/Src/main.c ****   {
 1310              		.loc 1 270 6 view .LVU308
 1311 0026 00B9     		cbnz	r0, .L62
 278:Core/Src/main.c **** 
 1312              		.loc 1 278 1 view .LVU309
 1313 0028 08BD     		pop	{r3, pc}
 1314              	.L62:
 272:Core/Src/main.c ****   }
 1315              		.loc 1 272 5 is_stmt 1 view .LVU310
 1316 002a FFF7FEFF 		bl	Error_Handler
 1317              	.LVL101:
 1318              	.L64:
 1319 002e 00BF     		.align	2
 1320              	.L63:
 1321 0030 00000000 		.word	.LANCHOR3
 1322 0034 00540040 		.word	1073763328
 1323 0038 A0860100 		.word	100000
 1324              		.cfi_endproc
 1325              	.LFE140:
 1327              		.section	.text.SystemClock_Config,"ax",%progbits
 1328              		.align	1
 1329              		.global	SystemClock_Config
 1330              		.syntax unified
 1331              		.thumb
 1332              		.thumb_func
 1334              	SystemClock_Config:
 1335              	.LFB139:
 206:Core/Src/main.c ****   RCC_OscInitTypeDef RCC_OscInitStruct = {0};
 1336              		.loc 1 206 1 view -0
 1337              		.cfi_startproc
 1338              		@ args = 0, pretend = 0, frame = 80
 1339              		@ frame_needed = 0, uses_anonymous_args = 0
ARM GAS  C:\Users\jdcox\AppData\Local\Temp\ccHRpQhd.s 			page 44


 1340 0000 00B5     		push	{lr}
 1341              	.LCFI13:
 1342              		.cfi_def_cfa_offset 4
 1343              		.cfi_offset 14, -4
 1344 0002 95B0     		sub	sp, sp, #84
 1345              	.LCFI14:
 1346              		.cfi_def_cfa_offset 88
 207:Core/Src/main.c ****   RCC_ClkInitTypeDef RCC_ClkInitStruct = {0};
 1347              		.loc 1 207 3 view .LVU312
 207:Core/Src/main.c ****   RCC_ClkInitTypeDef RCC_ClkInitStruct = {0};
 1348              		.loc 1 207 22 is_stmt 0 view .LVU313
 1349 0004 3022     		movs	r2, #48
 1350 0006 0021     		movs	r1, #0
 1351 0008 08A8     		add	r0, sp, #32
 1352 000a FFF7FEFF 		bl	memset
 1353              	.LVL102:
 208:Core/Src/main.c **** 
 1354              		.loc 1 208 3 is_stmt 1 view .LVU314
 208:Core/Src/main.c **** 
 1355              		.loc 1 208 22 is_stmt 0 view .LVU315
 1356 000e 0023     		movs	r3, #0
 1357 0010 0393     		str	r3, [sp, #12]
 1358 0012 0493     		str	r3, [sp, #16]
 1359 0014 0593     		str	r3, [sp, #20]
 1360 0016 0693     		str	r3, [sp, #24]
 1361 0018 0793     		str	r3, [sp, #28]
 212:Core/Src/main.c ****   __HAL_PWR_VOLTAGESCALING_CONFIG(PWR_REGULATOR_VOLTAGE_SCALE2);
 1362              		.loc 1 212 3 is_stmt 1 view .LVU316
 1363              	.LBB13:
 212:Core/Src/main.c ****   __HAL_PWR_VOLTAGESCALING_CONFIG(PWR_REGULATOR_VOLTAGE_SCALE2);
 1364              		.loc 1 212 3 view .LVU317
 1365 001a 0193     		str	r3, [sp, #4]
 212:Core/Src/main.c ****   __HAL_PWR_VOLTAGESCALING_CONFIG(PWR_REGULATOR_VOLTAGE_SCALE2);
 1366              		.loc 1 212 3 view .LVU318
 1367 001c 214A     		ldr	r2, .L71
 1368 001e 116C     		ldr	r1, [r2, #64]
 1369 0020 41F08051 		orr	r1, r1, #268435456
 1370 0024 1164     		str	r1, [r2, #64]
 212:Core/Src/main.c ****   __HAL_PWR_VOLTAGESCALING_CONFIG(PWR_REGULATOR_VOLTAGE_SCALE2);
 1371              		.loc 1 212 3 view .LVU319
 1372 0026 126C     		ldr	r2, [r2, #64]
 1373 0028 02F08052 		and	r2, r2, #268435456
 1374 002c 0192     		str	r2, [sp, #4]
 212:Core/Src/main.c ****   __HAL_PWR_VOLTAGESCALING_CONFIG(PWR_REGULATOR_VOLTAGE_SCALE2);
 1375              		.loc 1 212 3 view .LVU320
 1376 002e 019A     		ldr	r2, [sp, #4]
 1377              	.LBE13:
 212:Core/Src/main.c ****   __HAL_PWR_VOLTAGESCALING_CONFIG(PWR_REGULATOR_VOLTAGE_SCALE2);
 1378              		.loc 1 212 3 view .LVU321
 213:Core/Src/main.c **** 
 1379              		.loc 1 213 3 view .LVU322
 1380              	.LBB14:
 213:Core/Src/main.c **** 
 1381              		.loc 1 213 3 view .LVU323
 1382 0030 0293     		str	r3, [sp, #8]
 213:Core/Src/main.c **** 
 1383              		.loc 1 213 3 view .LVU324
ARM GAS  C:\Users\jdcox\AppData\Local\Temp\ccHRpQhd.s 			page 45


 1384 0032 1D4A     		ldr	r2, .L71+4
 1385 0034 1368     		ldr	r3, [r2]
 1386 0036 23F44043 		bic	r3, r3, #49152
 1387 003a 43F40043 		orr	r3, r3, #32768
 1388 003e 1360     		str	r3, [r2]
 213:Core/Src/main.c **** 
 1389              		.loc 1 213 3 view .LVU325
 1390 0040 1368     		ldr	r3, [r2]
 1391 0042 03F44043 		and	r3, r3, #49152
 1392 0046 0293     		str	r3, [sp, #8]
 213:Core/Src/main.c **** 
 1393              		.loc 1 213 3 view .LVU326
 1394 0048 029B     		ldr	r3, [sp, #8]
 1395              	.LBE14:
 213:Core/Src/main.c **** 
 1396              		.loc 1 213 3 view .LVU327
 218:Core/Src/main.c ****   RCC_OscInitStruct.HSEState = RCC_HSE_ON;
 1397              		.loc 1 218 3 view .LVU328
 218:Core/Src/main.c ****   RCC_OscInitStruct.HSEState = RCC_HSE_ON;
 1398              		.loc 1 218 36 is_stmt 0 view .LVU329
 1399 004a 0123     		movs	r3, #1
 1400 004c 0893     		str	r3, [sp, #32]
 219:Core/Src/main.c ****   RCC_OscInitStruct.PLL.PLLState = RCC_PLL_ON;
 1401              		.loc 1 219 3 is_stmt 1 view .LVU330
 219:Core/Src/main.c ****   RCC_OscInitStruct.PLL.PLLState = RCC_PLL_ON;
 1402              		.loc 1 219 30 is_stmt 0 view .LVU331
 1403 004e 4FF48033 		mov	r3, #65536
 1404 0052 0993     		str	r3, [sp, #36]
 220:Core/Src/main.c ****   RCC_OscInitStruct.PLL.PLLSource = RCC_PLLSOURCE_HSE;
 1405              		.loc 1 220 3 is_stmt 1 view .LVU332
 220:Core/Src/main.c ****   RCC_OscInitStruct.PLL.PLLSource = RCC_PLLSOURCE_HSE;
 1406              		.loc 1 220 34 is_stmt 0 view .LVU333
 1407 0054 0223     		movs	r3, #2
 1408 0056 0E93     		str	r3, [sp, #56]
 221:Core/Src/main.c ****   RCC_OscInitStruct.PLL.PLLM = 25;
 1409              		.loc 1 221 3 is_stmt 1 view .LVU334
 221:Core/Src/main.c ****   RCC_OscInitStruct.PLL.PLLM = 25;
 1410              		.loc 1 221 35 is_stmt 0 view .LVU335
 1411 0058 4FF48003 		mov	r3, #4194304
 1412 005c 0F93     		str	r3, [sp, #60]
 222:Core/Src/main.c ****   RCC_OscInitStruct.PLL.PLLN = 336;
 1413              		.loc 1 222 3 is_stmt 1 view .LVU336
 222:Core/Src/main.c ****   RCC_OscInitStruct.PLL.PLLN = 336;
 1414              		.loc 1 222 30 is_stmt 0 view .LVU337
 1415 005e 1923     		movs	r3, #25
 1416 0060 1093     		str	r3, [sp, #64]
 223:Core/Src/main.c ****   RCC_OscInitStruct.PLL.PLLP = RCC_PLLP_DIV4;
 1417              		.loc 1 223 3 is_stmt 1 view .LVU338
 223:Core/Src/main.c ****   RCC_OscInitStruct.PLL.PLLP = RCC_PLLP_DIV4;
 1418              		.loc 1 223 30 is_stmt 0 view .LVU339
 1419 0062 4FF4A873 		mov	r3, #336
 1420 0066 1193     		str	r3, [sp, #68]
 224:Core/Src/main.c ****   RCC_OscInitStruct.PLL.PLLQ = 7;
 1421              		.loc 1 224 3 is_stmt 1 view .LVU340
 224:Core/Src/main.c ****   RCC_OscInitStruct.PLL.PLLQ = 7;
 1422              		.loc 1 224 30 is_stmt 0 view .LVU341
 1423 0068 0423     		movs	r3, #4
ARM GAS  C:\Users\jdcox\AppData\Local\Temp\ccHRpQhd.s 			page 46


 1424 006a 1293     		str	r3, [sp, #72]
 225:Core/Src/main.c ****   if (HAL_RCC_OscConfig(&RCC_OscInitStruct) != HAL_OK)
 1425              		.loc 1 225 3 is_stmt 1 view .LVU342
 225:Core/Src/main.c ****   if (HAL_RCC_OscConfig(&RCC_OscInitStruct) != HAL_OK)
 1426              		.loc 1 225 30 is_stmt 0 view .LVU343
 1427 006c 0723     		movs	r3, #7
 1428 006e 1393     		str	r3, [sp, #76]
 226:Core/Src/main.c ****   {
 1429              		.loc 1 226 3 is_stmt 1 view .LVU344
 226:Core/Src/main.c ****   {
 1430              		.loc 1 226 7 is_stmt 0 view .LVU345
 1431 0070 08A8     		add	r0, sp, #32
 1432 0072 FFF7FEFF 		bl	HAL_RCC_OscConfig
 1433              	.LVL103:
 226:Core/Src/main.c ****   {
 1434              		.loc 1 226 6 view .LVU346
 1435 0076 80B9     		cbnz	r0, .L69
 233:Core/Src/main.c ****                               |RCC_CLOCKTYPE_PCLK1|RCC_CLOCKTYPE_PCLK2;
 1436              		.loc 1 233 3 is_stmt 1 view .LVU347
 233:Core/Src/main.c ****                               |RCC_CLOCKTYPE_PCLK1|RCC_CLOCKTYPE_PCLK2;
 1437              		.loc 1 233 31 is_stmt 0 view .LVU348
 1438 0078 0F23     		movs	r3, #15
 1439 007a 0393     		str	r3, [sp, #12]
 235:Core/Src/main.c ****   RCC_ClkInitStruct.AHBCLKDivider = RCC_SYSCLK_DIV1;
 1440              		.loc 1 235 3 is_stmt 1 view .LVU349
 235:Core/Src/main.c ****   RCC_ClkInitStruct.AHBCLKDivider = RCC_SYSCLK_DIV1;
 1441              		.loc 1 235 34 is_stmt 0 view .LVU350
 1442 007c 0221     		movs	r1, #2
 1443 007e 0491     		str	r1, [sp, #16]
 236:Core/Src/main.c ****   RCC_ClkInitStruct.APB1CLKDivider = RCC_HCLK_DIV2;
 1444              		.loc 1 236 3 is_stmt 1 view .LVU351
 236:Core/Src/main.c ****   RCC_ClkInitStruct.APB1CLKDivider = RCC_HCLK_DIV2;
 1445              		.loc 1 236 35 is_stmt 0 view .LVU352
 1446 0080 0023     		movs	r3, #0
 1447 0082 0593     		str	r3, [sp, #20]
 237:Core/Src/main.c ****   RCC_ClkInitStruct.APB2CLKDivider = RCC_HCLK_DIV1;
 1448              		.loc 1 237 3 is_stmt 1 view .LVU353
 237:Core/Src/main.c ****   RCC_ClkInitStruct.APB2CLKDivider = RCC_HCLK_DIV1;
 1449              		.loc 1 237 36 is_stmt 0 view .LVU354
 1450 0084 4FF48052 		mov	r2, #4096
 1451 0088 0692     		str	r2, [sp, #24]
 238:Core/Src/main.c **** 
 1452              		.loc 1 238 3 is_stmt 1 view .LVU355
 238:Core/Src/main.c **** 
 1453              		.loc 1 238 36 is_stmt 0 view .LVU356
 1454 008a 0793     		str	r3, [sp, #28]
 240:Core/Src/main.c ****   {
 1455              		.loc 1 240 3 is_stmt 1 view .LVU357
 240:Core/Src/main.c ****   {
 1456              		.loc 1 240 7 is_stmt 0 view .LVU358
 1457 008c 03A8     		add	r0, sp, #12
 1458 008e FFF7FEFF 		bl	HAL_RCC_ClockConfig
 1459              	.LVL104:
 240:Core/Src/main.c ****   {
 1460              		.loc 1 240 6 view .LVU359
 1461 0092 20B9     		cbnz	r0, .L70
 244:Core/Src/main.c **** 
ARM GAS  C:\Users\jdcox\AppData\Local\Temp\ccHRpQhd.s 			page 47


 1462              		.loc 1 244 1 view .LVU360
 1463 0094 15B0     		add	sp, sp, #84
 1464              	.LCFI15:
 1465              		.cfi_remember_state
 1466              		.cfi_def_cfa_offset 4
 1467              		@ sp needed
 1468 0096 5DF804FB 		ldr	pc, [sp], #4
 1469              	.L69:
 1470              	.LCFI16:
 1471              		.cfi_restore_state
 228:Core/Src/main.c ****   }
 1472              		.loc 1 228 5 is_stmt 1 view .LVU361
 1473 009a FFF7FEFF 		bl	Error_Handler
 1474              	.LVL105:
 1475              	.L70:
 242:Core/Src/main.c ****   }
 1476              		.loc 1 242 5 view .LVU362
 1477 009e FFF7FEFF 		bl	Error_Handler
 1478              	.LVL106:
 1479              	.L72:
 1480 00a2 00BF     		.align	2
 1481              	.L71:
 1482 00a4 00380240 		.word	1073887232
 1483 00a8 00700040 		.word	1073770496
 1484              		.cfi_endproc
 1485              	.LFE139:
 1487              		.section	.text.main,"ax",%progbits
 1488              		.align	1
 1489              		.global	main
 1490              		.syntax unified
 1491              		.thumb
 1492              		.thumb_func
 1494              	main:
 1495              	.LFB138:
  99:Core/Src/main.c ****   /* USER CODE BEGIN 1 */
 1496              		.loc 1 99 1 view -0
 1497              		.cfi_startproc
 1498              		@ Volatile: function does not return.
 1499              		@ args = 0, pretend = 0, frame = 112
 1500              		@ frame_needed = 0, uses_anonymous_args = 0
 1501 0000 00B5     		push	{lr}
 1502              	.LCFI17:
 1503              		.cfi_def_cfa_offset 4
 1504              		.cfi_offset 14, -4
 1505 0002 9DB0     		sub	sp, sp, #116
 1506              	.LCFI18:
 1507              		.cfi_def_cfa_offset 120
 107:Core/Src/main.c **** 
 1508              		.loc 1 107 3 view .LVU364
 1509 0004 FFF7FEFF 		bl	HAL_Init
 1510              	.LVL107:
 114:Core/Src/main.c **** 
 1511              		.loc 1 114 3 view .LVU365
 1512 0008 FFF7FEFF 		bl	SystemClock_Config
 1513              	.LVL108:
 121:Core/Src/main.c ****   MX_DMA_Init();
 1514              		.loc 1 121 3 view .LVU366
ARM GAS  C:\Users\jdcox\AppData\Local\Temp\ccHRpQhd.s 			page 48


 1515 000c FFF7FEFF 		bl	MX_GPIO_Init
 1516              	.LVL109:
 122:Core/Src/main.c ****   MX_SPI1_Init();
 1517              		.loc 1 122 3 view .LVU367
 1518 0010 FFF7FEFF 		bl	MX_DMA_Init
 1519              	.LVL110:
 123:Core/Src/main.c ****   MX_I2C1_Init();
 1520              		.loc 1 123 3 view .LVU368
 1521 0014 FFF7FEFF 		bl	MX_SPI1_Init
 1522              	.LVL111:
 124:Core/Src/main.c ****   /* USER CODE BEGIN 2 */
 1523              		.loc 1 124 3 view .LVU369
 1524 0018 FFF7FEFF 		bl	MX_I2C1_Init
 1525              	.LVL112:
 139:Core/Src/main.c **** 
 1526              		.loc 1 139 3 view .LVU370
 139:Core/Src/main.c **** 
 1527              		.loc 1 139 16 is_stmt 0 view .LVU371
 1528 001c 0120     		movs	r0, #1
 1529 001e FFF7FEFF 		bl	xQueueCreateMutex
 1530              	.LVL113:
 139:Core/Src/main.c **** 
 1531              		.loc 1 139 14 view .LVU372
 1532 0022 2D4B     		ldr	r3, .L76
 1533 0024 1860     		str	r0, [r3]
 149:Core/Src/main.c ****   msTickHandle = osTimerCreate(osTimer(msTick), osTimerPeriodic, NULL);
 1534              		.loc 1 149 3 is_stmt 1 view .LVU373
 1535 0026 2D4B     		ldr	r3, .L76+4
 1536 0028 1A93     		str	r3, [sp, #104]
 1537 002a 0025     		movs	r5, #0
 1538 002c 1B95     		str	r5, [sp, #108]
 150:Core/Src/main.c **** 
 1539              		.loc 1 150 3 view .LVU374
 150:Core/Src/main.c **** 
 1540              		.loc 1 150 18 is_stmt 0 view .LVU375
 1541 002e 2A46     		mov	r2, r5
 1542 0030 0121     		movs	r1, #1
 1543 0032 1AA8     		add	r0, sp, #104
 1544 0034 FFF7FEFF 		bl	osTimerCreate
 1545              	.LVL114:
 150:Core/Src/main.c **** 
 1546              		.loc 1 150 16 view .LVU376
 1547 0038 294B     		ldr	r3, .L76+8
 1548 003a 1860     		str	r0, [r3]
 153:Core/Src/main.c ****   debounceTimerHandle = osTimerCreate(osTimer(debounceTimer), osTimerOnce, NULL);
 1549              		.loc 1 153 3 is_stmt 1 view .LVU377
 1550 003c 294B     		ldr	r3, .L76+12
 1551 003e 1893     		str	r3, [sp, #96]
 1552 0040 1995     		str	r5, [sp, #100]
 154:Core/Src/main.c **** 
 1553              		.loc 1 154 3 view .LVU378
 154:Core/Src/main.c **** 
 1554              		.loc 1 154 25 is_stmt 0 view .LVU379
 1555 0042 2A46     		mov	r2, r5
 1556 0044 2946     		mov	r1, r5
 1557 0046 18A8     		add	r0, sp, #96
 1558 0048 FFF7FEFF 		bl	osTimerCreate
ARM GAS  C:\Users\jdcox\AppData\Local\Temp\ccHRpQhd.s 			page 49


 1559              	.LVL115:
 154:Core/Src/main.c **** 
 1560              		.loc 1 154 23 view .LVU380
 1561 004c 264B     		ldr	r3, .L76+16
 1562 004e 1860     		str	r0, [r3]
 157:Core/Src/main.c ****   blinkTimerHandle = osTimerCreate(osTimer(blinkTimer), osTimerOnce, NULL);
 1563              		.loc 1 157 3 is_stmt 1 view .LVU381
 1564 0050 264B     		ldr	r3, .L76+20
 1565 0052 1693     		str	r3, [sp, #88]
 1566 0054 1795     		str	r5, [sp, #92]
 158:Core/Src/main.c **** 
 1567              		.loc 1 158 3 view .LVU382
 158:Core/Src/main.c **** 
 1568              		.loc 1 158 22 is_stmt 0 view .LVU383
 1569 0056 2A46     		mov	r2, r5
 1570 0058 2946     		mov	r1, r5
 1571 005a 16A8     		add	r0, sp, #88
 1572 005c FFF7FEFF 		bl	osTimerCreate
 1573              	.LVL116:
 158:Core/Src/main.c **** 
 1574              		.loc 1 158 20 view .LVU384
 1575 0060 234B     		ldr	r3, .L76+24
 1576 0062 1860     		str	r0, [r3]
 171:Core/Src/main.c ****   defaultTaskHandle = osThreadCreate(osThread(defaultTask), NULL);
 1577              		.loc 1 171 3 is_stmt 1 view .LVU385
 1578 0064 234C     		ldr	r4, .L76+28
 1579 0066 0DF13C0C 		add	ip, sp, #60
 1580 006a A646     		mov	lr, r4
 1581 006c BEE80F00 		ldmia	lr!, {r0, r1, r2, r3}
 1582 0070 ACE80F00 		stmia	ip!, {r0, r1, r2, r3}
 1583 0074 9EE80700 		ldm	lr, {r0, r1, r2}
 1584 0078 8CE80700 		stm	ip, {r0, r1, r2}
 172:Core/Src/main.c **** 
 1585              		.loc 1 172 3 view .LVU386
 172:Core/Src/main.c **** 
 1586              		.loc 1 172 23 is_stmt 0 view .LVU387
 1587 007c 2946     		mov	r1, r5
 1588 007e 0FA8     		add	r0, sp, #60
 1589 0080 FFF7FEFF 		bl	osThreadCreate
 1590              	.LVL117:
 172:Core/Src/main.c **** 
 1591              		.loc 1 172 21 view .LVU388
 1592 0084 1C4B     		ldr	r3, .L76+32
 1593 0086 1860     		str	r0, [r3]
 175:Core/Src/main.c ****   loraRXTaskHandle = osThreadCreate(osThread(loraRXTask), NULL);
 1594              		.loc 1 175 3 is_stmt 1 view .LVU389
 1595 0088 0DF1200C 		add	ip, sp, #32
 1596 008c 04F11C0E 		add	lr, r4, #28
 1597 0090 BEE80F00 		ldmia	lr!, {r0, r1, r2, r3}
 1598 0094 ACE80F00 		stmia	ip!, {r0, r1, r2, r3}
 1599 0098 9EE80700 		ldm	lr, {r0, r1, r2}
 1600 009c 8CE80700 		stm	ip, {r0, r1, r2}
 176:Core/Src/main.c **** 
 1601              		.loc 1 176 3 view .LVU390
 176:Core/Src/main.c **** 
 1602              		.loc 1 176 22 is_stmt 0 view .LVU391
 1603 00a0 2946     		mov	r1, r5
ARM GAS  C:\Users\jdcox\AppData\Local\Temp\ccHRpQhd.s 			page 50


 1604 00a2 08A8     		add	r0, sp, #32
 1605 00a4 FFF7FEFF 		bl	osThreadCreate
 1606              	.LVL118:
 176:Core/Src/main.c **** 
 1607              		.loc 1 176 20 view .LVU392
 1608 00a8 144B     		ldr	r3, .L76+36
 1609 00aa 1860     		str	r0, [r3]
 179:Core/Src/main.c ****   displayTaskHandle = osThreadCreate(osThread(displayTask), NULL);
 1610              		.loc 1 179 3 is_stmt 1 view .LVU393
 1611 00ac 0DF1040E 		add	lr, sp, #4
 1612 00b0 04F1380C 		add	ip, r4, #56
 1613 00b4 BCE80F00 		ldmia	ip!, {r0, r1, r2, r3}
 1614 00b8 AEE80F00 		stmia	lr!, {r0, r1, r2, r3}
 1615 00bc 9CE80700 		ldm	ip, {r0, r1, r2}
 1616 00c0 8EE80700 		stm	lr, {r0, r1, r2}
 180:Core/Src/main.c **** 
 1617              		.loc 1 180 3 view .LVU394
 180:Core/Src/main.c **** 
 1618              		.loc 1 180 23 is_stmt 0 view .LVU395
 1619 00c4 2946     		mov	r1, r5
 1620 00c6 01A8     		add	r0, sp, #4
 1621 00c8 FFF7FEFF 		bl	osThreadCreate
 1622              	.LVL119:
 180:Core/Src/main.c **** 
 1623              		.loc 1 180 21 view .LVU396
 1624 00cc 0C4B     		ldr	r3, .L76+40
 1625 00ce 1860     		str	r0, [r3]
 187:Core/Src/main.c **** 
 1626              		.loc 1 187 3 is_stmt 1 view .LVU397
 1627 00d0 FFF7FEFF 		bl	osKernelStart
 1628              	.LVL120:
 1629              	.L74:
 192:Core/Src/main.c ****   {
 1630              		.loc 1 192 3 discriminator 1 view .LVU398
 197:Core/Src/main.c ****   /* USER CODE END 3 */
 1631              		.loc 1 197 3 discriminator 1 view .LVU399
 192:Core/Src/main.c ****   {
 1632              		.loc 1 192 9 discriminator 1 view .LVU400
 1633 00d4 FEE7     		b	.L74
 1634              	.L77:
 1635 00d6 00BF     		.align	2
 1636              	.L76:
 1637 00d8 00000000 		.word	.LANCHOR0
 1638 00dc 00000000 		.word	msTickCallback
 1639 00e0 00000000 		.word	.LANCHOR4
 1640 00e4 00000000 		.word	debounceCallback
 1641 00e8 00000000 		.word	.LANCHOR5
 1642 00ec 00000000 		.word	blinkTimerCallback
 1643 00f0 00000000 		.word	.LANCHOR6
 1644 00f4 00000000 		.word	.LANCHOR7
 1645 00f8 00000000 		.word	.LANCHOR8
 1646 00fc 00000000 		.word	.LANCHOR9
 1647 0100 00000000 		.word	.LANCHOR10
 1648              		.cfi_endproc
 1649              	.LFE138:
 1651              		.section	.rodata.str1.4,"aMS",%progbits,1
 1652              		.align	2
ARM GAS  C:\Users\jdcox\AppData\Local\Temp\ccHRpQhd.s 			page 51


 1653              	.LC4:
 1654 0000 64697370 		.ascii	"displayTask\000"
 1654      6C617954 
 1654      61736B00 
 1655              		.align	2
 1656              	.LC2:
 1657 000c 6C6F7261 		.ascii	"loraRXTask\000"
 1657      52585461 
 1657      736B00
 1658 0017 00       		.align	2
 1659              	.LC0:
 1660 0018 64656661 		.ascii	"defaultTask\000"
 1660      756C7454 
 1660      61736B00 
 1661              		.global	lora
 1662              		.global	xloraMutex
 1663              		.global	lora_mutexHandle
 1664              		.global	blinkTimerHandle
 1665              		.global	debounceTimerHandle
 1666              		.global	msTickHandle
 1667              		.global	displayTaskHandle
 1668              		.global	loraRXTaskHandle
 1669              		.global	defaultTaskHandle
 1670              		.global	hdma_spi1_rx
 1671              		.global	hdma_spi1_tx
 1672              		.global	hspi1
 1673              		.global	hdma_i2c1_tx
 1674              		.global	hi2c1
 1675              		.section	.rodata
 1676              		.align	2
 1677              		.set	.LANCHOR7,. + 0
 1678              	.LC18:
 1679 0000 18000000 		.word	.LC0
 1680 0004 00000000 		.word	StartDefaultTask
 1681 0008 0000     		.short	0
 1682 000a 0000     		.space	2
 1683 000c 00000000 		.word	0
 1684 0010 80000000 		.word	128
 1685 0014 00000000 		.word	0
 1686 0018 00000000 		.word	0
 1687              	.LC19:
 1688 001c 0C000000 		.word	.LC2
 1689 0020 00000000 		.word	StartLoraRXTask
 1690 0024 0100     		.short	1
 1691 0026 0000     		.space	2
 1692 0028 00000000 		.word	0
 1693 002c 80000000 		.word	128
 1694 0030 00000000 		.word	0
 1695 0034 00000000 		.word	0
 1696              	.LC20:
 1697 0038 00000000 		.word	.LC4
 1698 003c 00000000 		.word	StartDisplayTask
 1699 0040 0000     		.short	0
 1700 0042 0000     		.space	2
 1701 0044 00000000 		.word	0
 1702 0048 80000000 		.word	128
 1703 004c 00000000 		.word	0
ARM GAS  C:\Users\jdcox\AppData\Local\Temp\ccHRpQhd.s 			page 52


 1704 0050 00000000 		.word	0
 1705              		.section	.bss.blinkTimerHandle,"aw",%nobits
 1706              		.align	2
 1707              		.set	.LANCHOR6,. + 0
 1710              	blinkTimerHandle:
 1711 0000 00000000 		.space	4
 1712              		.section	.bss.debounceTimerHandle,"aw",%nobits
 1713              		.align	2
 1714              		.set	.LANCHOR5,. + 0
 1717              	debounceTimerHandle:
 1718 0000 00000000 		.space	4
 1719              		.section	.bss.defaultTaskHandle,"aw",%nobits
 1720              		.align	2
 1721              		.set	.LANCHOR8,. + 0
 1724              	defaultTaskHandle:
 1725 0000 00000000 		.space	4
 1726              		.section	.bss.displayTaskHandle,"aw",%nobits
 1727              		.align	2
 1728              		.set	.LANCHOR10,. + 0
 1731              	displayTaskHandle:
 1732 0000 00000000 		.space	4
 1733              		.section	.bss.hdma_i2c1_tx,"aw",%nobits
 1734              		.align	2
 1737              	hdma_i2c1_tx:
 1738 0000 00000000 		.space	96
 1738      00000000 
 1738      00000000 
 1738      00000000 
 1738      00000000 
 1739              		.section	.bss.hdma_spi1_rx,"aw",%nobits
 1740              		.align	2
 1743              	hdma_spi1_rx:
 1744 0000 00000000 		.space	96
 1744      00000000 
 1744      00000000 
 1744      00000000 
 1744      00000000 
 1745              		.section	.bss.hdma_spi1_tx,"aw",%nobits
 1746              		.align	2
 1749              	hdma_spi1_tx:
 1750 0000 00000000 		.space	96
 1750      00000000 
 1750      00000000 
 1750      00000000 
 1750      00000000 
 1751              		.section	.bss.hi2c1,"aw",%nobits
 1752              		.align	2
 1753              		.set	.LANCHOR3,. + 0
 1756              	hi2c1:
 1757 0000 00000000 		.space	84
 1757      00000000 
 1757      00000000 
 1757      00000000 
 1757      00000000 
 1758              		.section	.bss.hspi1,"aw",%nobits
 1759              		.align	2
 1760              		.set	.LANCHOR1,. + 0
ARM GAS  C:\Users\jdcox\AppData\Local\Temp\ccHRpQhd.s 			page 53


 1763              	hspi1:
 1764 0000 00000000 		.space	88
 1764      00000000 
 1764      00000000 
 1764      00000000 
 1764      00000000 
 1765              		.section	.bss.lora,"aw",%nobits
 1766              		.align	2
 1767              		.set	.LANCHOR2,. + 0
 1770              	lora:
 1771 0000 00000000 		.space	24
 1771      00000000 
 1771      00000000 
 1771      00000000 
 1771      00000000 
 1772              		.section	.bss.loraRXTaskHandle,"aw",%nobits
 1773              		.align	2
 1774              		.set	.LANCHOR9,. + 0
 1777              	loraRXTaskHandle:
 1778 0000 00000000 		.space	4
 1779              		.section	.bss.lora_mutexHandle,"aw",%nobits
 1780              		.align	2
 1783              	lora_mutexHandle:
 1784 0000 00000000 		.space	4
 1785              		.section	.bss.msTickHandle,"aw",%nobits
 1786              		.align	2
 1787              		.set	.LANCHOR4,. + 0
 1790              	msTickHandle:
 1791 0000 00000000 		.space	4
 1792              		.section	.bss.xloraMutex,"aw",%nobits
 1793              		.align	2
 1794              		.set	.LANCHOR0,. + 0
 1797              	xloraMutex:
 1798 0000 00000000 		.space	4
 1799              		.text
 1800              	.Letext0:
 1801              		.file 3 "Drivers/CMSIS/Device/ST/STM32F4xx/Include/stm32f401xc.h"
 1802              		.file 4 "c:\\libraries\\gcc\\11.2 2022.02\\arm-none-eabi\\include\\machine\\_default_types.h"
 1803              		.file 5 "c:\\libraries\\gcc\\11.2 2022.02\\arm-none-eabi\\include\\sys\\_stdint.h"
 1804              		.file 6 "Drivers/CMSIS/Device/ST/STM32F4xx/Include/stm32f4xx.h"
 1805              		.file 7 "Drivers/STM32F4xx_HAL_Driver/Inc/stm32f4xx_hal_def.h"
 1806              		.file 8 "Drivers/STM32F4xx_HAL_Driver/Inc/stm32f4xx_hal_rcc_ex.h"
 1807              		.file 9 "Drivers/STM32F4xx_HAL_Driver/Inc/stm32f4xx_hal_rcc.h"
 1808              		.file 10 "Drivers/STM32F4xx_HAL_Driver/Inc/stm32f4xx_hal_gpio.h"
 1809              		.file 11 "Drivers/STM32F4xx_HAL_Driver/Inc/stm32f4xx_hal_dma.h"
 1810              		.file 12 "Drivers/STM32F4xx_HAL_Driver/Inc/stm32f4xx_hal_i2c.h"
 1811              		.file 13 "Drivers/STM32F4xx_HAL_Driver/Inc/stm32f4xx_hal_spi.h"
 1812              		.file 14 "Drivers/STM32F4xx_HAL_Driver/Inc/stm32f4xx_hal_tim.h"
 1813              		.file 15 "Middlewares/Third_Party/FreeRTOS/Source/include/projdefs.h"
 1814              		.file 16 "Middlewares/Third_Party/FreeRTOS/Source/portable/GCC/ARM_CM4F/portmacro.h"
 1815              		.file 17 "Middlewares/Third_Party/FreeRTOS/Source/include/FreeRTOS.h"
 1816              		.file 18 "Middlewares/Third_Party/FreeRTOS/Source/include/task.h"
 1817              		.file 19 "Middlewares/Third_Party/FreeRTOS/Source/include/timers.h"
 1818              		.file 20 "Middlewares/Third_Party/FreeRTOS/Source/include/queue.h"
 1819              		.file 21 "Middlewares/Third_Party/FreeRTOS/Source/include/semphr.h"
 1820              		.file 22 "Middlewares/Third_Party/FreeRTOS/Source/CMSIS_RTOS/cmsis_os.h"
 1821              		.file 23 "Core/Inc/lora_sx1276.h"
ARM GAS  C:\Users\jdcox\AppData\Local\Temp\ccHRpQhd.s 			page 54


 1822              		.file 24 "Core/Inc/extern.h"
 1823              		.file 25 "Core/Inc/ssd1306_fonts.h"
 1824              		.file 26 "Core/Inc/ssd1306.h"
 1825              		.file 27 "c:\\libraries\\gcc\\11.2 2022.02\\arm-none-eabi\\include\\stdio.h"
 1826              		.file 28 "Core/Inc/i2c-lcd.h"
 1827              		.file 29 "Drivers/STM32F4xx_HAL_Driver/Inc/stm32f4xx_hal.h"
 1828              		.file 30 "Drivers/STM32F4xx_HAL_Driver/Inc/stm32f4xx_hal_cortex.h"
 1829              		.file 31 "<built-in>"
ARM GAS  C:\Users\jdcox\AppData\Local\Temp\ccHRpQhd.s 			page 55


DEFINED SYMBOLS
                            *ABS*:00000000 main.c
C:\Users\jdcox\AppData\Local\Temp\ccHRpQhd.s:20     .text.msTickCallback:00000000 $t
C:\Users\jdcox\AppData\Local\Temp\ccHRpQhd.s:26     .text.msTickCallback:00000000 msTickCallback
C:\Users\jdcox\AppData\Local\Temp\ccHRpQhd.s:101    .text.msTickCallback:00000050 $d
C:\Users\jdcox\AppData\Local\Temp\ccHRpQhd.s:110    .text.debounceCallback:00000000 $t
C:\Users\jdcox\AppData\Local\Temp\ccHRpQhd.s:116    .text.debounceCallback:00000000 debounceCallback
C:\Users\jdcox\AppData\Local\Temp\ccHRpQhd.s:134    .text.debounceCallback:00000008 $d
C:\Users\jdcox\AppData\Local\Temp\ccHRpQhd.s:139    .text.blinkTimerCallback:00000000 $t
C:\Users\jdcox\AppData\Local\Temp\ccHRpQhd.s:145    .text.blinkTimerCallback:00000000 blinkTimerCallback
C:\Users\jdcox\AppData\Local\Temp\ccHRpQhd.s:159    .text.MX_GPIO_Init:00000000 $t
C:\Users\jdcox\AppData\Local\Temp\ccHRpQhd.s:164    .text.MX_GPIO_Init:00000000 MX_GPIO_Init
C:\Users\jdcox\AppData\Local\Temp\ccHRpQhd.s:346    .text.MX_GPIO_Init:000000e0 $d
C:\Users\jdcox\AppData\Local\Temp\ccHRpQhd.s:353    .text.MX_DMA_Init:00000000 $t
C:\Users\jdcox\AppData\Local\Temp\ccHRpQhd.s:358    .text.MX_DMA_Init:00000000 MX_DMA_Init
C:\Users\jdcox\AppData\Local\Temp\ccHRpQhd.s:445    .text.MX_DMA_Init:00000064 $d
C:\Users\jdcox\AppData\Local\Temp\ccHRpQhd.s:450    .text.StartDisplayTask:00000000 $t
C:\Users\jdcox\AppData\Local\Temp\ccHRpQhd.s:456    .text.StartDisplayTask:00000000 StartDisplayTask
C:\Users\jdcox\AppData\Local\Temp\ccHRpQhd.s:483    .rodata.StartDefaultTask.str1.4:00000000 $d
C:\Users\jdcox\AppData\Local\Temp\ccHRpQhd.s:520    .text.StartDefaultTask:00000000 $t
C:\Users\jdcox\AppData\Local\Temp\ccHRpQhd.s:526    .text.StartDefaultTask:00000000 StartDefaultTask
C:\Users\jdcox\AppData\Local\Temp\ccHRpQhd.s:704    .text.StartDefaultTask:00000100 $d
C:\Users\jdcox\AppData\Local\Temp\ccHRpQhd.s:710    .text.StartDefaultTask:00000118 $t
C:\Users\jdcox\AppData\Local\Temp\ccHRpQhd.s:1008   .text.StartDefaultTask:000002c8 $d
C:\Users\jdcox\AppData\Local\Temp\ccHRpQhd.s:1037   .text.StartLoraRXTask:00000000 $t
C:\Users\jdcox\AppData\Local\Temp\ccHRpQhd.s:1043   .text.StartLoraRXTask:00000000 StartLoraRXTask
C:\Users\jdcox\AppData\Local\Temp\ccHRpQhd.s:1088   .text.StartLoraRXTask:00000024 $d
C:\Users\jdcox\AppData\Local\Temp\ccHRpQhd.s:1094   .text.HAL_TIM_PeriodElapsedCallback:00000000 $t
C:\Users\jdcox\AppData\Local\Temp\ccHRpQhd.s:1100   .text.HAL_TIM_PeriodElapsedCallback:00000000 HAL_TIM_PeriodElapsedCallback
C:\Users\jdcox\AppData\Local\Temp\ccHRpQhd.s:1134   .text.HAL_TIM_PeriodElapsedCallback:00000014 $d
C:\Users\jdcox\AppData\Local\Temp\ccHRpQhd.s:1139   .text.Error_Handler:00000000 $t
C:\Users\jdcox\AppData\Local\Temp\ccHRpQhd.s:1145   .text.Error_Handler:00000000 Error_Handler
C:\Users\jdcox\AppData\Local\Temp\ccHRpQhd.s:1177   .text.MX_SPI1_Init:00000000 $t
C:\Users\jdcox\AppData\Local\Temp\ccHRpQhd.s:1182   .text.MX_SPI1_Init:00000000 MX_SPI1_Init
C:\Users\jdcox\AppData\Local\Temp\ccHRpQhd.s:1251   .text.MX_SPI1_Init:00000038 $d
C:\Users\jdcox\AppData\Local\Temp\ccHRpQhd.s:1257   .text.MX_I2C1_Init:00000000 $t
C:\Users\jdcox\AppData\Local\Temp\ccHRpQhd.s:1262   .text.MX_I2C1_Init:00000000 MX_I2C1_Init
C:\Users\jdcox\AppData\Local\Temp\ccHRpQhd.s:1321   .text.MX_I2C1_Init:00000030 $d
C:\Users\jdcox\AppData\Local\Temp\ccHRpQhd.s:1328   .text.SystemClock_Config:00000000 $t
C:\Users\jdcox\AppData\Local\Temp\ccHRpQhd.s:1334   .text.SystemClock_Config:00000000 SystemClock_Config
C:\Users\jdcox\AppData\Local\Temp\ccHRpQhd.s:1482   .text.SystemClock_Config:000000a4 $d
C:\Users\jdcox\AppData\Local\Temp\ccHRpQhd.s:1488   .text.main:00000000 $t
C:\Users\jdcox\AppData\Local\Temp\ccHRpQhd.s:1494   .text.main:00000000 main
C:\Users\jdcox\AppData\Local\Temp\ccHRpQhd.s:1637   .text.main:000000d8 $d
C:\Users\jdcox\AppData\Local\Temp\ccHRpQhd.s:1652   .rodata.str1.4:00000000 $d
C:\Users\jdcox\AppData\Local\Temp\ccHRpQhd.s:1770   .bss.lora:00000000 lora
C:\Users\jdcox\AppData\Local\Temp\ccHRpQhd.s:1797   .bss.xloraMutex:00000000 xloraMutex
C:\Users\jdcox\AppData\Local\Temp\ccHRpQhd.s:1783   .bss.lora_mutexHandle:00000000 lora_mutexHandle
C:\Users\jdcox\AppData\Local\Temp\ccHRpQhd.s:1710   .bss.blinkTimerHandle:00000000 blinkTimerHandle
C:\Users\jdcox\AppData\Local\Temp\ccHRpQhd.s:1717   .bss.debounceTimerHandle:00000000 debounceTimerHandle
C:\Users\jdcox\AppData\Local\Temp\ccHRpQhd.s:1790   .bss.msTickHandle:00000000 msTickHandle
C:\Users\jdcox\AppData\Local\Temp\ccHRpQhd.s:1731   .bss.displayTaskHandle:00000000 displayTaskHandle
C:\Users\jdcox\AppData\Local\Temp\ccHRpQhd.s:1777   .bss.loraRXTaskHandle:00000000 loraRXTaskHandle
C:\Users\jdcox\AppData\Local\Temp\ccHRpQhd.s:1724   .bss.defaultTaskHandle:00000000 defaultTaskHandle
C:\Users\jdcox\AppData\Local\Temp\ccHRpQhd.s:1743   .bss.hdma_spi1_rx:00000000 hdma_spi1_rx
C:\Users\jdcox\AppData\Local\Temp\ccHRpQhd.s:1749   .bss.hdma_spi1_tx:00000000 hdma_spi1_tx
C:\Users\jdcox\AppData\Local\Temp\ccHRpQhd.s:1763   .bss.hspi1:00000000 hspi1
ARM GAS  C:\Users\jdcox\AppData\Local\Temp\ccHRpQhd.s 			page 56


C:\Users\jdcox\AppData\Local\Temp\ccHRpQhd.s:1737   .bss.hdma_i2c1_tx:00000000 hdma_i2c1_tx
C:\Users\jdcox\AppData\Local\Temp\ccHRpQhd.s:1756   .bss.hi2c1:00000000 hi2c1
C:\Users\jdcox\AppData\Local\Temp\ccHRpQhd.s:1676   .rodata:00000000 $d
C:\Users\jdcox\AppData\Local\Temp\ccHRpQhd.s:1706   .bss.blinkTimerHandle:00000000 $d
C:\Users\jdcox\AppData\Local\Temp\ccHRpQhd.s:1713   .bss.debounceTimerHandle:00000000 $d
C:\Users\jdcox\AppData\Local\Temp\ccHRpQhd.s:1720   .bss.defaultTaskHandle:00000000 $d
C:\Users\jdcox\AppData\Local\Temp\ccHRpQhd.s:1727   .bss.displayTaskHandle:00000000 $d
C:\Users\jdcox\AppData\Local\Temp\ccHRpQhd.s:1734   .bss.hdma_i2c1_tx:00000000 $d
C:\Users\jdcox\AppData\Local\Temp\ccHRpQhd.s:1740   .bss.hdma_spi1_rx:00000000 $d
C:\Users\jdcox\AppData\Local\Temp\ccHRpQhd.s:1746   .bss.hdma_spi1_tx:00000000 $d
C:\Users\jdcox\AppData\Local\Temp\ccHRpQhd.s:1752   .bss.hi2c1:00000000 $d
C:\Users\jdcox\AppData\Local\Temp\ccHRpQhd.s:1759   .bss.hspi1:00000000 $d
C:\Users\jdcox\AppData\Local\Temp\ccHRpQhd.s:1766   .bss.lora:00000000 $d
C:\Users\jdcox\AppData\Local\Temp\ccHRpQhd.s:1773   .bss.loraRXTaskHandle:00000000 $d
C:\Users\jdcox\AppData\Local\Temp\ccHRpQhd.s:1780   .bss.lora_mutexHandle:00000000 $d
C:\Users\jdcox\AppData\Local\Temp\ccHRpQhd.s:1786   .bss.msTickHandle:00000000 $d
C:\Users\jdcox\AppData\Local\Temp\ccHRpQhd.s:1793   .bss.xloraMutex:00000000 $d

UNDEFINED SYMBOLS
p1King_flag
p2King_flag
p1King_counter
gameState
p2King_counter
debouncing_Flag
HAL_GPIO_WritePin
HAL_GPIO_Init
HAL_NVIC_SetPriority
HAL_NVIC_EnableIRQ
osDelay
xQueueCreateMutex
lora_init
ssd1306_Init
ssd1306_SetCursor
ssd1306_WriteString
ssd1306_UpdateScreen
ssd1306_Fill
lora_mode_receive_continuous
HAL_GPIO_TogglePin
sprintf
lcd_put_cur
Font_16x24
stateChange_flag
Font_7x10
getKOTHPacket
lora_is_packet_available
HAL_IncTick
HAL_SPI_Init
HAL_I2C_Init
memset
HAL_RCC_OscConfig
HAL_RCC_ClockConfig
HAL_Init
osTimerCreate
osThreadCreate
osKernelStart
