ARM GAS  C:\Users\jdcox\AppData\Local\Temp\ccPJHbOo.s 			page 1


   1              		.cpu cortex-m4
   2              		.arch armv7e-m
   3              		.fpu fpv4-sp-d16
   4              		.eabi_attribute 27, 1
   5              		.eabi_attribute 28, 1
   6              		.eabi_attribute 20, 1
   7              		.eabi_attribute 21, 1
   8              		.eabi_attribute 23, 3
   9              		.eabi_attribute 24, 1
  10              		.eabi_attribute 25, 1
  11              		.eabi_attribute 26, 1
  12              		.eabi_attribute 30, 1
  13              		.eabi_attribute 34, 1
  14              		.eabi_attribute 18, 4
  15              		.file	"main.c"
  16              		.text
  17              	.Ltext0:
  18              		.cfi_sections	.debug_frame
  19              		.section	.text.debounceCallback,"ax",%progbits
  20              		.align	1
  21              		.global	debounceCallback
  22              		.syntax unified
  23              		.thumb
  24              		.thumb_func
  26              	debounceCallback:
  27              	.LVL0:
  28              	.LFB148:
  29              		.file 1 "Core/Src/main.c"
   1:Core/Src/main.c **** /* USER CODE BEGIN Header */
   2:Core/Src/main.c **** /**
   3:Core/Src/main.c ****   ******************************************************************************
   4:Core/Src/main.c ****   * @file           : main.c
   5:Core/Src/main.c ****   * @brief          : Main program body
   6:Core/Src/main.c ****   ******************************************************************************
   7:Core/Src/main.c ****   * @attention
   8:Core/Src/main.c ****   *
   9:Core/Src/main.c ****   * Copyright (c) 2024 STMicroelectronics.
  10:Core/Src/main.c ****   * All rights reserved.
  11:Core/Src/main.c ****   *
  12:Core/Src/main.c ****   * This software is licensed under terms that can be found in the LICENSE file
  13:Core/Src/main.c ****   * in the root directory of this software component.
  14:Core/Src/main.c ****   * If no LICENSE file comes with this software, it is provided AS-IS.
  15:Core/Src/main.c ****   *
  16:Core/Src/main.c ****   ******************************************************************************
  17:Core/Src/main.c ****   */
  18:Core/Src/main.c **** /* USER CODE END Header */
  19:Core/Src/main.c **** /* Includes ------------------------------------------------------------------*/
  20:Core/Src/main.c **** #include "main.h"
  21:Core/Src/main.c **** #include "cmsis_os.h"
  22:Core/Src/main.c **** 
  23:Core/Src/main.c **** /* Private includes ----------------------------------------------------------*/
  24:Core/Src/main.c **** /* USER CODE BEGIN Includes */
  25:Core/Src/main.c **** #include "extern.h"
  26:Core/Src/main.c **** #include "i2c-lcd.h"
  27:Core/Src/main.c **** #include "lora.h"
  28:Core/Src/main.c **** #include <string.h>
  29:Core/Src/main.c **** #include <stdio.h>
ARM GAS  C:\Users\jdcox\AppData\Local\Temp\ccPJHbOo.s 			page 2


  30:Core/Src/main.c **** #include "ssd1306.h"
  31:Core/Src/main.c **** #include "semphr.h"
  32:Core/Src/main.c **** 
  33:Core/Src/main.c **** 
  34:Core/Src/main.c **** /* USER CODE END Includes */
  35:Core/Src/main.c **** 
  36:Core/Src/main.c **** /* Private typedef -----------------------------------------------------------*/
  37:Core/Src/main.c **** /* USER CODE BEGIN PTD */
  38:Core/Src/main.c **** 
  39:Core/Src/main.c **** /* USER CODE END PTD */
  40:Core/Src/main.c **** 
  41:Core/Src/main.c **** /* Private define ------------------------------------------------------------*/
  42:Core/Src/main.c **** /* USER CODE BEGIN PD */
  43:Core/Src/main.c **** /* USER CODE END PD */
  44:Core/Src/main.c **** 
  45:Core/Src/main.c **** /* Private macro -------------------------------------------------------------*/
  46:Core/Src/main.c **** /* USER CODE BEGIN PM */
  47:Core/Src/main.c **** 
  48:Core/Src/main.c **** /* USER CODE END PM */
  49:Core/Src/main.c **** 
  50:Core/Src/main.c **** /* Private variables ---------------------------------------------------------*/
  51:Core/Src/main.c **** I2C_HandleTypeDef hi2c1;
  52:Core/Src/main.c **** DMA_HandleTypeDef hdma_i2c1_tx;
  53:Core/Src/main.c **** 
  54:Core/Src/main.c **** SPI_HandleTypeDef hspi1;
  55:Core/Src/main.c **** DMA_HandleTypeDef hdma_spi1_tx;
  56:Core/Src/main.c **** DMA_HandleTypeDef hdma_spi1_rx;
  57:Core/Src/main.c **** 
  58:Core/Src/main.c **** osThreadId defaultTaskHandle;
  59:Core/Src/main.c **** osThreadId loraTaskHandle;
  60:Core/Src/main.c **** osThreadId displayTaskHandle;
  61:Core/Src/main.c **** osTimerId msTickHandle;
  62:Core/Src/main.c **** osTimerId debounceTimerHandle;
  63:Core/Src/main.c **** osTimerId blinkTimerHandle;
  64:Core/Src/main.c **** osMutexId lora_mutexHandle;
  65:Core/Src/main.c **** /* USER CODE BEGIN PV */
  66:Core/Src/main.c **** SemaphoreHandle_t xloraMutex;
  67:Core/Src/main.c **** LoRa myLoRa;
  68:Core/Src/main.c **** 
  69:Core/Src/main.c **** 
  70:Core/Src/main.c **** /* USER CODE END PV */
  71:Core/Src/main.c **** 
  72:Core/Src/main.c **** /* Private function prototypes -----------------------------------------------*/
  73:Core/Src/main.c **** void SystemClock_Config(void);
  74:Core/Src/main.c **** static void MX_GPIO_Init(void);
  75:Core/Src/main.c **** static void MX_DMA_Init(void);
  76:Core/Src/main.c **** static void MX_SPI1_Init(void);
  77:Core/Src/main.c **** static void MX_I2C1_Init(void);
  78:Core/Src/main.c **** void StartDefaultTask(void const * argument);
  79:Core/Src/main.c **** void StartLoraTask(void const * argument);
  80:Core/Src/main.c **** void StartDisplayTask(void const * argument);
  81:Core/Src/main.c **** void msTickCallback(void const * argument);
  82:Core/Src/main.c **** void debounceCallback(void const * argument);
  83:Core/Src/main.c **** void blinkTimerCallback(void const * argument);
  84:Core/Src/main.c **** 
  85:Core/Src/main.c **** /* USER CODE BEGIN PFP */
  86:Core/Src/main.c **** 
ARM GAS  C:\Users\jdcox\AppData\Local\Temp\ccPJHbOo.s 			page 3


  87:Core/Src/main.c **** /* USER CODE END PFP */
  88:Core/Src/main.c **** 
  89:Core/Src/main.c **** /* Private user code ---------------------------------------------------------*/
  90:Core/Src/main.c **** /* USER CODE BEGIN 0 */
  91:Core/Src/main.c **** 
  92:Core/Src/main.c **** /* USER CODE END 0 */
  93:Core/Src/main.c **** 
  94:Core/Src/main.c **** /**
  95:Core/Src/main.c ****   * @brief  The application entry point.
  96:Core/Src/main.c ****   * @retval int
  97:Core/Src/main.c ****   */
  98:Core/Src/main.c **** int main(void)
  99:Core/Src/main.c **** {
 100:Core/Src/main.c ****   /* USER CODE BEGIN 1 */
 101:Core/Src/main.c **** 
 102:Core/Src/main.c ****   /* USER CODE END 1 */
 103:Core/Src/main.c **** 
 104:Core/Src/main.c ****   /* MCU Configuration--------------------------------------------------------*/
 105:Core/Src/main.c **** 
 106:Core/Src/main.c ****   /* Reset of all peripherals, Initializes the Flash interface and the Systick. */
 107:Core/Src/main.c ****   HAL_Init();
 108:Core/Src/main.c **** 
 109:Core/Src/main.c ****   /* USER CODE BEGIN Init */
 110:Core/Src/main.c **** 
 111:Core/Src/main.c ****   /* USER CODE END Init */
 112:Core/Src/main.c **** 
 113:Core/Src/main.c ****   /* Configure the system clock */
 114:Core/Src/main.c ****   SystemClock_Config();
 115:Core/Src/main.c **** 
 116:Core/Src/main.c ****   /* USER CODE BEGIN SysInit */
 117:Core/Src/main.c **** 
 118:Core/Src/main.c ****   /* USER CODE END SysInit */
 119:Core/Src/main.c **** 
 120:Core/Src/main.c ****   /* Initialize all configured peripherals */
 121:Core/Src/main.c ****   MX_GPIO_Init();
 122:Core/Src/main.c ****   MX_DMA_Init();
 123:Core/Src/main.c ****   MX_SPI1_Init();
 124:Core/Src/main.c ****   MX_I2C1_Init();
 125:Core/Src/main.c ****   /* USER CODE BEGIN 2 */
 126:Core/Src/main.c **** 
 127:Core/Src/main.c **** 
 128:Core/Src/main.c **** 
 129:Core/Src/main.c ****   /* USER CODE END 2 */
 130:Core/Src/main.c **** 
 131:Core/Src/main.c ****   /* Create the mutex(es) */
 132:Core/Src/main.c ****   /* definition and creation of lora_mutex */
 133:Core/Src/main.c ****   //debug osMutexDef(lora_mutex);
 134:Core/Src/main.c ****   //debug lora_mutexHandle = osMutexCreate(osMutex(lora_mutex));
 135:Core/Src/main.c **** 
 136:Core/Src/main.c ****   /* USER CODE BEGIN RTOS_MUTEX */
 137:Core/Src/main.c ****   /* add mutexes, ... */
 138:Core/Src/main.c **** 
 139:Core/Src/main.c ****   xloraMutex = xSemaphoreCreateMutex();
 140:Core/Src/main.c **** 
 141:Core/Src/main.c ****   /* USER CODE END RTOS_MUTEX */
 142:Core/Src/main.c **** 
 143:Core/Src/main.c ****   /* USER CODE BEGIN RTOS_SEMAPHORES */
ARM GAS  C:\Users\jdcox\AppData\Local\Temp\ccPJHbOo.s 			page 4


 144:Core/Src/main.c ****   /* add semaphores, ... */
 145:Core/Src/main.c ****   /* USER CODE END RTOS_SEMAPHORES */
 146:Core/Src/main.c **** 
 147:Core/Src/main.c ****   /* Create the timer(s) */
 148:Core/Src/main.c ****   /* definition and creation of msTick */
 149:Core/Src/main.c ****   osTimerDef(msTick, msTickCallback);
 150:Core/Src/main.c ****   msTickHandle = osTimerCreate(osTimer(msTick), osTimerPeriodic, NULL);
 151:Core/Src/main.c **** 
 152:Core/Src/main.c ****   /* definition and creation of debounceTimer */
 153:Core/Src/main.c ****   osTimerDef(debounceTimer, debounceCallback);
 154:Core/Src/main.c ****   debounceTimerHandle = osTimerCreate(osTimer(debounceTimer), osTimerOnce, NULL);
 155:Core/Src/main.c **** 
 156:Core/Src/main.c ****   /* definition and creation of blinkTimer */
 157:Core/Src/main.c ****   osTimerDef(blinkTimer, blinkTimerCallback);
 158:Core/Src/main.c ****   blinkTimerHandle = osTimerCreate(osTimer(blinkTimer), osTimerOnce, NULL);
 159:Core/Src/main.c **** 
 160:Core/Src/main.c ****   /* USER CODE BEGIN RTOS_TIMERS */
 161:Core/Src/main.c ****   /* start timers, add new ones, ... */
 162:Core/Src/main.c ****  
 163:Core/Src/main.c ****   /* USER CODE END RTOS_TIMERS */
 164:Core/Src/main.c **** 
 165:Core/Src/main.c ****   /* USER CODE BEGIN RTOS_QUEUES */
 166:Core/Src/main.c ****   /* add queues, ... */
 167:Core/Src/main.c ****   /* USER CODE END RTOS_QUEUES */
 168:Core/Src/main.c **** 
 169:Core/Src/main.c ****   /* Create the thread(s) */
 170:Core/Src/main.c ****   /* definition and creation of defaultTask */
 171:Core/Src/main.c ****   osThreadDef(defaultTask, StartDefaultTask, osPriorityNormal, 0, 128);
 172:Core/Src/main.c ****   defaultTaskHandle = osThreadCreate(osThread(defaultTask), NULL);
 173:Core/Src/main.c **** 
 174:Core/Src/main.c ****   /* definition and creation of loraRXTask */
 175:Core/Src/main.c ****   
 176:Core/Src/main.c **** 
 177:Core/Src/main.c ****   /* definition and creation of displayTask */
 178:Core/Src/main.c ****   osThreadDef(displayTask, StartDisplayTask, osPriorityNormal, 0, 128);
 179:Core/Src/main.c ****   displayTaskHandle = osThreadCreate(osThread(displayTask), NULL);
 180:Core/Src/main.c **** 
 181:Core/Src/main.c ****   /* USER CODE BEGIN RTOS_THREADS */
 182:Core/Src/main.c ****   /* add threads, ... */
 183:Core/Src/main.c ****   /* USER CODE END RTOS_THREADS */
 184:Core/Src/main.c **** 
 185:Core/Src/main.c ****   /* Start scheduler */
 186:Core/Src/main.c ****   osKernelStart();
 187:Core/Src/main.c **** 
 188:Core/Src/main.c ****   /* We should never get here as control is now taken by the scheduler */
 189:Core/Src/main.c ****   /* Infinite loop */
 190:Core/Src/main.c ****   /* USER CODE BEGIN WHILE */
 191:Core/Src/main.c ****   while (1)
 192:Core/Src/main.c ****   {
 193:Core/Src/main.c ****     /* USER CODE END WHILE */
 194:Core/Src/main.c **** 
 195:Core/Src/main.c ****     /* USER CODE BEGIN 3 */
 196:Core/Src/main.c ****   }
 197:Core/Src/main.c ****   /* USER CODE END 3 */
 198:Core/Src/main.c **** }
 199:Core/Src/main.c **** 
 200:Core/Src/main.c **** /**
ARM GAS  C:\Users\jdcox\AppData\Local\Temp\ccPJHbOo.s 			page 5


 201:Core/Src/main.c ****   * @brief System Clock Configuration
 202:Core/Src/main.c ****   * @retval None
 203:Core/Src/main.c ****   */
 204:Core/Src/main.c **** void SystemClock_Config(void)
 205:Core/Src/main.c **** {
 206:Core/Src/main.c ****   RCC_OscInitTypeDef RCC_OscInitStruct = {0};
 207:Core/Src/main.c ****   RCC_ClkInitTypeDef RCC_ClkInitStruct = {0};
 208:Core/Src/main.c **** 
 209:Core/Src/main.c ****   /** Configure the main internal regulator output voltage
 210:Core/Src/main.c ****   */
 211:Core/Src/main.c ****   __HAL_RCC_PWR_CLK_ENABLE();
 212:Core/Src/main.c ****   __HAL_PWR_VOLTAGESCALING_CONFIG(PWR_REGULATOR_VOLTAGE_SCALE2);
 213:Core/Src/main.c **** 
 214:Core/Src/main.c ****   /** Initializes the RCC Oscillators according to the specified parameters
 215:Core/Src/main.c ****   * in the RCC_OscInitTypeDef structure.
 216:Core/Src/main.c ****   */
 217:Core/Src/main.c ****   RCC_OscInitStruct.OscillatorType = RCC_OSCILLATORTYPE_HSE;
 218:Core/Src/main.c ****   RCC_OscInitStruct.HSEState = RCC_HSE_ON;
 219:Core/Src/main.c ****   RCC_OscInitStruct.PLL.PLLState = RCC_PLL_ON;
 220:Core/Src/main.c ****   RCC_OscInitStruct.PLL.PLLSource = RCC_PLLSOURCE_HSE;
 221:Core/Src/main.c ****   RCC_OscInitStruct.PLL.PLLM = 25;
 222:Core/Src/main.c ****   RCC_OscInitStruct.PLL.PLLN = 336;
 223:Core/Src/main.c ****   RCC_OscInitStruct.PLL.PLLP = RCC_PLLP_DIV4;
 224:Core/Src/main.c ****   RCC_OscInitStruct.PLL.PLLQ = 7;
 225:Core/Src/main.c ****   if (HAL_RCC_OscConfig(&RCC_OscInitStruct) != HAL_OK)
 226:Core/Src/main.c ****   {
 227:Core/Src/main.c ****     Error_Handler();
 228:Core/Src/main.c ****   }
 229:Core/Src/main.c **** 
 230:Core/Src/main.c ****   /** Initializes the CPU, AHB and APB buses clocks
 231:Core/Src/main.c ****   */
 232:Core/Src/main.c ****   RCC_ClkInitStruct.ClockType = RCC_CLOCKTYPE_HCLK|RCC_CLOCKTYPE_SYSCLK
 233:Core/Src/main.c ****                               |RCC_CLOCKTYPE_PCLK1|RCC_CLOCKTYPE_PCLK2;
 234:Core/Src/main.c ****   RCC_ClkInitStruct.SYSCLKSource = RCC_SYSCLKSOURCE_PLLCLK;
 235:Core/Src/main.c ****   RCC_ClkInitStruct.AHBCLKDivider = RCC_SYSCLK_DIV1;
 236:Core/Src/main.c ****   RCC_ClkInitStruct.APB1CLKDivider = RCC_HCLK_DIV2;
 237:Core/Src/main.c ****   RCC_ClkInitStruct.APB2CLKDivider = RCC_HCLK_DIV1;
 238:Core/Src/main.c **** 
 239:Core/Src/main.c ****   if (HAL_RCC_ClockConfig(&RCC_ClkInitStruct, FLASH_LATENCY_2) != HAL_OK)
 240:Core/Src/main.c ****   {
 241:Core/Src/main.c ****     Error_Handler();
 242:Core/Src/main.c ****   }
 243:Core/Src/main.c **** }
 244:Core/Src/main.c **** 
 245:Core/Src/main.c **** /**
 246:Core/Src/main.c ****   * @brief I2C1 Initialization Function
 247:Core/Src/main.c ****   * @param None
 248:Core/Src/main.c ****   * @retval None
 249:Core/Src/main.c ****   */
 250:Core/Src/main.c **** static void MX_I2C1_Init(void)
 251:Core/Src/main.c **** {
 252:Core/Src/main.c **** 
 253:Core/Src/main.c ****   /* USER CODE BEGIN I2C1_Init 0 */
 254:Core/Src/main.c **** 
 255:Core/Src/main.c ****   /* USER CODE END I2C1_Init 0 */
 256:Core/Src/main.c **** 
 257:Core/Src/main.c ****   /* USER CODE BEGIN I2C1_Init 1 */
ARM GAS  C:\Users\jdcox\AppData\Local\Temp\ccPJHbOo.s 			page 6


 258:Core/Src/main.c **** 
 259:Core/Src/main.c ****   /* USER CODE END I2C1_Init 1 */
 260:Core/Src/main.c ****   hi2c1.Instance = I2C1;
 261:Core/Src/main.c ****   hi2c1.Init.ClockSpeed = 100000;
 262:Core/Src/main.c ****   hi2c1.Init.DutyCycle = I2C_DUTYCYCLE_2;
 263:Core/Src/main.c ****   hi2c1.Init.OwnAddress1 = 78;
 264:Core/Src/main.c ****   hi2c1.Init.AddressingMode = I2C_ADDRESSINGMODE_7BIT;
 265:Core/Src/main.c ****   hi2c1.Init.DualAddressMode = I2C_DUALADDRESS_DISABLE;
 266:Core/Src/main.c ****   hi2c1.Init.OwnAddress2 = 0;
 267:Core/Src/main.c ****   hi2c1.Init.GeneralCallMode = I2C_GENERALCALL_DISABLE;
 268:Core/Src/main.c ****   hi2c1.Init.NoStretchMode = I2C_NOSTRETCH_DISABLE;
 269:Core/Src/main.c ****   if (HAL_I2C_Init(&hi2c1) != HAL_OK)
 270:Core/Src/main.c ****   {
 271:Core/Src/main.c ****     Error_Handler();
 272:Core/Src/main.c ****   }
 273:Core/Src/main.c ****   /* USER CODE BEGIN I2C1_Init 2 */
 274:Core/Src/main.c **** 
 275:Core/Src/main.c ****   /* USER CODE END I2C1_Init 2 */
 276:Core/Src/main.c **** 
 277:Core/Src/main.c **** }
 278:Core/Src/main.c **** 
 279:Core/Src/main.c **** /**
 280:Core/Src/main.c ****   * @brief SPI1 Initialization Function
 281:Core/Src/main.c ****   * @param None
 282:Core/Src/main.c ****   * @retval None
 283:Core/Src/main.c ****   */
 284:Core/Src/main.c **** static void MX_SPI1_Init(void)
 285:Core/Src/main.c **** {
 286:Core/Src/main.c **** 
 287:Core/Src/main.c ****   /* USER CODE BEGIN SPI1_Init 0 */
 288:Core/Src/main.c **** 
 289:Core/Src/main.c ****   /* USER CODE END SPI1_Init 0 */
 290:Core/Src/main.c **** 
 291:Core/Src/main.c ****   /* USER CODE BEGIN SPI1_Init 1 */
 292:Core/Src/main.c **** 
 293:Core/Src/main.c ****   /* USER CODE END SPI1_Init 1 */
 294:Core/Src/main.c ****   /* SPI1 parameter configuration*/
 295:Core/Src/main.c ****   hspi1.Instance = SPI1;
 296:Core/Src/main.c ****   hspi1.Init.Mode = SPI_MODE_MASTER;
 297:Core/Src/main.c ****   hspi1.Init.Direction = SPI_DIRECTION_2LINES;
 298:Core/Src/main.c ****   hspi1.Init.DataSize = SPI_DATASIZE_8BIT;
 299:Core/Src/main.c ****   hspi1.Init.CLKPolarity = SPI_POLARITY_LOW;
 300:Core/Src/main.c ****   hspi1.Init.CLKPhase = SPI_PHASE_1EDGE;
 301:Core/Src/main.c ****   hspi1.Init.NSS = SPI_NSS_SOFT;
 302:Core/Src/main.c ****   hspi1.Init.BaudRatePrescaler = SPI_BAUDRATEPRESCALER_16;
 303:Core/Src/main.c ****   hspi1.Init.FirstBit = SPI_FIRSTBIT_MSB;
 304:Core/Src/main.c ****   hspi1.Init.TIMode = SPI_TIMODE_DISABLE;
 305:Core/Src/main.c ****   hspi1.Init.CRCCalculation = SPI_CRCCALCULATION_DISABLE;
 306:Core/Src/main.c ****   hspi1.Init.CRCPolynomial = 10;
 307:Core/Src/main.c ****   if (HAL_SPI_Init(&hspi1) != HAL_OK)
 308:Core/Src/main.c ****   {
 309:Core/Src/main.c ****     Error_Handler();
 310:Core/Src/main.c ****   }
 311:Core/Src/main.c ****   /* USER CODE BEGIN SPI1_Init 2 */
 312:Core/Src/main.c **** 
 313:Core/Src/main.c ****   /* USER CODE END SPI1_Init 2 */
 314:Core/Src/main.c **** 
ARM GAS  C:\Users\jdcox\AppData\Local\Temp\ccPJHbOo.s 			page 7


 315:Core/Src/main.c **** }
 316:Core/Src/main.c **** 
 317:Core/Src/main.c **** /**
 318:Core/Src/main.c ****   * Enable DMA controller clock
 319:Core/Src/main.c ****   */
 320:Core/Src/main.c **** static void MX_DMA_Init(void)
 321:Core/Src/main.c **** {
 322:Core/Src/main.c **** 
 323:Core/Src/main.c ****   /* DMA controller clock enable */
 324:Core/Src/main.c ****   __HAL_RCC_DMA1_CLK_ENABLE();
 325:Core/Src/main.c ****   __HAL_RCC_DMA2_CLK_ENABLE();
 326:Core/Src/main.c **** 
 327:Core/Src/main.c ****   /* DMA interrupt init */
 328:Core/Src/main.c ****   /* DMA1_Stream6_IRQn interrupt configuration */
 329:Core/Src/main.c ****   HAL_NVIC_SetPriority(DMA1_Stream6_IRQn, 5, 0);
 330:Core/Src/main.c ****   HAL_NVIC_EnableIRQ(DMA1_Stream6_IRQn);
 331:Core/Src/main.c ****   /* DMA2_Stream0_IRQn interrupt configuration */
 332:Core/Src/main.c ****   HAL_NVIC_SetPriority(DMA2_Stream0_IRQn, 5, 0);
 333:Core/Src/main.c ****   HAL_NVIC_EnableIRQ(DMA2_Stream0_IRQn);
 334:Core/Src/main.c ****   /* DMA2_Stream3_IRQn interrupt configuration */
 335:Core/Src/main.c ****   HAL_NVIC_SetPriority(DMA2_Stream3_IRQn, 5, 0);
 336:Core/Src/main.c ****   HAL_NVIC_EnableIRQ(DMA2_Stream3_IRQn);
 337:Core/Src/main.c **** 
 338:Core/Src/main.c **** }
 339:Core/Src/main.c **** 
 340:Core/Src/main.c **** /**
 341:Core/Src/main.c ****   * @brief GPIO Initialization Function
 342:Core/Src/main.c ****   * @param None
 343:Core/Src/main.c ****   * @retval None
 344:Core/Src/main.c ****   */
 345:Core/Src/main.c **** static void MX_GPIO_Init(void)
 346:Core/Src/main.c **** {
 347:Core/Src/main.c ****   GPIO_InitTypeDef GPIO_InitStruct = {0};
 348:Core/Src/main.c **** 
 349:Core/Src/main.c ****   /* GPIO Ports Clock Enable */
 350:Core/Src/main.c ****   __HAL_RCC_GPIOC_CLK_ENABLE();
 351:Core/Src/main.c ****   __HAL_RCC_GPIOH_CLK_ENABLE();
 352:Core/Src/main.c ****   __HAL_RCC_GPIOA_CLK_ENABLE();
 353:Core/Src/main.c ****   __HAL_RCC_GPIOB_CLK_ENABLE();
 354:Core/Src/main.c **** 
 355:Core/Src/main.c ****   /*Configure GPIO pin Output Level */
 356:Core/Src/main.c ****   HAL_GPIO_WritePin(GPIOB, LED1_Pin|LED2_Pin, GPIO_PIN_SET);
 357:Core/Src/main.c **** 
 358:Core/Src/main.c ****   /*Configure GPIO pin Output Level */
 359:Core/Src/main.c ****   HAL_GPIO_WritePin(GPIOA, LORA_RST_Pin|LORA_CS_Pin, GPIO_PIN_SET);
 360:Core/Src/main.c **** 
 361:Core/Src/main.c ****   /*Configure GPIO pin : PLAYER_SEL_Pin */
 362:Core/Src/main.c ****   GPIO_InitStruct.Pin = PLAYER_SEL_Pin;
 363:Core/Src/main.c ****   GPIO_InitStruct.Mode = GPIO_MODE_INPUT;
 364:Core/Src/main.c ****   GPIO_InitStruct.Pull = GPIO_PULLUP;
 365:Core/Src/main.c ****   HAL_GPIO_Init(PLAYER_SEL_GPIO_Port, &GPIO_InitStruct);
 366:Core/Src/main.c **** 
 367:Core/Src/main.c ****   /*Configure GPIO pin : BTN_IN_Pin */
 368:Core/Src/main.c ****   GPIO_InitStruct.Pin = BTN_IN_Pin;
 369:Core/Src/main.c ****   GPIO_InitStruct.Mode = GPIO_MODE_IT_FALLING;
 370:Core/Src/main.c ****   GPIO_InitStruct.Pull = GPIO_PULLUP;
 371:Core/Src/main.c ****   HAL_GPIO_Init(BTN_IN_GPIO_Port, &GPIO_InitStruct);
ARM GAS  C:\Users\jdcox\AppData\Local\Temp\ccPJHbOo.s 			page 8


 372:Core/Src/main.c **** 
 373:Core/Src/main.c ****   /*Configure GPIO pins : LED1_Pin LED2_Pin */
 374:Core/Src/main.c ****   GPIO_InitStruct.Pin = LED1_Pin|LED2_Pin;
 375:Core/Src/main.c ****   GPIO_InitStruct.Mode = GPIO_MODE_OUTPUT_PP;
 376:Core/Src/main.c ****   GPIO_InitStruct.Pull = GPIO_NOPULL;
 377:Core/Src/main.c ****   GPIO_InitStruct.Speed = GPIO_SPEED_FREQ_LOW;
 378:Core/Src/main.c ****   HAL_GPIO_Init(GPIOB, &GPIO_InitStruct);
 379:Core/Src/main.c **** 
 380:Core/Src/main.c ****   /*Configure GPIO pin : LORA_EXTI_Pin */
 381:Core/Src/main.c ****   GPIO_InitStruct.Pin = LORA_EXTI_Pin;
 382:Core/Src/main.c ****   GPIO_InitStruct.Mode = GPIO_MODE_IT_RISING;
 383:Core/Src/main.c ****   GPIO_InitStruct.Pull = GPIO_NOPULL;
 384:Core/Src/main.c ****   HAL_GPIO_Init(LORA_EXTI_GPIO_Port, &GPIO_InitStruct);
 385:Core/Src/main.c **** 
 386:Core/Src/main.c ****   /*Configure GPIO pins : LORA_RST_Pin LORA_CS_Pin */
 387:Core/Src/main.c ****   GPIO_InitStruct.Pin = LORA_RST_Pin|LORA_CS_Pin;
 388:Core/Src/main.c ****   GPIO_InitStruct.Mode = GPIO_MODE_OUTPUT_PP;
 389:Core/Src/main.c ****   GPIO_InitStruct.Pull = GPIO_NOPULL;
 390:Core/Src/main.c ****   GPIO_InitStruct.Speed = GPIO_SPEED_FREQ_LOW;
 391:Core/Src/main.c ****   HAL_GPIO_Init(GPIOA, &GPIO_InitStruct);
 392:Core/Src/main.c **** 
 393:Core/Src/main.c ****   /* EXTI interrupt init*/
 394:Core/Src/main.c ****   HAL_NVIC_SetPriority(EXTI0_IRQn, 5, 0);
 395:Core/Src/main.c ****   HAL_NVIC_EnableIRQ(EXTI0_IRQn);
 396:Core/Src/main.c **** 
 397:Core/Src/main.c **** }
 398:Core/Src/main.c **** 
 399:Core/Src/main.c **** /* USER CODE BEGIN 4 */
 400:Core/Src/main.c **** 
 401:Core/Src/main.c **** /* USER CODE END 4 */
 402:Core/Src/main.c **** 
 403:Core/Src/main.c **** /* USER CODE BEGIN Header_StartDefaultTask */
 404:Core/Src/main.c **** /**
 405:Core/Src/main.c ****   * @brief  Function implementing the defaultTask thread.
 406:Core/Src/main.c ****   * @param  argument: Not used
 407:Core/Src/main.c ****   * @retval None
 408:Core/Src/main.c ****   */
 409:Core/Src/main.c **** /* USER CODE END Header_StartDefaultTask */
 410:Core/Src/main.c **** void StartDefaultTask(void const * argument)
 411:Core/Src/main.c **** {
 412:Core/Src/main.c ****   /* USER CODE BEGIN 5 */
 413:Core/Src/main.c ****   //xloraMutex = xSemaphoreCreateMutex();
 414:Core/Src/main.c ****   //xSemaphoreTake(xloraMutex, portMAX_DELAY);  
 415:Core/Src/main.c ****   //xSemaphoreGive(xloraMutex);
 416:Core/Src/main.c ****   //debug osMutexRelease(lora_mutexHandle);
 417:Core/Src/main.c **** 
 418:Core/Src/main.c ****   osThreadDef(loraTask, StartLoraTask, osPriorityAboveNormal, 0, 128);
 419:Core/Src/main.c ****   loraTaskHandle = osThreadCreate(osThread(loraTask), NULL);
 420:Core/Src/main.c **** 
 421:Core/Src/main.c ****   if ( HAL_GPIO_ReadPin(PLAYER_SEL_GPIO_Port,PLAYER_SEL_Pin) == 0 )
 422:Core/Src/main.c ****   {
 423:Core/Src/main.c ****     THIS_PLAYER = BLUE;
 424:Core/Src/main.c ****     OTHER_PLAYER = RED;
 425:Core/Src/main.c ****   }
 426:Core/Src/main.c **** 
 427:Core/Src/main.c ****   else
 428:Core/Src/main.c ****   {
ARM GAS  C:\Users\jdcox\AppData\Local\Temp\ccPJHbOo.s 			page 9


 429:Core/Src/main.c ****     THIS_PLAYER = RED;
 430:Core/Src/main.c ****     OTHER_PLAYER = BLUE;
 431:Core/Src/main.c ****   }
 432:Core/Src/main.c **** 
 433:Core/Src/main.c ****   REDLED_OFF;
 434:Core/Src/main.c ****   BLUELED_OFF;
 435:Core/Src/main.c ****   ssd1306_Init();
 436:Core/Src/main.c ****   ssd1306_SetCursor(0,0);
 437:Core/Src/main.c ****   ssd1306_WriteString("KING",Font_16x24,1);
 438:Core/Src/main.c ****   ssd1306_UpdateScreen();
 439:Core/Src/main.c ****   osDelay(500);
 440:Core/Src/main.c ****   ssd1306_Fill(0);
 441:Core/Src/main.c ****   ssd1306_SetCursor(64,0);
 442:Core/Src/main.c ****   ssd1306_WriteString("OF",Font_16x24,1);
 443:Core/Src/main.c ****   ssd1306_UpdateScreen();
 444:Core/Src/main.c ****   osDelay(500);
 445:Core/Src/main.c ****   ssd1306_Fill(0);
 446:Core/Src/main.c ****   ssd1306_SetCursor(0,8);
 447:Core/Src/main.c ****   ssd1306_WriteString("THE",Font_16x24,1);
 448:Core/Src/main.c ****   ssd1306_UpdateScreen();
 449:Core/Src/main.c ****   osDelay(500);
 450:Core/Src/main.c ****   ssd1306_Fill(0);
 451:Core/Src/main.c ****   ssd1306_SetCursor(64,8);
 452:Core/Src/main.c ****   ssd1306_WriteString("HILL",Font_16x24,1);
 453:Core/Src/main.c ****   ssd1306_UpdateScreen();
 454:Core/Src/main.c **** 
 455:Core/Src/main.c ****   
 456:Core/Src/main.c **** 
 457:Core/Src/main.c ****   osDelay(1000);
 458:Core/Src/main.c **** 
 459:Core/Src/main.c ****   resetGame();
 460:Core/Src/main.c ****   osTimerStart(msTickHandle, pdMS_TO_TICKS(10));
 461:Core/Src/main.c ****   
 462:Core/Src/main.c **** 
 463:Core/Src/main.c ****   /* Infinite loop */
 464:Core/Src/main.c ****   for(;;)
 465:Core/Src/main.c ****   {
 466:Core/Src/main.c **** 
 467:Core/Src/main.c ****     // if packet received, process it
 468:Core/Src/main.c ****     if(newRX_flag) decodeKOTHPacket();
 469:Core/Src/main.c **** 
 470:Core/Src/main.c ****     // Evaluate current state
 471:Core/Src/main.c ****     doGameState();
 472:Core/Src/main.c **** 
 473:Core/Src/main.c ****   
 474:Core/Src/main.c ****     osDelay(20);
 475:Core/Src/main.c ****    
 476:Core/Src/main.c ****   }
 477:Core/Src/main.c ****   /* USER CODE END 5 */
 478:Core/Src/main.c **** }
 479:Core/Src/main.c **** 
 480:Core/Src/main.c **** /* USER CODE BEGIN Header_StartLoraRXTask */
 481:Core/Src/main.c **** /**
 482:Core/Src/main.c **** * @brief Function implementing the loraRXTask thread.
 483:Core/Src/main.c **** * @param argument: Not used
 484:Core/Src/main.c **** * @retval None
 485:Core/Src/main.c **** */
ARM GAS  C:\Users\jdcox\AppData\Local\Temp\ccPJHbOo.s 			page 10


 486:Core/Src/main.c **** /* USER CODE END Header_StartLoraRXTask */
 487:Core/Src/main.c **** void StartLoraTask(void const * argument)
 488:Core/Src/main.c **** {
 489:Core/Src/main.c ****   /* USER CODE BEGIN StartLoraTask */
 490:Core/Src/main.c **** 
 491:Core/Src/main.c ****     // Create LoRa instance
 492:Core/Src/main.c ****     myLoRa = newLoRa();
 493:Core/Src/main.c **** 
 494:Core/Src/main.c ****       // configure
 495:Core/Src/main.c ****       myLoRa.CS_port         = LORA_CS_GPIO_Port;
 496:Core/Src/main.c ****       myLoRa.CS_pin          = LORA_CS_Pin;
 497:Core/Src/main.c ****       myLoRa.reset_port      = LORA_RST_GPIO_Port;
 498:Core/Src/main.c ****       myLoRa.reset_pin       = LORA_RST_Pin;
 499:Core/Src/main.c ****       myLoRa.DIO0_port       = LORA_EXTI_GPIO_Port;
 500:Core/Src/main.c ****       myLoRa.DIO0_pin        = LORA_EXTI_Pin;
 501:Core/Src/main.c ****       myLoRa.hSPIx           = &hspi1;
 502:Core/Src/main.c **** 
 503:Core/Src/main.c ****       // Test it
 504:Core/Src/main.c ****       uint16_t LoRa_Status = LoRa_init(&myLoRa);
 505:Core/Src/main.c ****       sprintf(opcodeString,"Josh wins", 10);
 506:Core/Src/main.c ****       if(LoRa_Status == LORA_OK)
 507:Core/Src/main.c ****       {
 508:Core/Src/main.c ****         LoRa_transmit(&myLoRa, (uint8_t*)opcodeString, 12, 100);
 509:Core/Src/main.c ****       }
 510:Core/Src/main.c **** 
 511:Core/Src/main.c ****     LoRa_startReceiving(&myLoRa);
 512:Core/Src/main.c ****     rxCount = 0;
 513:Core/Src/main.c ****     txCount = 0;
 514:Core/Src/main.c **** 
 515:Core/Src/main.c ****   /* Infinite loop */
 516:Core/Src/main.c ****   for(;;)
 517:Core/Src/main.c ****   {
 518:Core/Src/main.c ****     // RX first
 519:Core/Src/main.c ****     // Get the data
 520:Core/Src/main.c ****     // decodeKOTHPacket();
 521:Core/Src/main.c **** 
 522:Core/Src/main.c ****     packet_size = LoRa_receive(&myLoRa, loraRXbuf, 10);
 523:Core/Src/main.c **** 
 524:Core/Src/main.c ****     if(packet_size > 0)
 525:Core/Src/main.c ****     {
 526:Core/Src/main.c ****         newRX_flag = 1;
 527:Core/Src/main.c ****         if(loraRXbuf[0] != receivedPacket[0])
 528:Core/Src/main.c ****         {
 529:Core/Src/main.c ****             memcpy(receivedPacket,loraRXbuf,10);
 530:Core/Src/main.c ****         }
 531:Core/Src/main.c **** 
 532:Core/Src/main.c ****     }
 533:Core/Src/main.c **** 
 534:Core/Src/main.c ****     //osDelay(5);
 535:Core/Src/main.c **** 
 536:Core/Src/main.c ****     // TX for every meaningful button press
 537:Core/Src/main.c ****     if(newTX_flag)
 538:Core/Src/main.c ****     {
 539:Core/Src/main.c ****       newTX_flag = 0;
 540:Core/Src/main.c ****       // send a message
 541:Core/Src/main.c ****       LoRa_transmit(&myLoRa, (uint8_t*)opcodeString, 12, 100);
 542:Core/Src/main.c ****     }
ARM GAS  C:\Users\jdcox\AppData\Local\Temp\ccPJHbOo.s 			page 11


 543:Core/Src/main.c ****     
 544:Core/Src/main.c ****     osDelay(200);
 545:Core/Src/main.c **** 
 546:Core/Src/main.c ****   }
 547:Core/Src/main.c ****   /* USER CODE END StartLoraTask */
 548:Core/Src/main.c **** }
 549:Core/Src/main.c **** 
 550:Core/Src/main.c **** /* USER CODE BEGIN Header_StartDisplayTask */
 551:Core/Src/main.c **** /**
 552:Core/Src/main.c **** * @brief Function implementing the displayTask thread.
 553:Core/Src/main.c **** * @param argument: Not used
 554:Core/Src/main.c **** * @retval None
 555:Core/Src/main.c **** */
 556:Core/Src/main.c **** /* USER CODE END Header_StartDisplayTask */
 557:Core/Src/main.c **** void StartDisplayTask(void const * argument)
 558:Core/Src/main.c **** {
 559:Core/Src/main.c ****   /* USER CODE BEGIN StartDisplayTask */
 560:Core/Src/main.c ****   /* Infinite loop */
 561:Core/Src/main.c ****   for(;;)
 562:Core/Src/main.c ****   {
 563:Core/Src/main.c **** 
 564:Core/Src/main.c ****     osDelay(100);
 565:Core/Src/main.c ****   }
 566:Core/Src/main.c ****   /* USER CODE END StartDisplayTask */
 567:Core/Src/main.c **** }
 568:Core/Src/main.c **** 
 569:Core/Src/main.c **** /* msTickCallback function */
 570:Core/Src/main.c **** void msTickCallback(void const * argument)
 571:Core/Src/main.c **** {
 572:Core/Src/main.c ****   /* USER CODE BEGIN msTickCallback */
 573:Core/Src/main.c ****     if(red_flag == 1)
 574:Core/Src/main.c ****     {
 575:Core/Src/main.c ****       red_counter += 10;
 576:Core/Src/main.c ****       if(red_counter >= 10000)
 577:Core/Src/main.c ****       {
 578:Core/Src/main.c ****         red_flag = 0;
 579:Core/Src/main.c ****         blue_flag = 0;
 580:Core/Src/main.c ****         gameState = REDWINS;
 581:Core/Src/main.c ****       }
 582:Core/Src/main.c ****     }
 583:Core/Src/main.c **** 
 584:Core/Src/main.c ****     if(blue_flag == 1)
 585:Core/Src/main.c ****     {
 586:Core/Src/main.c ****       blue_counter += 10;
 587:Core/Src/main.c ****       if(blue_counter >= 10000)
 588:Core/Src/main.c ****       { 
 589:Core/Src/main.c ****         red_flag = 0;
 590:Core/Src/main.c ****         blue_flag = 0;
 591:Core/Src/main.c ****         gameState = BLUEWINS;
 592:Core/Src/main.c ****       }
 593:Core/Src/main.c ****     }
 594:Core/Src/main.c **** 
 595:Core/Src/main.c ****     if(redLED_flag)
 596:Core/Src/main.c ****     {
 597:Core/Src/main.c ****         if(++redLED_timer >= 25)
 598:Core/Src/main.c ****         {
 599:Core/Src/main.c ****           redLED_flag = 0;
ARM GAS  C:\Users\jdcox\AppData\Local\Temp\ccPJHbOo.s 			page 12


 600:Core/Src/main.c ****           REDLED_OFF;
 601:Core/Src/main.c ****         }
 602:Core/Src/main.c ****     }
 603:Core/Src/main.c ****     if(blueLED_flag)
 604:Core/Src/main.c ****     {
 605:Core/Src/main.c ****       if(++blueLED_timer >= 25)
 606:Core/Src/main.c ****       {
 607:Core/Src/main.c ****         blueLED_flag = 0;
 608:Core/Src/main.c ****         BLUELED_OFF;
 609:Core/Src/main.c ****       }
 610:Core/Src/main.c ****     }
 611:Core/Src/main.c ****   /* USER CODE END msTickCallback */
 612:Core/Src/main.c **** }
 613:Core/Src/main.c **** 
 614:Core/Src/main.c **** /* debounceCallback function */
 615:Core/Src/main.c **** void debounceCallback(void const * argument)
 616:Core/Src/main.c **** {
  30              		.loc 1 616 1 view -0
  31              		.cfi_startproc
  32              		@ args = 0, pretend = 0, frame = 0
  33              		@ frame_needed = 0, uses_anonymous_args = 0
  34              		@ link register save eliminated.
 617:Core/Src/main.c ****   /* USER CODE BEGIN debounceCallback */
 618:Core/Src/main.c ****   debouncing_Flag = 0;
  35              		.loc 1 618 3 view .LVU1
  36              		.loc 1 618 19 is_stmt 0 view .LVU2
  37 0000 014B     		ldr	r3, .L2
  38 0002 0022     		movs	r2, #0
  39 0004 1A70     		strb	r2, [r3]
 619:Core/Src/main.c ****   /* USER CODE END debounceCallback */
 620:Core/Src/main.c **** }
  40              		.loc 1 620 1 view .LVU3
  41 0006 7047     		bx	lr
  42              	.L3:
  43              		.align	2
  44              	.L2:
  45 0008 00000000 		.word	debouncing_Flag
  46              		.cfi_endproc
  47              	.LFE148:
  49              		.section	.text.blinkTimerCallback,"ax",%progbits
  50              		.align	1
  51              		.global	blinkTimerCallback
  52              		.syntax unified
  53              		.thumb
  54              		.thumb_func
  56              	blinkTimerCallback:
  57              	.LVL1:
  58              	.LFB149:
 621:Core/Src/main.c **** 
 622:Core/Src/main.c **** /* blinkTimerCallback function */
 623:Core/Src/main.c **** void blinkTimerCallback(void const * argument)
 624:Core/Src/main.c **** {
  59              		.loc 1 624 1 is_stmt 1 view -0
  60              		.cfi_startproc
  61              		@ args = 0, pretend = 0, frame = 0
  62              		@ frame_needed = 0, uses_anonymous_args = 0
  63              		@ link register save eliminated.
ARM GAS  C:\Users\jdcox\AppData\Local\Temp\ccPJHbOo.s 			page 13


 625:Core/Src/main.c ****   /* USER CODE BEGIN blinkTimerCallback */
 626:Core/Src/main.c **** 
 627:Core/Src/main.c ****   /* USER CODE END blinkTimerCallback */
 628:Core/Src/main.c **** }
  64              		.loc 1 628 1 view .LVU5
  65 0000 7047     		bx	lr
  66              		.cfi_endproc
  67              	.LFE149:
  69              		.section	.text.msTickCallback,"ax",%progbits
  70              		.align	1
  71              		.global	msTickCallback
  72              		.syntax unified
  73              		.thumb
  74              		.thumb_func
  76              	msTickCallback:
  77              	.LVL2:
  78              	.LFB147:
 571:Core/Src/main.c ****   /* USER CODE BEGIN msTickCallback */
  79              		.loc 1 571 1 view -0
  80              		.cfi_startproc
  81              		@ args = 0, pretend = 0, frame = 0
  82              		@ frame_needed = 0, uses_anonymous_args = 0
 571:Core/Src/main.c ****   /* USER CODE BEGIN msTickCallback */
  83              		.loc 1 571 1 is_stmt 0 view .LVU7
  84 0000 08B5     		push	{r3, lr}
  85              	.LCFI0:
  86              		.cfi_def_cfa_offset 8
  87              		.cfi_offset 3, -8
  88              		.cfi_offset 14, -4
 573:Core/Src/main.c ****     {
  89              		.loc 1 573 5 is_stmt 1 view .LVU8
 573:Core/Src/main.c ****     {
  90              		.loc 1 573 17 is_stmt 0 view .LVU9
  91 0002 284B     		ldr	r3, .L15
  92 0004 1B78     		ldrb	r3, [r3]	@ zero_extendqisi2
 573:Core/Src/main.c ****     {
  93              		.loc 1 573 7 view .LVU10
  94 0006 012B     		cmp	r3, #1
  95 0008 18D0     		beq	.L11
  96              	.L6:
 584:Core/Src/main.c ****     {
  97              		.loc 1 584 5 is_stmt 1 view .LVU11
 584:Core/Src/main.c ****     {
  98              		.loc 1 584 18 is_stmt 0 view .LVU12
  99 000a 274B     		ldr	r3, .L15+4
 100 000c 1B78     		ldrb	r3, [r3]	@ zero_extendqisi2
 584:Core/Src/main.c ****     {
 101              		.loc 1 584 7 view .LVU13
 102 000e 012B     		cmp	r3, #1
 103 0010 25D0     		beq	.L12
 104              	.L7:
 595:Core/Src/main.c ****     {
 105              		.loc 1 595 5 is_stmt 1 view .LVU14
 595:Core/Src/main.c ****     {
 106              		.loc 1 595 8 is_stmt 0 view .LVU15
 107 0012 264B     		ldr	r3, .L15+8
 108 0014 1B78     		ldrb	r3, [r3]	@ zero_extendqisi2
ARM GAS  C:\Users\jdcox\AppData\Local\Temp\ccPJHbOo.s 			page 14


 595:Core/Src/main.c ****     {
 109              		.loc 1 595 7 view .LVU16
 110 0016 33B1     		cbz	r3, .L8
 597:Core/Src/main.c ****         {
 111              		.loc 1 597 9 is_stmt 1 view .LVU17
 597:Core/Src/main.c ****         {
 112              		.loc 1 597 12 is_stmt 0 view .LVU18
 113 0018 254A     		ldr	r2, .L15+12
 114 001a 1378     		ldrb	r3, [r2]	@ zero_extendqisi2
 115 001c 0133     		adds	r3, r3, #1
 116 001e DBB2     		uxtb	r3, r3
 597:Core/Src/main.c ****         {
 117              		.loc 1 597 11 view .LVU19
 118 0020 1370     		strb	r3, [r2]
 119 0022 182B     		cmp	r3, #24
 120 0024 2CD8     		bhi	.L13
 121              	.LVL3:
 122              	.L8:
 603:Core/Src/main.c ****     {
 123              		.loc 1 603 5 is_stmt 1 view .LVU20
 603:Core/Src/main.c ****     {
 124              		.loc 1 603 8 is_stmt 0 view .LVU21
 125 0026 234B     		ldr	r3, .L15+16
 126 0028 1B78     		ldrb	r3, [r3]	@ zero_extendqisi2
 603:Core/Src/main.c ****     {
 127              		.loc 1 603 7 view .LVU22
 128 002a 33B1     		cbz	r3, .L5
 605:Core/Src/main.c ****       {
 129              		.loc 1 605 7 is_stmt 1 view .LVU23
 605:Core/Src/main.c ****       {
 130              		.loc 1 605 10 is_stmt 0 view .LVU24
 131 002c 224A     		ldr	r2, .L15+20
 132 002e 1378     		ldrb	r3, [r2]	@ zero_extendqisi2
 133 0030 0133     		adds	r3, r3, #1
 134 0032 DBB2     		uxtb	r3, r3
 605:Core/Src/main.c ****       {
 135              		.loc 1 605 9 view .LVU25
 136 0034 1370     		strb	r3, [r2]
 137 0036 182B     		cmp	r3, #24
 138 0038 2BD8     		bhi	.L14
 139              	.L5:
 612:Core/Src/main.c **** 
 140              		.loc 1 612 1 view .LVU26
 141 003a 08BD     		pop	{r3, pc}
 142              	.LVL4:
 143              	.L11:
 575:Core/Src/main.c ****       if(red_counter >= 10000)
 144              		.loc 1 575 7 is_stmt 1 view .LVU27
 575:Core/Src/main.c ****       if(red_counter >= 10000)
 145              		.loc 1 575 19 is_stmt 0 view .LVU28
 146 003c 1F4A     		ldr	r2, .L15+24
 147 003e 1368     		ldr	r3, [r2]
 148 0040 0A33     		adds	r3, r3, #10
 149 0042 1360     		str	r3, [r2]
 576:Core/Src/main.c ****       {
 150              		.loc 1 576 7 is_stmt 1 view .LVU29
 576:Core/Src/main.c ****       {
ARM GAS  C:\Users\jdcox\AppData\Local\Temp\ccPJHbOo.s 			page 15


 151              		.loc 1 576 9 is_stmt 0 view .LVU30
 152 0044 42F20F72 		movw	r2, #9999
 153 0048 9342     		cmp	r3, r2
 154 004a DED9     		bls	.L6
 578:Core/Src/main.c ****         blue_flag = 0;
 155              		.loc 1 578 9 is_stmt 1 view .LVU31
 578:Core/Src/main.c ****         blue_flag = 0;
 156              		.loc 1 578 18 is_stmt 0 view .LVU32
 157 004c 0023     		movs	r3, #0
 158 004e 154A     		ldr	r2, .L15
 159 0050 1370     		strb	r3, [r2]
 579:Core/Src/main.c ****         gameState = REDWINS;
 160              		.loc 1 579 9 is_stmt 1 view .LVU33
 579:Core/Src/main.c ****         gameState = REDWINS;
 161              		.loc 1 579 19 is_stmt 0 view .LVU34
 162 0052 154A     		ldr	r2, .L15+4
 163 0054 1370     		strb	r3, [r2]
 580:Core/Src/main.c ****       }
 164              		.loc 1 580 9 is_stmt 1 view .LVU35
 580:Core/Src/main.c ****       }
 165              		.loc 1 580 19 is_stmt 0 view .LVU36
 166 0056 1A4B     		ldr	r3, .L15+28
 167 0058 0722     		movs	r2, #7
 168 005a 1A70     		strb	r2, [r3]
 169 005c D5E7     		b	.L6
 170              	.L12:
 586:Core/Src/main.c ****       if(blue_counter >= 10000)
 171              		.loc 1 586 7 is_stmt 1 view .LVU37
 586:Core/Src/main.c ****       if(blue_counter >= 10000)
 172              		.loc 1 586 20 is_stmt 0 view .LVU38
 173 005e 194A     		ldr	r2, .L15+32
 174 0060 1368     		ldr	r3, [r2]
 175 0062 0A33     		adds	r3, r3, #10
 176 0064 1360     		str	r3, [r2]
 587:Core/Src/main.c ****       { 
 177              		.loc 1 587 7 is_stmt 1 view .LVU39
 587:Core/Src/main.c ****       { 
 178              		.loc 1 587 9 is_stmt 0 view .LVU40
 179 0066 42F20F72 		movw	r2, #9999
 180 006a 9342     		cmp	r3, r2
 181 006c D1D9     		bls	.L7
 589:Core/Src/main.c ****         blue_flag = 0;
 182              		.loc 1 589 9 is_stmt 1 view .LVU41
 589:Core/Src/main.c ****         blue_flag = 0;
 183              		.loc 1 589 18 is_stmt 0 view .LVU42
 184 006e 0023     		movs	r3, #0
 185 0070 0C4A     		ldr	r2, .L15
 186 0072 1370     		strb	r3, [r2]
 590:Core/Src/main.c ****         gameState = BLUEWINS;
 187              		.loc 1 590 9 is_stmt 1 view .LVU43
 590:Core/Src/main.c ****         gameState = BLUEWINS;
 188              		.loc 1 590 19 is_stmt 0 view .LVU44
 189 0074 0C4A     		ldr	r2, .L15+4
 190 0076 1370     		strb	r3, [r2]
 591:Core/Src/main.c ****       }
 191              		.loc 1 591 9 is_stmt 1 view .LVU45
 591:Core/Src/main.c ****       }
ARM GAS  C:\Users\jdcox\AppData\Local\Temp\ccPJHbOo.s 			page 16


 192              		.loc 1 591 19 is_stmt 0 view .LVU46
 193 0078 114B     		ldr	r3, .L15+28
 194 007a 0622     		movs	r2, #6
 195 007c 1A70     		strb	r2, [r3]
 196 007e C8E7     		b	.L7
 197              	.L13:
 599:Core/Src/main.c ****           REDLED_OFF;
 198              		.loc 1 599 11 is_stmt 1 view .LVU47
 599:Core/Src/main.c ****           REDLED_OFF;
 199              		.loc 1 599 23 is_stmt 0 view .LVU48
 200 0080 0A4B     		ldr	r3, .L15+8
 201 0082 0022     		movs	r2, #0
 202 0084 1A70     		strb	r2, [r3]
 600:Core/Src/main.c ****         }
 203              		.loc 1 600 11 is_stmt 1 view .LVU49
 204 0086 0122     		movs	r2, #1
 205 0088 0421     		movs	r1, #4
 206 008a 0F48     		ldr	r0, .L15+36
 207              	.LVL5:
 600:Core/Src/main.c ****         }
 208              		.loc 1 600 11 is_stmt 0 view .LVU50
 209 008c FFF7FEFF 		bl	HAL_GPIO_WritePin
 210              	.LVL6:
 211 0090 C9E7     		b	.L8
 212              	.L14:
 607:Core/Src/main.c ****         BLUELED_OFF;
 213              		.loc 1 607 9 is_stmt 1 view .LVU51
 607:Core/Src/main.c ****         BLUELED_OFF;
 214              		.loc 1 607 22 is_stmt 0 view .LVU52
 215 0092 084B     		ldr	r3, .L15+16
 216 0094 0022     		movs	r2, #0
 217 0096 1A70     		strb	r2, [r3]
 608:Core/Src/main.c ****       }
 218              		.loc 1 608 9 is_stmt 1 view .LVU53
 219 0098 0122     		movs	r2, #1
 220 009a 0221     		movs	r1, #2
 221 009c 0A48     		ldr	r0, .L15+36
 222 009e FFF7FEFF 		bl	HAL_GPIO_WritePin
 223              	.LVL7:
 612:Core/Src/main.c **** 
 224              		.loc 1 612 1 is_stmt 0 view .LVU54
 225 00a2 CAE7     		b	.L5
 226              	.L16:
 227              		.align	2
 228              	.L15:
 229 00a4 00000000 		.word	red_flag
 230 00a8 00000000 		.word	blue_flag
 231 00ac 00000000 		.word	redLED_flag
 232 00b0 00000000 		.word	redLED_timer
 233 00b4 00000000 		.word	blueLED_flag
 234 00b8 00000000 		.word	blueLED_timer
 235 00bc 00000000 		.word	red_counter
 236 00c0 00000000 		.word	gameState
 237 00c4 00000000 		.word	blue_counter
 238 00c8 00040240 		.word	1073873920
 239              		.cfi_endproc
 240              	.LFE147:
ARM GAS  C:\Users\jdcox\AppData\Local\Temp\ccPJHbOo.s 			page 17


 242              		.section	.text.MX_GPIO_Init,"ax",%progbits
 243              		.align	1
 244              		.syntax unified
 245              		.thumb
 246              		.thumb_func
 248              	MX_GPIO_Init:
 249              	.LFB143:
 346:Core/Src/main.c ****   GPIO_InitTypeDef GPIO_InitStruct = {0};
 250              		.loc 1 346 1 is_stmt 1 view -0
 251              		.cfi_startproc
 252              		@ args = 0, pretend = 0, frame = 40
 253              		@ frame_needed = 0, uses_anonymous_args = 0
 254 0000 2DE9F041 		push	{r4, r5, r6, r7, r8, lr}
 255              	.LCFI1:
 256              		.cfi_def_cfa_offset 24
 257              		.cfi_offset 4, -24
 258              		.cfi_offset 5, -20
 259              		.cfi_offset 6, -16
 260              		.cfi_offset 7, -12
 261              		.cfi_offset 8, -8
 262              		.cfi_offset 14, -4
 263 0004 8AB0     		sub	sp, sp, #40
 264              	.LCFI2:
 265              		.cfi_def_cfa_offset 64
 347:Core/Src/main.c **** 
 266              		.loc 1 347 3 view .LVU56
 347:Core/Src/main.c **** 
 267              		.loc 1 347 20 is_stmt 0 view .LVU57
 268 0006 0024     		movs	r4, #0
 269 0008 0594     		str	r4, [sp, #20]
 270 000a 0694     		str	r4, [sp, #24]
 271 000c 0794     		str	r4, [sp, #28]
 272 000e 0894     		str	r4, [sp, #32]
 273 0010 0994     		str	r4, [sp, #36]
 350:Core/Src/main.c ****   __HAL_RCC_GPIOH_CLK_ENABLE();
 274              		.loc 1 350 3 is_stmt 1 view .LVU58
 275              	.LBB4:
 350:Core/Src/main.c ****   __HAL_RCC_GPIOH_CLK_ENABLE();
 276              		.loc 1 350 3 view .LVU59
 277 0012 0194     		str	r4, [sp, #4]
 350:Core/Src/main.c ****   __HAL_RCC_GPIOH_CLK_ENABLE();
 278              		.loc 1 350 3 view .LVU60
 279 0014 384B     		ldr	r3, .L19
 280 0016 1A6B     		ldr	r2, [r3, #48]
 281 0018 42F00402 		orr	r2, r2, #4
 282 001c 1A63     		str	r2, [r3, #48]
 350:Core/Src/main.c ****   __HAL_RCC_GPIOH_CLK_ENABLE();
 283              		.loc 1 350 3 view .LVU61
 284 001e 1A6B     		ldr	r2, [r3, #48]
 285 0020 02F00402 		and	r2, r2, #4
 286 0024 0192     		str	r2, [sp, #4]
 350:Core/Src/main.c ****   __HAL_RCC_GPIOH_CLK_ENABLE();
 287              		.loc 1 350 3 view .LVU62
 288 0026 019A     		ldr	r2, [sp, #4]
 289              	.LBE4:
 350:Core/Src/main.c ****   __HAL_RCC_GPIOH_CLK_ENABLE();
 290              		.loc 1 350 3 view .LVU63
ARM GAS  C:\Users\jdcox\AppData\Local\Temp\ccPJHbOo.s 			page 18


 351:Core/Src/main.c ****   __HAL_RCC_GPIOA_CLK_ENABLE();
 291              		.loc 1 351 3 view .LVU64
 292              	.LBB5:
 351:Core/Src/main.c ****   __HAL_RCC_GPIOA_CLK_ENABLE();
 293              		.loc 1 351 3 view .LVU65
 294 0028 0294     		str	r4, [sp, #8]
 351:Core/Src/main.c ****   __HAL_RCC_GPIOA_CLK_ENABLE();
 295              		.loc 1 351 3 view .LVU66
 296 002a 1A6B     		ldr	r2, [r3, #48]
 297 002c 42F08002 		orr	r2, r2, #128
 298 0030 1A63     		str	r2, [r3, #48]
 351:Core/Src/main.c ****   __HAL_RCC_GPIOA_CLK_ENABLE();
 299              		.loc 1 351 3 view .LVU67
 300 0032 1A6B     		ldr	r2, [r3, #48]
 301 0034 02F08002 		and	r2, r2, #128
 302 0038 0292     		str	r2, [sp, #8]
 351:Core/Src/main.c ****   __HAL_RCC_GPIOA_CLK_ENABLE();
 303              		.loc 1 351 3 view .LVU68
 304 003a 029A     		ldr	r2, [sp, #8]
 305              	.LBE5:
 351:Core/Src/main.c ****   __HAL_RCC_GPIOA_CLK_ENABLE();
 306              		.loc 1 351 3 view .LVU69
 352:Core/Src/main.c ****   __HAL_RCC_GPIOB_CLK_ENABLE();
 307              		.loc 1 352 3 view .LVU70
 308              	.LBB6:
 352:Core/Src/main.c ****   __HAL_RCC_GPIOB_CLK_ENABLE();
 309              		.loc 1 352 3 view .LVU71
 310 003c 0394     		str	r4, [sp, #12]
 352:Core/Src/main.c ****   __HAL_RCC_GPIOB_CLK_ENABLE();
 311              		.loc 1 352 3 view .LVU72
 312 003e 1A6B     		ldr	r2, [r3, #48]
 313 0040 42F00102 		orr	r2, r2, #1
 314 0044 1A63     		str	r2, [r3, #48]
 352:Core/Src/main.c ****   __HAL_RCC_GPIOB_CLK_ENABLE();
 315              		.loc 1 352 3 view .LVU73
 316 0046 1A6B     		ldr	r2, [r3, #48]
 317 0048 02F00102 		and	r2, r2, #1
 318 004c 0392     		str	r2, [sp, #12]
 352:Core/Src/main.c ****   __HAL_RCC_GPIOB_CLK_ENABLE();
 319              		.loc 1 352 3 view .LVU74
 320 004e 039A     		ldr	r2, [sp, #12]
 321              	.LBE6:
 352:Core/Src/main.c ****   __HAL_RCC_GPIOB_CLK_ENABLE();
 322              		.loc 1 352 3 view .LVU75
 353:Core/Src/main.c **** 
 323              		.loc 1 353 3 view .LVU76
 324              	.LBB7:
 353:Core/Src/main.c **** 
 325              		.loc 1 353 3 view .LVU77
 326 0050 0494     		str	r4, [sp, #16]
 353:Core/Src/main.c **** 
 327              		.loc 1 353 3 view .LVU78
 328 0052 1A6B     		ldr	r2, [r3, #48]
 329 0054 42F00202 		orr	r2, r2, #2
 330 0058 1A63     		str	r2, [r3, #48]
 353:Core/Src/main.c **** 
 331              		.loc 1 353 3 view .LVU79
ARM GAS  C:\Users\jdcox\AppData\Local\Temp\ccPJHbOo.s 			page 19


 332 005a 1B6B     		ldr	r3, [r3, #48]
 333 005c 03F00203 		and	r3, r3, #2
 334 0060 0493     		str	r3, [sp, #16]
 353:Core/Src/main.c **** 
 335              		.loc 1 353 3 view .LVU80
 336 0062 049B     		ldr	r3, [sp, #16]
 337              	.LBE7:
 353:Core/Src/main.c **** 
 338              		.loc 1 353 3 view .LVU81
 356:Core/Src/main.c **** 
 339              		.loc 1 356 3 view .LVU82
 340 0064 DFF89C80 		ldr	r8, .L19+12
 341 0068 0122     		movs	r2, #1
 342 006a 0621     		movs	r1, #6
 343 006c 4046     		mov	r0, r8
 344 006e FFF7FEFF 		bl	HAL_GPIO_WritePin
 345              	.LVL8:
 359:Core/Src/main.c **** 
 346              		.loc 1 359 3 view .LVU83
 347 0072 224F     		ldr	r7, .L19+4
 348 0074 0122     		movs	r2, #1
 349 0076 4FF4C061 		mov	r1, #1536
 350 007a 3846     		mov	r0, r7
 351 007c FFF7FEFF 		bl	HAL_GPIO_WritePin
 352              	.LVL9:
 362:Core/Src/main.c ****   GPIO_InitStruct.Mode = GPIO_MODE_INPUT;
 353              		.loc 1 362 3 view .LVU84
 362:Core/Src/main.c ****   GPIO_InitStruct.Mode = GPIO_MODE_INPUT;
 354              		.loc 1 362 23 is_stmt 0 view .LVU85
 355 0080 4FF40053 		mov	r3, #8192
 356 0084 0593     		str	r3, [sp, #20]
 363:Core/Src/main.c ****   GPIO_InitStruct.Pull = GPIO_PULLUP;
 357              		.loc 1 363 3 is_stmt 1 view .LVU86
 363:Core/Src/main.c ****   GPIO_InitStruct.Pull = GPIO_PULLUP;
 358              		.loc 1 363 24 is_stmt 0 view .LVU87
 359 0086 0694     		str	r4, [sp, #24]
 364:Core/Src/main.c ****   HAL_GPIO_Init(PLAYER_SEL_GPIO_Port, &GPIO_InitStruct);
 360              		.loc 1 364 3 is_stmt 1 view .LVU88
 364:Core/Src/main.c ****   HAL_GPIO_Init(PLAYER_SEL_GPIO_Port, &GPIO_InitStruct);
 361              		.loc 1 364 24 is_stmt 0 view .LVU89
 362 0088 0125     		movs	r5, #1
 363 008a 0795     		str	r5, [sp, #28]
 365:Core/Src/main.c **** 
 364              		.loc 1 365 3 is_stmt 1 view .LVU90
 365 008c 05A9     		add	r1, sp, #20
 366 008e 1C48     		ldr	r0, .L19+8
 367 0090 FFF7FEFF 		bl	HAL_GPIO_Init
 368              	.LVL10:
 368:Core/Src/main.c ****   GPIO_InitStruct.Mode = GPIO_MODE_IT_FALLING;
 369              		.loc 1 368 3 view .LVU91
 368:Core/Src/main.c ****   GPIO_InitStruct.Mode = GPIO_MODE_IT_FALLING;
 370              		.loc 1 368 23 is_stmt 0 view .LVU92
 371 0094 0595     		str	r5, [sp, #20]
 369:Core/Src/main.c ****   GPIO_InitStruct.Pull = GPIO_PULLUP;
 372              		.loc 1 369 3 is_stmt 1 view .LVU93
 369:Core/Src/main.c ****   GPIO_InitStruct.Pull = GPIO_PULLUP;
 373              		.loc 1 369 24 is_stmt 0 view .LVU94
ARM GAS  C:\Users\jdcox\AppData\Local\Temp\ccPJHbOo.s 			page 20


 374 0096 4FF40413 		mov	r3, #2162688
 375 009a 0693     		str	r3, [sp, #24]
 370:Core/Src/main.c ****   HAL_GPIO_Init(BTN_IN_GPIO_Port, &GPIO_InitStruct);
 376              		.loc 1 370 3 is_stmt 1 view .LVU95
 370:Core/Src/main.c ****   HAL_GPIO_Init(BTN_IN_GPIO_Port, &GPIO_InitStruct);
 377              		.loc 1 370 24 is_stmt 0 view .LVU96
 378 009c 0795     		str	r5, [sp, #28]
 371:Core/Src/main.c **** 
 379              		.loc 1 371 3 is_stmt 1 view .LVU97
 380 009e 05A9     		add	r1, sp, #20
 381 00a0 4046     		mov	r0, r8
 382 00a2 FFF7FEFF 		bl	HAL_GPIO_Init
 383              	.LVL11:
 374:Core/Src/main.c ****   GPIO_InitStruct.Mode = GPIO_MODE_OUTPUT_PP;
 384              		.loc 1 374 3 view .LVU98
 374:Core/Src/main.c ****   GPIO_InitStruct.Mode = GPIO_MODE_OUTPUT_PP;
 385              		.loc 1 374 23 is_stmt 0 view .LVU99
 386 00a6 0626     		movs	r6, #6
 387 00a8 0596     		str	r6, [sp, #20]
 375:Core/Src/main.c ****   GPIO_InitStruct.Pull = GPIO_NOPULL;
 388              		.loc 1 375 3 is_stmt 1 view .LVU100
 375:Core/Src/main.c ****   GPIO_InitStruct.Pull = GPIO_NOPULL;
 389              		.loc 1 375 24 is_stmt 0 view .LVU101
 390 00aa 0695     		str	r5, [sp, #24]
 376:Core/Src/main.c ****   GPIO_InitStruct.Speed = GPIO_SPEED_FREQ_LOW;
 391              		.loc 1 376 3 is_stmt 1 view .LVU102
 376:Core/Src/main.c ****   GPIO_InitStruct.Speed = GPIO_SPEED_FREQ_LOW;
 392              		.loc 1 376 24 is_stmt 0 view .LVU103
 393 00ac 0794     		str	r4, [sp, #28]
 377:Core/Src/main.c ****   HAL_GPIO_Init(GPIOB, &GPIO_InitStruct);
 394              		.loc 1 377 3 is_stmt 1 view .LVU104
 377:Core/Src/main.c ****   HAL_GPIO_Init(GPIOB, &GPIO_InitStruct);
 395              		.loc 1 377 25 is_stmt 0 view .LVU105
 396 00ae 0894     		str	r4, [sp, #32]
 378:Core/Src/main.c **** 
 397              		.loc 1 378 3 is_stmt 1 view .LVU106
 398 00b0 05A9     		add	r1, sp, #20
 399 00b2 4046     		mov	r0, r8
 400 00b4 FFF7FEFF 		bl	HAL_GPIO_Init
 401              	.LVL12:
 381:Core/Src/main.c ****   GPIO_InitStruct.Mode = GPIO_MODE_IT_RISING;
 402              		.loc 1 381 3 view .LVU107
 381:Core/Src/main.c ****   GPIO_InitStruct.Mode = GPIO_MODE_IT_RISING;
 403              		.loc 1 381 23 is_stmt 0 view .LVU108
 404 00b8 4FF48073 		mov	r3, #256
 405 00bc 0593     		str	r3, [sp, #20]
 382:Core/Src/main.c ****   GPIO_InitStruct.Pull = GPIO_NOPULL;
 406              		.loc 1 382 3 is_stmt 1 view .LVU109
 382:Core/Src/main.c ****   GPIO_InitStruct.Pull = GPIO_NOPULL;
 407              		.loc 1 382 24 is_stmt 0 view .LVU110
 408 00be 4FF48813 		mov	r3, #1114112
 409 00c2 0693     		str	r3, [sp, #24]
 383:Core/Src/main.c ****   HAL_GPIO_Init(LORA_EXTI_GPIO_Port, &GPIO_InitStruct);
 410              		.loc 1 383 3 is_stmt 1 view .LVU111
 383:Core/Src/main.c ****   HAL_GPIO_Init(LORA_EXTI_GPIO_Port, &GPIO_InitStruct);
 411              		.loc 1 383 24 is_stmt 0 view .LVU112
 412 00c4 0794     		str	r4, [sp, #28]
ARM GAS  C:\Users\jdcox\AppData\Local\Temp\ccPJHbOo.s 			page 21


 384:Core/Src/main.c **** 
 413              		.loc 1 384 3 is_stmt 1 view .LVU113
 414 00c6 05A9     		add	r1, sp, #20
 415 00c8 3846     		mov	r0, r7
 416 00ca FFF7FEFF 		bl	HAL_GPIO_Init
 417              	.LVL13:
 387:Core/Src/main.c ****   GPIO_InitStruct.Mode = GPIO_MODE_OUTPUT_PP;
 418              		.loc 1 387 3 view .LVU114
 387:Core/Src/main.c ****   GPIO_InitStruct.Mode = GPIO_MODE_OUTPUT_PP;
 419              		.loc 1 387 23 is_stmt 0 view .LVU115
 420 00ce 4FF4C063 		mov	r3, #1536
 421 00d2 0593     		str	r3, [sp, #20]
 388:Core/Src/main.c ****   GPIO_InitStruct.Pull = GPIO_NOPULL;
 422              		.loc 1 388 3 is_stmt 1 view .LVU116
 388:Core/Src/main.c ****   GPIO_InitStruct.Pull = GPIO_NOPULL;
 423              		.loc 1 388 24 is_stmt 0 view .LVU117
 424 00d4 0695     		str	r5, [sp, #24]
 389:Core/Src/main.c ****   GPIO_InitStruct.Speed = GPIO_SPEED_FREQ_LOW;
 425              		.loc 1 389 3 is_stmt 1 view .LVU118
 389:Core/Src/main.c ****   GPIO_InitStruct.Speed = GPIO_SPEED_FREQ_LOW;
 426              		.loc 1 389 24 is_stmt 0 view .LVU119
 427 00d6 0794     		str	r4, [sp, #28]
 390:Core/Src/main.c ****   HAL_GPIO_Init(GPIOA, &GPIO_InitStruct);
 428              		.loc 1 390 3 is_stmt 1 view .LVU120
 390:Core/Src/main.c ****   HAL_GPIO_Init(GPIOA, &GPIO_InitStruct);
 429              		.loc 1 390 25 is_stmt 0 view .LVU121
 430 00d8 0894     		str	r4, [sp, #32]
 391:Core/Src/main.c **** 
 431              		.loc 1 391 3 is_stmt 1 view .LVU122
 432 00da 05A9     		add	r1, sp, #20
 433 00dc 3846     		mov	r0, r7
 434 00de FFF7FEFF 		bl	HAL_GPIO_Init
 435              	.LVL14:
 394:Core/Src/main.c ****   HAL_NVIC_EnableIRQ(EXTI0_IRQn);
 436              		.loc 1 394 3 view .LVU123
 437 00e2 2246     		mov	r2, r4
 438 00e4 0521     		movs	r1, #5
 439 00e6 3046     		mov	r0, r6
 440 00e8 FFF7FEFF 		bl	HAL_NVIC_SetPriority
 441              	.LVL15:
 395:Core/Src/main.c **** 
 442              		.loc 1 395 3 view .LVU124
 443 00ec 3046     		mov	r0, r6
 444 00ee FFF7FEFF 		bl	HAL_NVIC_EnableIRQ
 445              	.LVL16:
 397:Core/Src/main.c **** 
 446              		.loc 1 397 1 is_stmt 0 view .LVU125
 447 00f2 0AB0     		add	sp, sp, #40
 448              	.LCFI3:
 449              		.cfi_def_cfa_offset 24
 450              		@ sp needed
 451 00f4 BDE8F081 		pop	{r4, r5, r6, r7, r8, pc}
 452              	.L20:
 453              		.align	2
 454              	.L19:
 455 00f8 00380240 		.word	1073887232
 456 00fc 00000240 		.word	1073872896
ARM GAS  C:\Users\jdcox\AppData\Local\Temp\ccPJHbOo.s 			page 22


 457 0100 00080240 		.word	1073874944
 458 0104 00040240 		.word	1073873920
 459              		.cfi_endproc
 460              	.LFE143:
 462              		.section	.text.MX_DMA_Init,"ax",%progbits
 463              		.align	1
 464              		.syntax unified
 465              		.thumb
 466              		.thumb_func
 468              	MX_DMA_Init:
 469              	.LFB142:
 321:Core/Src/main.c **** 
 470              		.loc 1 321 1 is_stmt 1 view -0
 471              		.cfi_startproc
 472              		@ args = 0, pretend = 0, frame = 8
 473              		@ frame_needed = 0, uses_anonymous_args = 0
 474 0000 10B5     		push	{r4, lr}
 475              	.LCFI4:
 476              		.cfi_def_cfa_offset 8
 477              		.cfi_offset 4, -8
 478              		.cfi_offset 14, -4
 479 0002 82B0     		sub	sp, sp, #8
 480              	.LCFI5:
 481              		.cfi_def_cfa_offset 16
 324:Core/Src/main.c ****   __HAL_RCC_DMA2_CLK_ENABLE();
 482              		.loc 1 324 3 view .LVU127
 483              	.LBB8:
 324:Core/Src/main.c ****   __HAL_RCC_DMA2_CLK_ENABLE();
 484              		.loc 1 324 3 view .LVU128
 485 0004 0024     		movs	r4, #0
 486 0006 0094     		str	r4, [sp]
 324:Core/Src/main.c ****   __HAL_RCC_DMA2_CLK_ENABLE();
 487              		.loc 1 324 3 view .LVU129
 488 0008 164B     		ldr	r3, .L23
 489 000a 1A6B     		ldr	r2, [r3, #48]
 490 000c 42F40012 		orr	r2, r2, #2097152
 491 0010 1A63     		str	r2, [r3, #48]
 324:Core/Src/main.c ****   __HAL_RCC_DMA2_CLK_ENABLE();
 492              		.loc 1 324 3 view .LVU130
 493 0012 1A6B     		ldr	r2, [r3, #48]
 494 0014 02F40012 		and	r2, r2, #2097152
 495 0018 0092     		str	r2, [sp]
 324:Core/Src/main.c ****   __HAL_RCC_DMA2_CLK_ENABLE();
 496              		.loc 1 324 3 view .LVU131
 497 001a 009A     		ldr	r2, [sp]
 498              	.LBE8:
 324:Core/Src/main.c ****   __HAL_RCC_DMA2_CLK_ENABLE();
 499              		.loc 1 324 3 view .LVU132
 325:Core/Src/main.c **** 
 500              		.loc 1 325 3 view .LVU133
 501              	.LBB9:
 325:Core/Src/main.c **** 
 502              		.loc 1 325 3 view .LVU134
 503 001c 0194     		str	r4, [sp, #4]
 325:Core/Src/main.c **** 
 504              		.loc 1 325 3 view .LVU135
 505 001e 1A6B     		ldr	r2, [r3, #48]
ARM GAS  C:\Users\jdcox\AppData\Local\Temp\ccPJHbOo.s 			page 23


 506 0020 42F48002 		orr	r2, r2, #4194304
 507 0024 1A63     		str	r2, [r3, #48]
 325:Core/Src/main.c **** 
 508              		.loc 1 325 3 view .LVU136
 509 0026 1B6B     		ldr	r3, [r3, #48]
 510 0028 03F48003 		and	r3, r3, #4194304
 511 002c 0193     		str	r3, [sp, #4]
 325:Core/Src/main.c **** 
 512              		.loc 1 325 3 view .LVU137
 513 002e 019B     		ldr	r3, [sp, #4]
 514              	.LBE9:
 325:Core/Src/main.c **** 
 515              		.loc 1 325 3 view .LVU138
 329:Core/Src/main.c ****   HAL_NVIC_EnableIRQ(DMA1_Stream6_IRQn);
 516              		.loc 1 329 3 view .LVU139
 517 0030 2246     		mov	r2, r4
 518 0032 0521     		movs	r1, #5
 519 0034 1120     		movs	r0, #17
 520 0036 FFF7FEFF 		bl	HAL_NVIC_SetPriority
 521              	.LVL17:
 330:Core/Src/main.c ****   /* DMA2_Stream0_IRQn interrupt configuration */
 522              		.loc 1 330 3 view .LVU140
 523 003a 1120     		movs	r0, #17
 524 003c FFF7FEFF 		bl	HAL_NVIC_EnableIRQ
 525              	.LVL18:
 332:Core/Src/main.c ****   HAL_NVIC_EnableIRQ(DMA2_Stream0_IRQn);
 526              		.loc 1 332 3 view .LVU141
 527 0040 2246     		mov	r2, r4
 528 0042 0521     		movs	r1, #5
 529 0044 3820     		movs	r0, #56
 530 0046 FFF7FEFF 		bl	HAL_NVIC_SetPriority
 531              	.LVL19:
 333:Core/Src/main.c ****   /* DMA2_Stream3_IRQn interrupt configuration */
 532              		.loc 1 333 3 view .LVU142
 533 004a 3820     		movs	r0, #56
 534 004c FFF7FEFF 		bl	HAL_NVIC_EnableIRQ
 535              	.LVL20:
 335:Core/Src/main.c ****   HAL_NVIC_EnableIRQ(DMA2_Stream3_IRQn);
 536              		.loc 1 335 3 view .LVU143
 537 0050 2246     		mov	r2, r4
 538 0052 0521     		movs	r1, #5
 539 0054 3B20     		movs	r0, #59
 540 0056 FFF7FEFF 		bl	HAL_NVIC_SetPriority
 541              	.LVL21:
 336:Core/Src/main.c **** 
 542              		.loc 1 336 3 view .LVU144
 543 005a 3B20     		movs	r0, #59
 544 005c FFF7FEFF 		bl	HAL_NVIC_EnableIRQ
 545              	.LVL22:
 338:Core/Src/main.c **** 
 546              		.loc 1 338 1 is_stmt 0 view .LVU145
 547 0060 02B0     		add	sp, sp, #8
 548              	.LCFI6:
 549              		.cfi_def_cfa_offset 8
 550              		@ sp needed
 551 0062 10BD     		pop	{r4, pc}
 552              	.L24:
ARM GAS  C:\Users\jdcox\AppData\Local\Temp\ccPJHbOo.s 			page 24


 553              		.align	2
 554              	.L23:
 555 0064 00380240 		.word	1073887232
 556              		.cfi_endproc
 557              	.LFE142:
 559              		.section	.text.StartDisplayTask,"ax",%progbits
 560              		.align	1
 561              		.global	StartDisplayTask
 562              		.syntax unified
 563              		.thumb
 564              		.thumb_func
 566              	StartDisplayTask:
 567              	.LFB146:
 558:Core/Src/main.c ****   /* USER CODE BEGIN StartDisplayTask */
 568              		.loc 1 558 1 is_stmt 1 view -0
 569              		.cfi_startproc
 570              		@ Volatile: function does not return.
 571              		@ args = 0, pretend = 0, frame = 0
 572              		@ frame_needed = 0, uses_anonymous_args = 0
 573              	.LVL23:
 558:Core/Src/main.c ****   /* USER CODE BEGIN StartDisplayTask */
 574              		.loc 1 558 1 is_stmt 0 view .LVU147
 575 0000 08B5     		push	{r3, lr}
 576              	.LCFI7:
 577              		.cfi_def_cfa_offset 8
 578              		.cfi_offset 3, -8
 579              		.cfi_offset 14, -4
 580              	.LVL24:
 581              	.L26:
 561:Core/Src/main.c ****   {
 582              		.loc 1 561 3 is_stmt 1 discriminator 1 view .LVU148
 564:Core/Src/main.c ****   }
 583              		.loc 1 564 5 discriminator 1 view .LVU149
 584 0002 6420     		movs	r0, #100
 585 0004 FFF7FEFF 		bl	osDelay
 586              	.LVL25:
 561:Core/Src/main.c ****   {
 587              		.loc 1 561 3 discriminator 1 view .LVU150
 588 0008 FBE7     		b	.L26
 589              		.cfi_endproc
 590              	.LFE146:
 592              		.section	.rodata.StartDefaultTask.str1.4,"aMS",%progbits,1
 593              		.align	2
 594              	.LC7:
 595 0000 4B494E47 		.ascii	"KING\000"
 595      00
 596 0005 000000   		.align	2
 597              	.LC8:
 598 0008 4F4600   		.ascii	"OF\000"
 599 000b 00       		.align	2
 600              	.LC9:
 601 000c 54484500 		.ascii	"THE\000"
 602              		.align	2
 603              	.LC10:
 604 0010 48494C4C 		.ascii	"HILL\000"
 604      00
 605              		.section	.text.StartDefaultTask,"ax",%progbits
ARM GAS  C:\Users\jdcox\AppData\Local\Temp\ccPJHbOo.s 			page 25


 606              		.align	1
 607              		.global	StartDefaultTask
 608              		.syntax unified
 609              		.thumb
 610              		.thumb_func
 612              	StartDefaultTask:
 613              	.LVL26:
 614              	.LFB144:
 411:Core/Src/main.c ****   /* USER CODE BEGIN 5 */
 615              		.loc 1 411 1 view -0
 616              		.cfi_startproc
 617              		@ Volatile: function does not return.
 618              		@ args = 0, pretend = 0, frame = 32
 619              		@ frame_needed = 0, uses_anonymous_args = 0
 411:Core/Src/main.c ****   /* USER CODE BEGIN 5 */
 620              		.loc 1 411 1 is_stmt 0 view .LVU152
 621 0000 00B5     		push	{lr}
 622              	.LCFI8:
 623              		.cfi_def_cfa_offset 4
 624              		.cfi_offset 14, -4
 625 0002 89B0     		sub	sp, sp, #36
 626              	.LCFI9:
 627              		.cfi_def_cfa_offset 40
 418:Core/Src/main.c ****   loraTaskHandle = osThreadCreate(osThread(loraTask), NULL);
 628              		.loc 1 418 3 is_stmt 1 view .LVU153
 629 0004 0DF1040C 		add	ip, sp, #4
 630 0008 464C     		ldr	r4, .L35
 631 000a 0FCC     		ldmia	r4!, {r0, r1, r2, r3}
 632              	.LVL27:
 418:Core/Src/main.c ****   loraTaskHandle = osThreadCreate(osThread(loraTask), NULL);
 633              		.loc 1 418 3 is_stmt 0 view .LVU154
 634 000c ACE80F00 		stmia	ip!, {r0, r1, r2, r3}
 635 0010 94E80700 		ldm	r4, {r0, r1, r2}
 636 0014 8CE80700 		stm	ip, {r0, r1, r2}
 419:Core/Src/main.c **** 
 637              		.loc 1 419 3 is_stmt 1 view .LVU155
 419:Core/Src/main.c **** 
 638              		.loc 1 419 20 is_stmt 0 view .LVU156
 639 0018 0021     		movs	r1, #0
 640 001a 01A8     		add	r0, sp, #4
 641 001c FFF7FEFF 		bl	osThreadCreate
 642              	.LVL28:
 419:Core/Src/main.c **** 
 643              		.loc 1 419 18 view .LVU157
 644 0020 414B     		ldr	r3, .L35+4
 645 0022 1860     		str	r0, [r3]
 421:Core/Src/main.c ****   {
 646              		.loc 1 421 3 is_stmt 1 view .LVU158
 421:Core/Src/main.c ****   {
 647              		.loc 1 421 8 is_stmt 0 view .LVU159
 648 0024 4FF40051 		mov	r1, #8192
 649 0028 4048     		ldr	r0, .L35+8
 650 002a FFF7FEFF 		bl	HAL_GPIO_ReadPin
 651              	.LVL29:
 421:Core/Src/main.c ****   {
 652              		.loc 1 421 6 view .LVU160
 653 002e 0028     		cmp	r0, #0
ARM GAS  C:\Users\jdcox\AppData\Local\Temp\ccPJHbOo.s 			page 26


 654 0030 64D1     		bne	.L29
 423:Core/Src/main.c ****     OTHER_PLAYER = RED;
 655              		.loc 1 423 5 is_stmt 1 view .LVU161
 423:Core/Src/main.c ****     OTHER_PLAYER = RED;
 656              		.loc 1 423 17 is_stmt 0 view .LVU162
 657 0032 3F4B     		ldr	r3, .L35+12
 658 0034 0422     		movs	r2, #4
 659 0036 1A70     		strb	r2, [r3]
 424:Core/Src/main.c ****   }
 660              		.loc 1 424 5 is_stmt 1 view .LVU163
 424:Core/Src/main.c ****   }
 661              		.loc 1 424 18 is_stmt 0 view .LVU164
 662 0038 3E4B     		ldr	r3, .L35+16
 663 003a 0222     		movs	r2, #2
 664 003c 1A70     		strb	r2, [r3]
 665              	.L30:
 433:Core/Src/main.c ****   BLUELED_OFF;
 666              		.loc 1 433 3 is_stmt 1 view .LVU165
 667 003e 3E4C     		ldr	r4, .L35+20
 668 0040 0122     		movs	r2, #1
 669 0042 0421     		movs	r1, #4
 670 0044 2046     		mov	r0, r4
 671 0046 FFF7FEFF 		bl	HAL_GPIO_WritePin
 672              	.LVL30:
 434:Core/Src/main.c ****   ssd1306_Init();
 673              		.loc 1 434 3 view .LVU166
 674 004a 0122     		movs	r2, #1
 675 004c 0221     		movs	r1, #2
 676 004e 2046     		mov	r0, r4
 677 0050 FFF7FEFF 		bl	HAL_GPIO_WritePin
 678              	.LVL31:
 435:Core/Src/main.c ****   ssd1306_SetCursor(0,0);
 679              		.loc 1 435 3 view .LVU167
 680 0054 FFF7FEFF 		bl	ssd1306_Init
 681              	.LVL32:
 436:Core/Src/main.c ****   ssd1306_WriteString("KING",Font_16x24,1);
 682              		.loc 1 436 3 view .LVU168
 683 0058 0021     		movs	r1, #0
 684 005a 0846     		mov	r0, r1
 685 005c FFF7FEFF 		bl	ssd1306_SetCursor
 686              	.LVL33:
 437:Core/Src/main.c ****   ssd1306_UpdateScreen();
 687              		.loc 1 437 3 view .LVU169
 688 0060 364C     		ldr	r4, .L35+24
 689 0062 0123     		movs	r3, #1
 690 0064 94E80600 		ldm	r4, {r1, r2}
 691 0068 3548     		ldr	r0, .L35+28
 692 006a FFF7FEFF 		bl	ssd1306_WriteString
 693              	.LVL34:
 438:Core/Src/main.c ****   osDelay(500);
 694              		.loc 1 438 3 view .LVU170
 695 006e FFF7FEFF 		bl	ssd1306_UpdateScreen
 696              	.LVL35:
 439:Core/Src/main.c ****   ssd1306_Fill(0);
 697              		.loc 1 439 3 view .LVU171
 698 0072 4FF4FA70 		mov	r0, #500
 699 0076 FFF7FEFF 		bl	osDelay
ARM GAS  C:\Users\jdcox\AppData\Local\Temp\ccPJHbOo.s 			page 27


 700              	.LVL36:
 440:Core/Src/main.c ****   ssd1306_SetCursor(64,0);
 701              		.loc 1 440 3 view .LVU172
 702 007a 0020     		movs	r0, #0
 703 007c FFF7FEFF 		bl	ssd1306_Fill
 704              	.LVL37:
 441:Core/Src/main.c ****   ssd1306_WriteString("OF",Font_16x24,1);
 705              		.loc 1 441 3 view .LVU173
 706 0080 0021     		movs	r1, #0
 707 0082 4020     		movs	r0, #64
 708 0084 FFF7FEFF 		bl	ssd1306_SetCursor
 709              	.LVL38:
 442:Core/Src/main.c ****   ssd1306_UpdateScreen();
 710              		.loc 1 442 3 view .LVU174
 711 0088 0123     		movs	r3, #1
 712 008a 94E80600 		ldm	r4, {r1, r2}
 713 008e 2D48     		ldr	r0, .L35+32
 714 0090 FFF7FEFF 		bl	ssd1306_WriteString
 715              	.LVL39:
 443:Core/Src/main.c ****   osDelay(500);
 716              		.loc 1 443 3 view .LVU175
 717 0094 FFF7FEFF 		bl	ssd1306_UpdateScreen
 718              	.LVL40:
 444:Core/Src/main.c ****   ssd1306_Fill(0);
 719              		.loc 1 444 3 view .LVU176
 720 0098 4FF4FA70 		mov	r0, #500
 721 009c FFF7FEFF 		bl	osDelay
 722              	.LVL41:
 445:Core/Src/main.c ****   ssd1306_SetCursor(0,8);
 723              		.loc 1 445 3 view .LVU177
 724 00a0 0020     		movs	r0, #0
 725 00a2 FFF7FEFF 		bl	ssd1306_Fill
 726              	.LVL42:
 446:Core/Src/main.c ****   ssd1306_WriteString("THE",Font_16x24,1);
 727              		.loc 1 446 3 view .LVU178
 728 00a6 0821     		movs	r1, #8
 729 00a8 0020     		movs	r0, #0
 730 00aa FFF7FEFF 		bl	ssd1306_SetCursor
 731              	.LVL43:
 447:Core/Src/main.c ****   ssd1306_UpdateScreen();
 732              		.loc 1 447 3 view .LVU179
 733 00ae 0123     		movs	r3, #1
 734 00b0 94E80600 		ldm	r4, {r1, r2}
 735 00b4 2448     		ldr	r0, .L35+36
 736 00b6 FFF7FEFF 		bl	ssd1306_WriteString
 737              	.LVL44:
 448:Core/Src/main.c ****   osDelay(500);
 738              		.loc 1 448 3 view .LVU180
 739 00ba FFF7FEFF 		bl	ssd1306_UpdateScreen
 740              	.LVL45:
 449:Core/Src/main.c ****   ssd1306_Fill(0);
 741              		.loc 1 449 3 view .LVU181
 742 00be 4FF4FA70 		mov	r0, #500
 743 00c2 FFF7FEFF 		bl	osDelay
 744              	.LVL46:
 450:Core/Src/main.c ****   ssd1306_SetCursor(64,8);
 745              		.loc 1 450 3 view .LVU182
ARM GAS  C:\Users\jdcox\AppData\Local\Temp\ccPJHbOo.s 			page 28


 746 00c6 0020     		movs	r0, #0
 747 00c8 FFF7FEFF 		bl	ssd1306_Fill
 748              	.LVL47:
 451:Core/Src/main.c ****   ssd1306_WriteString("HILL",Font_16x24,1);
 749              		.loc 1 451 3 view .LVU183
 750 00cc 0821     		movs	r1, #8
 751 00ce 4020     		movs	r0, #64
 752 00d0 FFF7FEFF 		bl	ssd1306_SetCursor
 753              	.LVL48:
 452:Core/Src/main.c ****   ssd1306_UpdateScreen();
 754              		.loc 1 452 3 view .LVU184
 755 00d4 0123     		movs	r3, #1
 756 00d6 94E80600 		ldm	r4, {r1, r2}
 757 00da 1C48     		ldr	r0, .L35+40
 758 00dc FFF7FEFF 		bl	ssd1306_WriteString
 759              	.LVL49:
 453:Core/Src/main.c **** 
 760              		.loc 1 453 3 view .LVU185
 761 00e0 FFF7FEFF 		bl	ssd1306_UpdateScreen
 762              	.LVL50:
 457:Core/Src/main.c **** 
 763              		.loc 1 457 3 view .LVU186
 764 00e4 4FF47A70 		mov	r0, #1000
 765 00e8 FFF7FEFF 		bl	osDelay
 766              	.LVL51:
 459:Core/Src/main.c ****   osTimerStart(msTickHandle, pdMS_TO_TICKS(10));
 767              		.loc 1 459 3 view .LVU187
 768 00ec FFF7FEFF 		bl	resetGame
 769              	.LVL52:
 460:Core/Src/main.c ****   
 770              		.loc 1 460 3 view .LVU188
 771 00f0 0A21     		movs	r1, #10
 772 00f2 174B     		ldr	r3, .L35+44
 773 00f4 1868     		ldr	r0, [r3]
 774 00f6 FFF7FEFF 		bl	osTimerStart
 775              	.LVL53:
 776 00fa 0DE0     		b	.L32
 777              	.L29:
 429:Core/Src/main.c ****     OTHER_PLAYER = BLUE;
 778              		.loc 1 429 5 view .LVU189
 429:Core/Src/main.c ****     OTHER_PLAYER = BLUE;
 779              		.loc 1 429 17 is_stmt 0 view .LVU190
 780 00fc 0C4B     		ldr	r3, .L35+12
 781 00fe 0222     		movs	r2, #2
 782 0100 1A70     		strb	r2, [r3]
 430:Core/Src/main.c ****   }
 783              		.loc 1 430 5 is_stmt 1 view .LVU191
 430:Core/Src/main.c ****   }
 784              		.loc 1 430 18 is_stmt 0 view .LVU192
 785 0102 0C4B     		ldr	r3, .L35+16
 786 0104 0422     		movs	r2, #4
 787 0106 1A70     		strb	r2, [r3]
 788 0108 99E7     		b	.L30
 789              	.L34:
 468:Core/Src/main.c **** 
 790              		.loc 1 468 20 is_stmt 1 discriminator 1 view .LVU193
 791 010a FFF7FEFF 		bl	decodeKOTHPacket
ARM GAS  C:\Users\jdcox\AppData\Local\Temp\ccPJHbOo.s 			page 29


 792              	.LVL54:
 793              	.L31:
 471:Core/Src/main.c **** 
 794              		.loc 1 471 5 view .LVU194
 795 010e FFF7FEFF 		bl	doGameState
 796              	.LVL55:
 474:Core/Src/main.c ****    
 797              		.loc 1 474 5 view .LVU195
 798 0112 1420     		movs	r0, #20
 799 0114 FFF7FEFF 		bl	osDelay
 800              	.LVL56:
 464:Core/Src/main.c ****   {
 801              		.loc 1 464 3 view .LVU196
 802              	.L32:
 464:Core/Src/main.c ****   {
 803              		.loc 1 464 3 view .LVU197
 468:Core/Src/main.c **** 
 804              		.loc 1 468 5 view .LVU198
 468:Core/Src/main.c **** 
 805              		.loc 1 468 8 is_stmt 0 view .LVU199
 806 0118 0E4B     		ldr	r3, .L35+48
 807 011a 1B78     		ldrb	r3, [r3]	@ zero_extendqisi2
 468:Core/Src/main.c **** 
 808              		.loc 1 468 7 view .LVU200
 809 011c 002B     		cmp	r3, #0
 810 011e F4D1     		bne	.L34
 811 0120 F5E7     		b	.L31
 812              	.L36:
 813 0122 00BF     		.align	2
 814              	.L35:
 815 0124 00000000 		.word	.LANCHOR0
 816 0128 00000000 		.word	.LANCHOR1
 817 012c 00080240 		.word	1073874944
 818 0130 00000000 		.word	THIS_PLAYER
 819 0134 00000000 		.word	OTHER_PLAYER
 820 0138 00040240 		.word	1073873920
 821 013c 00000000 		.word	Font_16x24
 822 0140 00000000 		.word	.LC7
 823 0144 08000000 		.word	.LC8
 824 0148 0C000000 		.word	.LC9
 825 014c 10000000 		.word	.LC10
 826 0150 00000000 		.word	.LANCHOR2
 827 0154 00000000 		.word	newRX_flag
 828              		.cfi_endproc
 829              	.LFE144:
 831              		.section	.rodata.StartLoraTask.str1.4,"aMS",%progbits,1
 832              		.align	2
 833              	.LC11:
 834 0000 4A6F7368 		.ascii	"Josh wins\000"
 834      2077696E 
 834      7300
 835              		.section	.text.StartLoraTask,"ax",%progbits
 836              		.align	1
 837              		.global	StartLoraTask
 838              		.syntax unified
 839              		.thumb
 840              		.thumb_func
ARM GAS  C:\Users\jdcox\AppData\Local\Temp\ccPJHbOo.s 			page 30


 842              	StartLoraTask:
 843              	.LVL57:
 844              	.LFB145:
 488:Core/Src/main.c ****   /* USER CODE BEGIN StartLoraTask */
 845              		.loc 1 488 1 is_stmt 1 view -0
 846              		.cfi_startproc
 847              		@ args = 0, pretend = 0, frame = 48
 848              		@ frame_needed = 0, uses_anonymous_args = 0
 488:Core/Src/main.c ****   /* USER CODE BEGIN StartLoraTask */
 849              		.loc 1 488 1 is_stmt 0 view .LVU202
 850 0000 10B5     		push	{r4, lr}
 851              	.LCFI10:
 852              		.cfi_def_cfa_offset 8
 853              		.cfi_offset 4, -8
 854              		.cfi_offset 14, -4
 855 0002 8CB0     		sub	sp, sp, #48
 856              	.LCFI11:
 857              		.cfi_def_cfa_offset 56
 492:Core/Src/main.c **** 
 858              		.loc 1 492 5 is_stmt 1 view .LVU203
 492:Core/Src/main.c **** 
 859              		.loc 1 492 14 is_stmt 0 view .LVU204
 860 0004 324C     		ldr	r4, .L44
 861 0006 6846     		mov	r0, sp
 862              	.LVL58:
 492:Core/Src/main.c **** 
 863              		.loc 1 492 14 view .LVU205
 864 0008 FFF7FEFF 		bl	newLoRa
 865              	.LVL59:
 866 000c A646     		mov	lr, r4
 867 000e EC46     		mov	ip, sp
 868 0010 BCE80F00 		ldmia	ip!, {r0, r1, r2, r3}
 869 0014 AEE80F00 		stmia	lr!, {r0, r1, r2, r3}
 870 0018 BCE80F00 		ldmia	ip!, {r0, r1, r2, r3}
 871 001c AEE80F00 		stmia	lr!, {r0, r1, r2, r3}
 872 0020 9CE80700 		ldm	ip, {r0, r1, r2}
 873 0024 8EE80700 		stm	lr, {r0, r1, r2}
 495:Core/Src/main.c ****       myLoRa.CS_pin          = LORA_CS_Pin;
 874              		.loc 1 495 7 is_stmt 1 view .LVU206
 495:Core/Src/main.c ****       myLoRa.CS_pin          = LORA_CS_Pin;
 875              		.loc 1 495 30 is_stmt 0 view .LVU207
 876 0028 2A4B     		ldr	r3, .L44+4
 877 002a 2360     		str	r3, [r4]
 496:Core/Src/main.c ****       myLoRa.reset_port      = LORA_RST_GPIO_Port;
 878              		.loc 1 496 7 is_stmt 1 view .LVU208
 496:Core/Src/main.c ****       myLoRa.reset_port      = LORA_RST_GPIO_Port;
 879              		.loc 1 496 30 is_stmt 0 view .LVU209
 880 002c 4FF48062 		mov	r2, #1024
 881 0030 A280     		strh	r2, [r4, #4]	@ movhi
 497:Core/Src/main.c ****       myLoRa.reset_pin       = LORA_RST_Pin;
 882              		.loc 1 497 7 is_stmt 1 view .LVU210
 497:Core/Src/main.c ****       myLoRa.reset_pin       = LORA_RST_Pin;
 883              		.loc 1 497 30 is_stmt 0 view .LVU211
 884 0032 A360     		str	r3, [r4, #8]
 498:Core/Src/main.c ****       myLoRa.DIO0_port       = LORA_EXTI_GPIO_Port;
 885              		.loc 1 498 7 is_stmt 1 view .LVU212
 498:Core/Src/main.c ****       myLoRa.DIO0_port       = LORA_EXTI_GPIO_Port;
ARM GAS  C:\Users\jdcox\AppData\Local\Temp\ccPJHbOo.s 			page 31


 886              		.loc 1 498 30 is_stmt 0 view .LVU213
 887 0034 4FF40072 		mov	r2, #512
 888 0038 A281     		strh	r2, [r4, #12]	@ movhi
 499:Core/Src/main.c ****       myLoRa.DIO0_pin        = LORA_EXTI_Pin;
 889              		.loc 1 499 7 is_stmt 1 view .LVU214
 499:Core/Src/main.c ****       myLoRa.DIO0_pin        = LORA_EXTI_Pin;
 890              		.loc 1 499 30 is_stmt 0 view .LVU215
 891 003a 2361     		str	r3, [r4, #16]
 500:Core/Src/main.c ****       myLoRa.hSPIx           = &hspi1;
 892              		.loc 1 500 7 is_stmt 1 view .LVU216
 500:Core/Src/main.c ****       myLoRa.hSPIx           = &hspi1;
 893              		.loc 1 500 30 is_stmt 0 view .LVU217
 894 003c 4FF48073 		mov	r3, #256
 895 0040 A382     		strh	r3, [r4, #20]	@ movhi
 501:Core/Src/main.c **** 
 896              		.loc 1 501 7 is_stmt 1 view .LVU218
 501:Core/Src/main.c **** 
 897              		.loc 1 501 30 is_stmt 0 view .LVU219
 898 0042 254B     		ldr	r3, .L44+8
 899 0044 A361     		str	r3, [r4, #24]
 504:Core/Src/main.c ****       sprintf(opcodeString,"Josh wins", 10);
 900              		.loc 1 504 7 is_stmt 1 view .LVU220
 504:Core/Src/main.c ****       sprintf(opcodeString,"Josh wins", 10);
 901              		.loc 1 504 30 is_stmt 0 view .LVU221
 902 0046 2046     		mov	r0, r4
 903 0048 FFF7FEFF 		bl	LoRa_init
 904              	.LVL60:
 905 004c 0446     		mov	r4, r0
 906              	.LVL61:
 505:Core/Src/main.c ****       if(LoRa_Status == LORA_OK)
 907              		.loc 1 505 7 is_stmt 1 view .LVU222
 908 004e 0A22     		movs	r2, #10
 909 0050 2249     		ldr	r1, .L44+12
 910 0052 2348     		ldr	r0, .L44+16
 911 0054 FFF7FEFF 		bl	sprintf
 912              	.LVL62:
 506:Core/Src/main.c ****       {
 913              		.loc 1 506 7 view .LVU223
 506:Core/Src/main.c ****       {
 914              		.loc 1 506 9 is_stmt 0 view .LVU224
 915 0058 C82C     		cmp	r4, #200
 916 005a 08D0     		beq	.L43
 917              	.L38:
 511:Core/Src/main.c ****     rxCount = 0;
 918              		.loc 1 511 5 is_stmt 1 view .LVU225
 919 005c 1C48     		ldr	r0, .L44
 920 005e FFF7FEFF 		bl	LoRa_startReceiving
 921              	.LVL63:
 512:Core/Src/main.c ****     txCount = 0;
 922              		.loc 1 512 5 view .LVU226
 512:Core/Src/main.c ****     txCount = 0;
 923              		.loc 1 512 13 is_stmt 0 view .LVU227
 924 0062 0023     		movs	r3, #0
 925 0064 1F4A     		ldr	r2, .L44+20
 926 0066 1380     		strh	r3, [r2]	@ movhi
 513:Core/Src/main.c **** 
 927              		.loc 1 513 5 is_stmt 1 view .LVU228
ARM GAS  C:\Users\jdcox\AppData\Local\Temp\ccPJHbOo.s 			page 32


 513:Core/Src/main.c **** 
 928              		.loc 1 513 13 is_stmt 0 view .LVU229
 929 0068 1F4A     		ldr	r2, .L44+24
 930 006a 1380     		strh	r3, [r2]	@ movhi
 931 006c 15E0     		b	.L41
 932              	.L43:
 508:Core/Src/main.c ****       }
 933              		.loc 1 508 9 is_stmt 1 view .LVU230
 934 006e 6423     		movs	r3, #100
 935 0070 0C22     		movs	r2, #12
 936 0072 1B49     		ldr	r1, .L44+16
 937 0074 1648     		ldr	r0, .L44
 938 0076 FFF7FEFF 		bl	LoRa_transmit
 939              	.LVL64:
 940 007a EFE7     		b	.L38
 941              	.L39:
 537:Core/Src/main.c ****     {
 942              		.loc 1 537 5 view .LVU231
 537:Core/Src/main.c ****     {
 943              		.loc 1 537 8 is_stmt 0 view .LVU232
 944 007c 1B4B     		ldr	r3, .L44+28
 945 007e 1B78     		ldrb	r3, [r3]	@ zero_extendqisi2
 537:Core/Src/main.c ****     {
 946              		.loc 1 537 7 view .LVU233
 947 0080 43B1     		cbz	r3, .L40
 539:Core/Src/main.c ****       // send a message
 948              		.loc 1 539 7 is_stmt 1 view .LVU234
 539:Core/Src/main.c ****       // send a message
 949              		.loc 1 539 18 is_stmt 0 view .LVU235
 950 0082 1A4B     		ldr	r3, .L44+28
 951 0084 0022     		movs	r2, #0
 952 0086 1A70     		strb	r2, [r3]
 541:Core/Src/main.c ****     }
 953              		.loc 1 541 7 is_stmt 1 view .LVU236
 954 0088 6423     		movs	r3, #100
 955 008a 0C22     		movs	r2, #12
 956 008c 1449     		ldr	r1, .L44+16
 957 008e 1048     		ldr	r0, .L44
 958 0090 FFF7FEFF 		bl	LoRa_transmit
 959              	.LVL65:
 960              	.L40:
 544:Core/Src/main.c **** 
 961              		.loc 1 544 5 view .LVU237
 962 0094 C820     		movs	r0, #200
 963 0096 FFF7FEFF 		bl	osDelay
 964              	.LVL66:
 516:Core/Src/main.c ****   {
 965              		.loc 1 516 3 view .LVU238
 966              	.L41:
 516:Core/Src/main.c ****   {
 967              		.loc 1 516 3 view .LVU239
 522:Core/Src/main.c **** 
 968              		.loc 1 522 5 view .LVU240
 522:Core/Src/main.c **** 
 969              		.loc 1 522 19 is_stmt 0 view .LVU241
 970 009a 0A22     		movs	r2, #10
 971 009c 1449     		ldr	r1, .L44+32
ARM GAS  C:\Users\jdcox\AppData\Local\Temp\ccPJHbOo.s 			page 33


 972 009e 0C48     		ldr	r0, .L44
 973 00a0 FFF7FEFF 		bl	LoRa_receive
 974              	.LVL67:
 522:Core/Src/main.c **** 
 975              		.loc 1 522 17 view .LVU242
 976 00a4 134B     		ldr	r3, .L44+36
 977 00a6 1870     		strb	r0, [r3]
 524:Core/Src/main.c ****     {
 978              		.loc 1 524 5 is_stmt 1 view .LVU243
 524:Core/Src/main.c ****     {
 979              		.loc 1 524 7 is_stmt 0 view .LVU244
 980 00a8 0028     		cmp	r0, #0
 981 00aa E7D0     		beq	.L39
 526:Core/Src/main.c ****         if(loraRXbuf[0] != receivedPacket[0])
 982              		.loc 1 526 9 is_stmt 1 view .LVU245
 526:Core/Src/main.c ****         if(loraRXbuf[0] != receivedPacket[0])
 983              		.loc 1 526 20 is_stmt 0 view .LVU246
 984 00ac 124B     		ldr	r3, .L44+40
 985 00ae 0122     		movs	r2, #1
 986 00b0 1A70     		strb	r2, [r3]
 527:Core/Src/main.c ****         {
 987              		.loc 1 527 9 is_stmt 1 view .LVU247
 527:Core/Src/main.c ****         {
 988              		.loc 1 527 21 is_stmt 0 view .LVU248
 989 00b2 0F4B     		ldr	r3, .L44+32
 990 00b4 1A78     		ldrb	r2, [r3]	@ zero_extendqisi2
 527:Core/Src/main.c ****         {
 991              		.loc 1 527 42 view .LVU249
 992 00b6 114B     		ldr	r3, .L44+44
 993 00b8 1B78     		ldrb	r3, [r3]	@ zero_extendqisi2
 527:Core/Src/main.c ****         {
 994              		.loc 1 527 11 view .LVU250
 995 00ba 9A42     		cmp	r2, r3
 996 00bc DED0     		beq	.L39
 529:Core/Src/main.c ****         }
 997              		.loc 1 529 13 is_stmt 1 view .LVU251
 998 00be 0F4B     		ldr	r3, .L44+44
 999 00c0 0B4A     		ldr	r2, .L44+32
 1000 00c2 1068     		ldr	r0, [r2]	@ unaligned
 1001 00c4 5168     		ldr	r1, [r2, #4]	@ unaligned
 1002 00c6 1860     		str	r0, [r3]	@ unaligned
 1003 00c8 5960     		str	r1, [r3, #4]	@ unaligned
 1004 00ca 1289     		ldrh	r2, [r2, #8]	@ unaligned
 1005 00cc 1A81     		strh	r2, [r3, #8]	@ unaligned
 1006 00ce D5E7     		b	.L39
 1007              	.L45:
 1008              		.align	2
 1009              	.L44:
 1010 00d0 00000000 		.word	.LANCHOR3
 1011 00d4 00000240 		.word	1073872896
 1012 00d8 00000000 		.word	.LANCHOR4
 1013 00dc 00000000 		.word	.LC11
 1014 00e0 00000000 		.word	opcodeString
 1015 00e4 00000000 		.word	rxCount
 1016 00e8 00000000 		.word	txCount
 1017 00ec 00000000 		.word	newTX_flag
 1018 00f0 00000000 		.word	loraRXbuf
ARM GAS  C:\Users\jdcox\AppData\Local\Temp\ccPJHbOo.s 			page 34


 1019 00f4 00000000 		.word	packet_size
 1020 00f8 00000000 		.word	newRX_flag
 1021 00fc 00000000 		.word	receivedPacket
 1022              		.cfi_endproc
 1023              	.LFE145:
 1025              		.section	.text.HAL_TIM_PeriodElapsedCallback,"ax",%progbits
 1026              		.align	1
 1027              		.global	HAL_TIM_PeriodElapsedCallback
 1028              		.syntax unified
 1029              		.thumb
 1030              		.thumb_func
 1032              	HAL_TIM_PeriodElapsedCallback:
 1033              	.LVL68:
 1034              	.LFB150:
 629:Core/Src/main.c **** 
 630:Core/Src/main.c **** /**
 631:Core/Src/main.c ****   * @brief  Period elapsed callback in non blocking mode
 632:Core/Src/main.c ****   * @note   This function is called  when TIM1 interrupt took place, inside
 633:Core/Src/main.c ****   * HAL_TIM_IRQHandler(). It makes a direct call to HAL_IncTick() to increment
 634:Core/Src/main.c ****   * a global variable "uwTick" used as application time base.
 635:Core/Src/main.c ****   * @param  htim : TIM handle
 636:Core/Src/main.c ****   * @retval None
 637:Core/Src/main.c ****   */
 638:Core/Src/main.c **** void HAL_TIM_PeriodElapsedCallback(TIM_HandleTypeDef *htim)
 639:Core/Src/main.c **** {
 1035              		.loc 1 639 1 view -0
 1036              		.cfi_startproc
 1037              		@ args = 0, pretend = 0, frame = 0
 1038              		@ frame_needed = 0, uses_anonymous_args = 0
 1039              		.loc 1 639 1 is_stmt 0 view .LVU253
 1040 0000 08B5     		push	{r3, lr}
 1041              	.LCFI12:
 1042              		.cfi_def_cfa_offset 8
 1043              		.cfi_offset 3, -8
 1044              		.cfi_offset 14, -4
 640:Core/Src/main.c ****   /* USER CODE BEGIN Callback 0 */
 641:Core/Src/main.c **** 
 642:Core/Src/main.c ****   /* USER CODE END Callback 0 */
 643:Core/Src/main.c ****   if (htim->Instance == TIM1) {
 1045              		.loc 1 643 3 is_stmt 1 view .LVU254
 1046              		.loc 1 643 11 is_stmt 0 view .LVU255
 1047 0002 0268     		ldr	r2, [r0]
 1048              		.loc 1 643 6 view .LVU256
 1049 0004 034B     		ldr	r3, .L50
 1050 0006 9A42     		cmp	r2, r3
 1051 0008 00D0     		beq	.L49
 1052              	.LVL69:
 1053              	.L46:
 644:Core/Src/main.c ****     HAL_IncTick();
 645:Core/Src/main.c ****   }
 646:Core/Src/main.c ****   /* USER CODE BEGIN Callback 1 */
 647:Core/Src/main.c **** 
 648:Core/Src/main.c ****   /* USER CODE END Callback 1 */
 649:Core/Src/main.c **** }
 1054              		.loc 1 649 1 view .LVU257
 1055 000a 08BD     		pop	{r3, pc}
 1056              	.LVL70:
ARM GAS  C:\Users\jdcox\AppData\Local\Temp\ccPJHbOo.s 			page 35


 1057              	.L49:
 644:Core/Src/main.c ****     HAL_IncTick();
 1058              		.loc 1 644 5 is_stmt 1 view .LVU258
 1059 000c FFF7FEFF 		bl	HAL_IncTick
 1060              	.LVL71:
 1061              		.loc 1 649 1 is_stmt 0 view .LVU259
 1062 0010 FBE7     		b	.L46
 1063              	.L51:
 1064 0012 00BF     		.align	2
 1065              	.L50:
 1066 0014 00000140 		.word	1073807360
 1067              		.cfi_endproc
 1068              	.LFE150:
 1070              		.section	.text.Error_Handler,"ax",%progbits
 1071              		.align	1
 1072              		.global	Error_Handler
 1073              		.syntax unified
 1074              		.thumb
 1075              		.thumb_func
 1077              	Error_Handler:
 1078              	.LFB151:
 650:Core/Src/main.c **** 
 651:Core/Src/main.c **** /**
 652:Core/Src/main.c ****   * @brief  This function is executed in case of error occurrence.
 653:Core/Src/main.c ****   * @retval None
 654:Core/Src/main.c ****   */
 655:Core/Src/main.c **** void Error_Handler(void)
 656:Core/Src/main.c **** {
 1079              		.loc 1 656 1 is_stmt 1 view -0
 1080              		.cfi_startproc
 1081              		@ Volatile: function does not return.
 1082              		@ args = 0, pretend = 0, frame = 0
 1083              		@ frame_needed = 0, uses_anonymous_args = 0
 1084              		@ link register save eliminated.
 657:Core/Src/main.c ****   /* USER CODE BEGIN Error_Handler_Debug */
 658:Core/Src/main.c ****   /* User can add his own implementation to report the HAL error return state */
 659:Core/Src/main.c ****   __disable_irq();
 1085              		.loc 1 659 3 view .LVU261
 1086              	.LBB10:
 1087              	.LBI10:
 1088              		.file 2 "Drivers/CMSIS/Include/cmsis_gcc.h"
   1:Drivers/CMSIS/Include/cmsis_gcc.h **** /**************************************************************************//**
   2:Drivers/CMSIS/Include/cmsis_gcc.h ****  * @file     cmsis_gcc.h
   3:Drivers/CMSIS/Include/cmsis_gcc.h ****  * @brief    CMSIS compiler GCC header file
   4:Drivers/CMSIS/Include/cmsis_gcc.h ****  * @version  V5.0.4
   5:Drivers/CMSIS/Include/cmsis_gcc.h ****  * @date     09. April 2018
   6:Drivers/CMSIS/Include/cmsis_gcc.h ****  ******************************************************************************/
   7:Drivers/CMSIS/Include/cmsis_gcc.h **** /*
   8:Drivers/CMSIS/Include/cmsis_gcc.h ****  * Copyright (c) 2009-2018 Arm Limited. All rights reserved.
   9:Drivers/CMSIS/Include/cmsis_gcc.h ****  *
  10:Drivers/CMSIS/Include/cmsis_gcc.h ****  * SPDX-License-Identifier: Apache-2.0
  11:Drivers/CMSIS/Include/cmsis_gcc.h ****  *
  12:Drivers/CMSIS/Include/cmsis_gcc.h ****  * Licensed under the Apache License, Version 2.0 (the License); you may
  13:Drivers/CMSIS/Include/cmsis_gcc.h ****  * not use this file except in compliance with the License.
  14:Drivers/CMSIS/Include/cmsis_gcc.h ****  * You may obtain a copy of the License at
  15:Drivers/CMSIS/Include/cmsis_gcc.h ****  *
  16:Drivers/CMSIS/Include/cmsis_gcc.h ****  * www.apache.org/licenses/LICENSE-2.0
ARM GAS  C:\Users\jdcox\AppData\Local\Temp\ccPJHbOo.s 			page 36


  17:Drivers/CMSIS/Include/cmsis_gcc.h ****  *
  18:Drivers/CMSIS/Include/cmsis_gcc.h ****  * Unless required by applicable law or agreed to in writing, software
  19:Drivers/CMSIS/Include/cmsis_gcc.h ****  * distributed under the License is distributed on an AS IS BASIS, WITHOUT
  20:Drivers/CMSIS/Include/cmsis_gcc.h ****  * WARRANTIES OR CONDITIONS OF ANY KIND, either express or implied.
  21:Drivers/CMSIS/Include/cmsis_gcc.h ****  * See the License for the specific language governing permissions and
  22:Drivers/CMSIS/Include/cmsis_gcc.h ****  * limitations under the License.
  23:Drivers/CMSIS/Include/cmsis_gcc.h ****  */
  24:Drivers/CMSIS/Include/cmsis_gcc.h **** 
  25:Drivers/CMSIS/Include/cmsis_gcc.h **** #ifndef __CMSIS_GCC_H
  26:Drivers/CMSIS/Include/cmsis_gcc.h **** #define __CMSIS_GCC_H
  27:Drivers/CMSIS/Include/cmsis_gcc.h **** 
  28:Drivers/CMSIS/Include/cmsis_gcc.h **** /* ignore some GCC warnings */
  29:Drivers/CMSIS/Include/cmsis_gcc.h **** #pragma GCC diagnostic push
  30:Drivers/CMSIS/Include/cmsis_gcc.h **** #pragma GCC diagnostic ignored "-Wsign-conversion"
  31:Drivers/CMSIS/Include/cmsis_gcc.h **** #pragma GCC diagnostic ignored "-Wconversion"
  32:Drivers/CMSIS/Include/cmsis_gcc.h **** #pragma GCC diagnostic ignored "-Wunused-parameter"
  33:Drivers/CMSIS/Include/cmsis_gcc.h **** 
  34:Drivers/CMSIS/Include/cmsis_gcc.h **** /* Fallback for __has_builtin */
  35:Drivers/CMSIS/Include/cmsis_gcc.h **** #ifndef __has_builtin
  36:Drivers/CMSIS/Include/cmsis_gcc.h ****   #define __has_builtin(x) (0)
  37:Drivers/CMSIS/Include/cmsis_gcc.h **** #endif
  38:Drivers/CMSIS/Include/cmsis_gcc.h **** 
  39:Drivers/CMSIS/Include/cmsis_gcc.h **** /* CMSIS compiler specific defines */
  40:Drivers/CMSIS/Include/cmsis_gcc.h **** #ifndef   __ASM
  41:Drivers/CMSIS/Include/cmsis_gcc.h ****   #define __ASM                                  __asm
  42:Drivers/CMSIS/Include/cmsis_gcc.h **** #endif
  43:Drivers/CMSIS/Include/cmsis_gcc.h **** #ifndef   __INLINE
  44:Drivers/CMSIS/Include/cmsis_gcc.h ****   #define __INLINE                               inline
  45:Drivers/CMSIS/Include/cmsis_gcc.h **** #endif
  46:Drivers/CMSIS/Include/cmsis_gcc.h **** #ifndef   __STATIC_INLINE
  47:Drivers/CMSIS/Include/cmsis_gcc.h ****   #define __STATIC_INLINE                        static inline
  48:Drivers/CMSIS/Include/cmsis_gcc.h **** #endif
  49:Drivers/CMSIS/Include/cmsis_gcc.h **** #ifndef   __STATIC_FORCEINLINE                 
  50:Drivers/CMSIS/Include/cmsis_gcc.h ****   #define __STATIC_FORCEINLINE                   __attribute__((always_inline)) static inline
  51:Drivers/CMSIS/Include/cmsis_gcc.h **** #endif                                           
  52:Drivers/CMSIS/Include/cmsis_gcc.h **** #ifndef   __NO_RETURN
  53:Drivers/CMSIS/Include/cmsis_gcc.h ****   #define __NO_RETURN                            __attribute__((__noreturn__))
  54:Drivers/CMSIS/Include/cmsis_gcc.h **** #endif
  55:Drivers/CMSIS/Include/cmsis_gcc.h **** #ifndef   __USED
  56:Drivers/CMSIS/Include/cmsis_gcc.h ****   #define __USED                                 __attribute__((used))
  57:Drivers/CMSIS/Include/cmsis_gcc.h **** #endif
  58:Drivers/CMSIS/Include/cmsis_gcc.h **** #ifndef   __WEAK
  59:Drivers/CMSIS/Include/cmsis_gcc.h ****   #define __WEAK                                 __attribute__((weak))
  60:Drivers/CMSIS/Include/cmsis_gcc.h **** #endif
  61:Drivers/CMSIS/Include/cmsis_gcc.h **** #ifndef   __PACKED
  62:Drivers/CMSIS/Include/cmsis_gcc.h ****   #define __PACKED                               __attribute__((packed, aligned(1)))
  63:Drivers/CMSIS/Include/cmsis_gcc.h **** #endif
  64:Drivers/CMSIS/Include/cmsis_gcc.h **** #ifndef   __PACKED_STRUCT
  65:Drivers/CMSIS/Include/cmsis_gcc.h ****   #define __PACKED_STRUCT                        struct __attribute__((packed, aligned(1)))
  66:Drivers/CMSIS/Include/cmsis_gcc.h **** #endif
  67:Drivers/CMSIS/Include/cmsis_gcc.h **** #ifndef   __PACKED_UNION
  68:Drivers/CMSIS/Include/cmsis_gcc.h ****   #define __PACKED_UNION                         union __attribute__((packed, aligned(1)))
  69:Drivers/CMSIS/Include/cmsis_gcc.h **** #endif
  70:Drivers/CMSIS/Include/cmsis_gcc.h **** #ifndef   __UNALIGNED_UINT32        /* deprecated */
  71:Drivers/CMSIS/Include/cmsis_gcc.h ****   #pragma GCC diagnostic push
  72:Drivers/CMSIS/Include/cmsis_gcc.h ****   #pragma GCC diagnostic ignored "-Wpacked"
  73:Drivers/CMSIS/Include/cmsis_gcc.h ****   #pragma GCC diagnostic ignored "-Wattributes"
ARM GAS  C:\Users\jdcox\AppData\Local\Temp\ccPJHbOo.s 			page 37


  74:Drivers/CMSIS/Include/cmsis_gcc.h ****   struct __attribute__((packed)) T_UINT32 { uint32_t v; };
  75:Drivers/CMSIS/Include/cmsis_gcc.h ****   #pragma GCC diagnostic pop
  76:Drivers/CMSIS/Include/cmsis_gcc.h ****   #define __UNALIGNED_UINT32(x)                  (((struct T_UINT32 *)(x))->v)
  77:Drivers/CMSIS/Include/cmsis_gcc.h **** #endif
  78:Drivers/CMSIS/Include/cmsis_gcc.h **** #ifndef   __UNALIGNED_UINT16_WRITE
  79:Drivers/CMSIS/Include/cmsis_gcc.h ****   #pragma GCC diagnostic push
  80:Drivers/CMSIS/Include/cmsis_gcc.h ****   #pragma GCC diagnostic ignored "-Wpacked"
  81:Drivers/CMSIS/Include/cmsis_gcc.h ****   #pragma GCC diagnostic ignored "-Wattributes"
  82:Drivers/CMSIS/Include/cmsis_gcc.h ****   __PACKED_STRUCT T_UINT16_WRITE { uint16_t v; };
  83:Drivers/CMSIS/Include/cmsis_gcc.h ****   #pragma GCC diagnostic pop
  84:Drivers/CMSIS/Include/cmsis_gcc.h ****   #define __UNALIGNED_UINT16_WRITE(addr, val)    (void)((((struct T_UINT16_WRITE *)(void *)(addr))-
  85:Drivers/CMSIS/Include/cmsis_gcc.h **** #endif
  86:Drivers/CMSIS/Include/cmsis_gcc.h **** #ifndef   __UNALIGNED_UINT16_READ
  87:Drivers/CMSIS/Include/cmsis_gcc.h ****   #pragma GCC diagnostic push
  88:Drivers/CMSIS/Include/cmsis_gcc.h ****   #pragma GCC diagnostic ignored "-Wpacked"
  89:Drivers/CMSIS/Include/cmsis_gcc.h ****   #pragma GCC diagnostic ignored "-Wattributes"
  90:Drivers/CMSIS/Include/cmsis_gcc.h ****   __PACKED_STRUCT T_UINT16_READ { uint16_t v; };
  91:Drivers/CMSIS/Include/cmsis_gcc.h ****   #pragma GCC diagnostic pop
  92:Drivers/CMSIS/Include/cmsis_gcc.h ****   #define __UNALIGNED_UINT16_READ(addr)          (((const struct T_UINT16_READ *)(const void *)(add
  93:Drivers/CMSIS/Include/cmsis_gcc.h **** #endif
  94:Drivers/CMSIS/Include/cmsis_gcc.h **** #ifndef   __UNALIGNED_UINT32_WRITE
  95:Drivers/CMSIS/Include/cmsis_gcc.h ****   #pragma GCC diagnostic push
  96:Drivers/CMSIS/Include/cmsis_gcc.h ****   #pragma GCC diagnostic ignored "-Wpacked"
  97:Drivers/CMSIS/Include/cmsis_gcc.h ****   #pragma GCC diagnostic ignored "-Wattributes"
  98:Drivers/CMSIS/Include/cmsis_gcc.h ****   __PACKED_STRUCT T_UINT32_WRITE { uint32_t v; };
  99:Drivers/CMSIS/Include/cmsis_gcc.h ****   #pragma GCC diagnostic pop
 100:Drivers/CMSIS/Include/cmsis_gcc.h ****   #define __UNALIGNED_UINT32_WRITE(addr, val)    (void)((((struct T_UINT32_WRITE *)(void *)(addr))-
 101:Drivers/CMSIS/Include/cmsis_gcc.h **** #endif
 102:Drivers/CMSIS/Include/cmsis_gcc.h **** #ifndef   __UNALIGNED_UINT32_READ
 103:Drivers/CMSIS/Include/cmsis_gcc.h ****   #pragma GCC diagnostic push
 104:Drivers/CMSIS/Include/cmsis_gcc.h ****   #pragma GCC diagnostic ignored "-Wpacked"
 105:Drivers/CMSIS/Include/cmsis_gcc.h ****   #pragma GCC diagnostic ignored "-Wattributes"
 106:Drivers/CMSIS/Include/cmsis_gcc.h ****   __PACKED_STRUCT T_UINT32_READ { uint32_t v; };
 107:Drivers/CMSIS/Include/cmsis_gcc.h ****   #pragma GCC diagnostic pop
 108:Drivers/CMSIS/Include/cmsis_gcc.h ****   #define __UNALIGNED_UINT32_READ(addr)          (((const struct T_UINT32_READ *)(const void *)(add
 109:Drivers/CMSIS/Include/cmsis_gcc.h **** #endif
 110:Drivers/CMSIS/Include/cmsis_gcc.h **** #ifndef   __ALIGNED
 111:Drivers/CMSIS/Include/cmsis_gcc.h ****   #define __ALIGNED(x)                           __attribute__((aligned(x)))
 112:Drivers/CMSIS/Include/cmsis_gcc.h **** #endif
 113:Drivers/CMSIS/Include/cmsis_gcc.h **** #ifndef   __RESTRICT
 114:Drivers/CMSIS/Include/cmsis_gcc.h ****   #define __RESTRICT                             __restrict
 115:Drivers/CMSIS/Include/cmsis_gcc.h **** #endif
 116:Drivers/CMSIS/Include/cmsis_gcc.h **** 
 117:Drivers/CMSIS/Include/cmsis_gcc.h **** 
 118:Drivers/CMSIS/Include/cmsis_gcc.h **** /* ###########################  Core Function Access  ########################### */
 119:Drivers/CMSIS/Include/cmsis_gcc.h **** /** \ingroup  CMSIS_Core_FunctionInterface
 120:Drivers/CMSIS/Include/cmsis_gcc.h ****     \defgroup CMSIS_Core_RegAccFunctions CMSIS Core Register Access Functions
 121:Drivers/CMSIS/Include/cmsis_gcc.h ****   @{
 122:Drivers/CMSIS/Include/cmsis_gcc.h ****  */
 123:Drivers/CMSIS/Include/cmsis_gcc.h **** 
 124:Drivers/CMSIS/Include/cmsis_gcc.h **** /**
 125:Drivers/CMSIS/Include/cmsis_gcc.h ****   \brief   Enable IRQ Interrupts
 126:Drivers/CMSIS/Include/cmsis_gcc.h ****   \details Enables IRQ interrupts by clearing the I-bit in the CPSR.
 127:Drivers/CMSIS/Include/cmsis_gcc.h ****            Can only be executed in Privileged modes.
 128:Drivers/CMSIS/Include/cmsis_gcc.h ****  */
 129:Drivers/CMSIS/Include/cmsis_gcc.h **** __STATIC_FORCEINLINE void __enable_irq(void)
 130:Drivers/CMSIS/Include/cmsis_gcc.h **** {
ARM GAS  C:\Users\jdcox\AppData\Local\Temp\ccPJHbOo.s 			page 38


 131:Drivers/CMSIS/Include/cmsis_gcc.h ****   __ASM volatile ("cpsie i" : : : "memory");
 132:Drivers/CMSIS/Include/cmsis_gcc.h **** }
 133:Drivers/CMSIS/Include/cmsis_gcc.h **** 
 134:Drivers/CMSIS/Include/cmsis_gcc.h **** 
 135:Drivers/CMSIS/Include/cmsis_gcc.h **** /**
 136:Drivers/CMSIS/Include/cmsis_gcc.h ****   \brief   Disable IRQ Interrupts
 137:Drivers/CMSIS/Include/cmsis_gcc.h ****   \details Disables IRQ interrupts by setting the I-bit in the CPSR.
 138:Drivers/CMSIS/Include/cmsis_gcc.h ****            Can only be executed in Privileged modes.
 139:Drivers/CMSIS/Include/cmsis_gcc.h ****  */
 140:Drivers/CMSIS/Include/cmsis_gcc.h **** __STATIC_FORCEINLINE void __disable_irq(void)
 1089              		.loc 2 140 27 view .LVU262
 1090              	.LBB11:
 141:Drivers/CMSIS/Include/cmsis_gcc.h **** {
 142:Drivers/CMSIS/Include/cmsis_gcc.h ****   __ASM volatile ("cpsid i" : : : "memory");
 1091              		.loc 2 142 3 view .LVU263
 1092              		.syntax unified
 1093              	@ 142 "Drivers/CMSIS/Include/cmsis_gcc.h" 1
 1094 0000 72B6     		cpsid i
 1095              	@ 0 "" 2
 1096              		.thumb
 1097              		.syntax unified
 1098              	.L53:
 1099              	.LBE11:
 1100              	.LBE10:
 660:Core/Src/main.c ****   while (1)
 1101              		.loc 1 660 3 discriminator 1 view .LVU264
 661:Core/Src/main.c ****   {
 662:Core/Src/main.c ****   }
 1102              		.loc 1 662 3 discriminator 1 view .LVU265
 660:Core/Src/main.c ****   while (1)
 1103              		.loc 1 660 9 discriminator 1 view .LVU266
 1104 0002 FEE7     		b	.L53
 1105              		.cfi_endproc
 1106              	.LFE151:
 1108              		.section	.text.MX_SPI1_Init,"ax",%progbits
 1109              		.align	1
 1110              		.syntax unified
 1111              		.thumb
 1112              		.thumb_func
 1114              	MX_SPI1_Init:
 1115              	.LFB141:
 285:Core/Src/main.c **** 
 1116              		.loc 1 285 1 view -0
 1117              		.cfi_startproc
 1118              		@ args = 0, pretend = 0, frame = 0
 1119              		@ frame_needed = 0, uses_anonymous_args = 0
 1120 0000 08B5     		push	{r3, lr}
 1121              	.LCFI13:
 1122              		.cfi_def_cfa_offset 8
 1123              		.cfi_offset 3, -8
 1124              		.cfi_offset 14, -4
 295:Core/Src/main.c ****   hspi1.Init.Mode = SPI_MODE_MASTER;
 1125              		.loc 1 295 3 view .LVU268
 295:Core/Src/main.c ****   hspi1.Init.Mode = SPI_MODE_MASTER;
 1126              		.loc 1 295 18 is_stmt 0 view .LVU269
 1127 0002 0D48     		ldr	r0, .L58
 1128 0004 0D4B     		ldr	r3, .L58+4
ARM GAS  C:\Users\jdcox\AppData\Local\Temp\ccPJHbOo.s 			page 39


 1129 0006 0360     		str	r3, [r0]
 296:Core/Src/main.c ****   hspi1.Init.Direction = SPI_DIRECTION_2LINES;
 1130              		.loc 1 296 3 is_stmt 1 view .LVU270
 296:Core/Src/main.c ****   hspi1.Init.Direction = SPI_DIRECTION_2LINES;
 1131              		.loc 1 296 19 is_stmt 0 view .LVU271
 1132 0008 4FF48273 		mov	r3, #260
 1133 000c 4360     		str	r3, [r0, #4]
 297:Core/Src/main.c ****   hspi1.Init.DataSize = SPI_DATASIZE_8BIT;
 1134              		.loc 1 297 3 is_stmt 1 view .LVU272
 297:Core/Src/main.c ****   hspi1.Init.DataSize = SPI_DATASIZE_8BIT;
 1135              		.loc 1 297 24 is_stmt 0 view .LVU273
 1136 000e 0023     		movs	r3, #0
 1137 0010 8360     		str	r3, [r0, #8]
 298:Core/Src/main.c ****   hspi1.Init.CLKPolarity = SPI_POLARITY_LOW;
 1138              		.loc 1 298 3 is_stmt 1 view .LVU274
 298:Core/Src/main.c ****   hspi1.Init.CLKPolarity = SPI_POLARITY_LOW;
 1139              		.loc 1 298 23 is_stmt 0 view .LVU275
 1140 0012 C360     		str	r3, [r0, #12]
 299:Core/Src/main.c ****   hspi1.Init.CLKPhase = SPI_PHASE_1EDGE;
 1141              		.loc 1 299 3 is_stmt 1 view .LVU276
 299:Core/Src/main.c ****   hspi1.Init.CLKPhase = SPI_PHASE_1EDGE;
 1142              		.loc 1 299 26 is_stmt 0 view .LVU277
 1143 0014 0361     		str	r3, [r0, #16]
 300:Core/Src/main.c ****   hspi1.Init.NSS = SPI_NSS_SOFT;
 1144              		.loc 1 300 3 is_stmt 1 view .LVU278
 300:Core/Src/main.c ****   hspi1.Init.NSS = SPI_NSS_SOFT;
 1145              		.loc 1 300 23 is_stmt 0 view .LVU279
 1146 0016 4361     		str	r3, [r0, #20]
 301:Core/Src/main.c ****   hspi1.Init.BaudRatePrescaler = SPI_BAUDRATEPRESCALER_16;
 1147              		.loc 1 301 3 is_stmt 1 view .LVU280
 301:Core/Src/main.c ****   hspi1.Init.BaudRatePrescaler = SPI_BAUDRATEPRESCALER_16;
 1148              		.loc 1 301 18 is_stmt 0 view .LVU281
 1149 0018 4FF40072 		mov	r2, #512
 1150 001c 8261     		str	r2, [r0, #24]
 302:Core/Src/main.c ****   hspi1.Init.FirstBit = SPI_FIRSTBIT_MSB;
 1151              		.loc 1 302 3 is_stmt 1 view .LVU282
 302:Core/Src/main.c ****   hspi1.Init.FirstBit = SPI_FIRSTBIT_MSB;
 1152              		.loc 1 302 32 is_stmt 0 view .LVU283
 1153 001e 1822     		movs	r2, #24
 1154 0020 C261     		str	r2, [r0, #28]
 303:Core/Src/main.c ****   hspi1.Init.TIMode = SPI_TIMODE_DISABLE;
 1155              		.loc 1 303 3 is_stmt 1 view .LVU284
 303:Core/Src/main.c ****   hspi1.Init.TIMode = SPI_TIMODE_DISABLE;
 1156              		.loc 1 303 23 is_stmt 0 view .LVU285
 1157 0022 0362     		str	r3, [r0, #32]
 304:Core/Src/main.c ****   hspi1.Init.CRCCalculation = SPI_CRCCALCULATION_DISABLE;
 1158              		.loc 1 304 3 is_stmt 1 view .LVU286
 304:Core/Src/main.c ****   hspi1.Init.CRCCalculation = SPI_CRCCALCULATION_DISABLE;
 1159              		.loc 1 304 21 is_stmt 0 view .LVU287
 1160 0024 4362     		str	r3, [r0, #36]
 305:Core/Src/main.c ****   hspi1.Init.CRCPolynomial = 10;
 1161              		.loc 1 305 3 is_stmt 1 view .LVU288
 305:Core/Src/main.c ****   hspi1.Init.CRCPolynomial = 10;
 1162              		.loc 1 305 29 is_stmt 0 view .LVU289
 1163 0026 8362     		str	r3, [r0, #40]
 306:Core/Src/main.c ****   if (HAL_SPI_Init(&hspi1) != HAL_OK)
 1164              		.loc 1 306 3 is_stmt 1 view .LVU290
ARM GAS  C:\Users\jdcox\AppData\Local\Temp\ccPJHbOo.s 			page 40


 306:Core/Src/main.c ****   if (HAL_SPI_Init(&hspi1) != HAL_OK)
 1165              		.loc 1 306 28 is_stmt 0 view .LVU291
 1166 0028 0A23     		movs	r3, #10
 1167 002a C362     		str	r3, [r0, #44]
 307:Core/Src/main.c ****   {
 1168              		.loc 1 307 3 is_stmt 1 view .LVU292
 307:Core/Src/main.c ****   {
 1169              		.loc 1 307 7 is_stmt 0 view .LVU293
 1170 002c FFF7FEFF 		bl	HAL_SPI_Init
 1171              	.LVL72:
 307:Core/Src/main.c ****   {
 1172              		.loc 1 307 6 view .LVU294
 1173 0030 00B9     		cbnz	r0, .L57
 315:Core/Src/main.c **** 
 1174              		.loc 1 315 1 view .LVU295
 1175 0032 08BD     		pop	{r3, pc}
 1176              	.L57:
 309:Core/Src/main.c ****   }
 1177              		.loc 1 309 5 is_stmt 1 view .LVU296
 1178 0034 FFF7FEFF 		bl	Error_Handler
 1179              	.LVL73:
 1180              	.L59:
 1181              		.align	2
 1182              	.L58:
 1183 0038 00000000 		.word	.LANCHOR4
 1184 003c 00300140 		.word	1073819648
 1185              		.cfi_endproc
 1186              	.LFE141:
 1188              		.section	.text.MX_I2C1_Init,"ax",%progbits
 1189              		.align	1
 1190              		.syntax unified
 1191              		.thumb
 1192              		.thumb_func
 1194              	MX_I2C1_Init:
 1195              	.LFB140:
 251:Core/Src/main.c **** 
 1196              		.loc 1 251 1 view -0
 1197              		.cfi_startproc
 1198              		@ args = 0, pretend = 0, frame = 0
 1199              		@ frame_needed = 0, uses_anonymous_args = 0
 1200 0000 08B5     		push	{r3, lr}
 1201              	.LCFI14:
 1202              		.cfi_def_cfa_offset 8
 1203              		.cfi_offset 3, -8
 1204              		.cfi_offset 14, -4
 260:Core/Src/main.c ****   hi2c1.Init.ClockSpeed = 100000;
 1205              		.loc 1 260 3 view .LVU298
 260:Core/Src/main.c ****   hi2c1.Init.ClockSpeed = 100000;
 1206              		.loc 1 260 18 is_stmt 0 view .LVU299
 1207 0002 0B48     		ldr	r0, .L64
 1208 0004 0B4B     		ldr	r3, .L64+4
 1209 0006 0360     		str	r3, [r0]
 261:Core/Src/main.c ****   hi2c1.Init.DutyCycle = I2C_DUTYCYCLE_2;
 1210              		.loc 1 261 3 is_stmt 1 view .LVU300
 261:Core/Src/main.c ****   hi2c1.Init.DutyCycle = I2C_DUTYCYCLE_2;
 1211              		.loc 1 261 25 is_stmt 0 view .LVU301
 1212 0008 0B4B     		ldr	r3, .L64+8
ARM GAS  C:\Users\jdcox\AppData\Local\Temp\ccPJHbOo.s 			page 41


 1213 000a 4360     		str	r3, [r0, #4]
 262:Core/Src/main.c ****   hi2c1.Init.OwnAddress1 = 78;
 1214              		.loc 1 262 3 is_stmt 1 view .LVU302
 262:Core/Src/main.c ****   hi2c1.Init.OwnAddress1 = 78;
 1215              		.loc 1 262 24 is_stmt 0 view .LVU303
 1216 000c 0023     		movs	r3, #0
 1217 000e 8360     		str	r3, [r0, #8]
 263:Core/Src/main.c ****   hi2c1.Init.AddressingMode = I2C_ADDRESSINGMODE_7BIT;
 1218              		.loc 1 263 3 is_stmt 1 view .LVU304
 263:Core/Src/main.c ****   hi2c1.Init.AddressingMode = I2C_ADDRESSINGMODE_7BIT;
 1219              		.loc 1 263 26 is_stmt 0 view .LVU305
 1220 0010 4E22     		movs	r2, #78
 1221 0012 C260     		str	r2, [r0, #12]
 264:Core/Src/main.c ****   hi2c1.Init.DualAddressMode = I2C_DUALADDRESS_DISABLE;
 1222              		.loc 1 264 3 is_stmt 1 view .LVU306
 264:Core/Src/main.c ****   hi2c1.Init.DualAddressMode = I2C_DUALADDRESS_DISABLE;
 1223              		.loc 1 264 29 is_stmt 0 view .LVU307
 1224 0014 4FF48042 		mov	r2, #16384
 1225 0018 0261     		str	r2, [r0, #16]
 265:Core/Src/main.c ****   hi2c1.Init.OwnAddress2 = 0;
 1226              		.loc 1 265 3 is_stmt 1 view .LVU308
 265:Core/Src/main.c ****   hi2c1.Init.OwnAddress2 = 0;
 1227              		.loc 1 265 30 is_stmt 0 view .LVU309
 1228 001a 4361     		str	r3, [r0, #20]
 266:Core/Src/main.c ****   hi2c1.Init.GeneralCallMode = I2C_GENERALCALL_DISABLE;
 1229              		.loc 1 266 3 is_stmt 1 view .LVU310
 266:Core/Src/main.c ****   hi2c1.Init.GeneralCallMode = I2C_GENERALCALL_DISABLE;
 1230              		.loc 1 266 26 is_stmt 0 view .LVU311
 1231 001c 8361     		str	r3, [r0, #24]
 267:Core/Src/main.c ****   hi2c1.Init.NoStretchMode = I2C_NOSTRETCH_DISABLE;
 1232              		.loc 1 267 3 is_stmt 1 view .LVU312
 267:Core/Src/main.c ****   hi2c1.Init.NoStretchMode = I2C_NOSTRETCH_DISABLE;
 1233              		.loc 1 267 30 is_stmt 0 view .LVU313
 1234 001e C361     		str	r3, [r0, #28]
 268:Core/Src/main.c ****   if (HAL_I2C_Init(&hi2c1) != HAL_OK)
 1235              		.loc 1 268 3 is_stmt 1 view .LVU314
 268:Core/Src/main.c ****   if (HAL_I2C_Init(&hi2c1) != HAL_OK)
 1236              		.loc 1 268 28 is_stmt 0 view .LVU315
 1237 0020 0362     		str	r3, [r0, #32]
 269:Core/Src/main.c ****   {
 1238              		.loc 1 269 3 is_stmt 1 view .LVU316
 269:Core/Src/main.c ****   {
 1239              		.loc 1 269 7 is_stmt 0 view .LVU317
 1240 0022 FFF7FEFF 		bl	HAL_I2C_Init
 1241              	.LVL74:
 269:Core/Src/main.c ****   {
 1242              		.loc 1 269 6 view .LVU318
 1243 0026 00B9     		cbnz	r0, .L63
 277:Core/Src/main.c **** 
 1244              		.loc 1 277 1 view .LVU319
 1245 0028 08BD     		pop	{r3, pc}
 1246              	.L63:
 271:Core/Src/main.c ****   }
 1247              		.loc 1 271 5 is_stmt 1 view .LVU320
 1248 002a FFF7FEFF 		bl	Error_Handler
 1249              	.LVL75:
 1250              	.L65:
ARM GAS  C:\Users\jdcox\AppData\Local\Temp\ccPJHbOo.s 			page 42


 1251 002e 00BF     		.align	2
 1252              	.L64:
 1253 0030 00000000 		.word	.LANCHOR5
 1254 0034 00540040 		.word	1073763328
 1255 0038 A0860100 		.word	100000
 1256              		.cfi_endproc
 1257              	.LFE140:
 1259              		.section	.text.SystemClock_Config,"ax",%progbits
 1260              		.align	1
 1261              		.global	SystemClock_Config
 1262              		.syntax unified
 1263              		.thumb
 1264              		.thumb_func
 1266              	SystemClock_Config:
 1267              	.LFB139:
 205:Core/Src/main.c ****   RCC_OscInitTypeDef RCC_OscInitStruct = {0};
 1268              		.loc 1 205 1 view -0
 1269              		.cfi_startproc
 1270              		@ args = 0, pretend = 0, frame = 80
 1271              		@ frame_needed = 0, uses_anonymous_args = 0
 1272 0000 00B5     		push	{lr}
 1273              	.LCFI15:
 1274              		.cfi_def_cfa_offset 4
 1275              		.cfi_offset 14, -4
 1276 0002 95B0     		sub	sp, sp, #84
 1277              	.LCFI16:
 1278              		.cfi_def_cfa_offset 88
 206:Core/Src/main.c ****   RCC_ClkInitTypeDef RCC_ClkInitStruct = {0};
 1279              		.loc 1 206 3 view .LVU322
 206:Core/Src/main.c ****   RCC_ClkInitTypeDef RCC_ClkInitStruct = {0};
 1280              		.loc 1 206 22 is_stmt 0 view .LVU323
 1281 0004 3022     		movs	r2, #48
 1282 0006 0021     		movs	r1, #0
 1283 0008 08A8     		add	r0, sp, #32
 1284 000a FFF7FEFF 		bl	memset
 1285              	.LVL76:
 207:Core/Src/main.c **** 
 1286              		.loc 1 207 3 is_stmt 1 view .LVU324
 207:Core/Src/main.c **** 
 1287              		.loc 1 207 22 is_stmt 0 view .LVU325
 1288 000e 0023     		movs	r3, #0
 1289 0010 0393     		str	r3, [sp, #12]
 1290 0012 0493     		str	r3, [sp, #16]
 1291 0014 0593     		str	r3, [sp, #20]
 1292 0016 0693     		str	r3, [sp, #24]
 1293 0018 0793     		str	r3, [sp, #28]
 211:Core/Src/main.c ****   __HAL_PWR_VOLTAGESCALING_CONFIG(PWR_REGULATOR_VOLTAGE_SCALE2);
 1294              		.loc 1 211 3 is_stmt 1 view .LVU326
 1295              	.LBB12:
 211:Core/Src/main.c ****   __HAL_PWR_VOLTAGESCALING_CONFIG(PWR_REGULATOR_VOLTAGE_SCALE2);
 1296              		.loc 1 211 3 view .LVU327
 1297 001a 0193     		str	r3, [sp, #4]
 211:Core/Src/main.c ****   __HAL_PWR_VOLTAGESCALING_CONFIG(PWR_REGULATOR_VOLTAGE_SCALE2);
 1298              		.loc 1 211 3 view .LVU328
 1299 001c 214A     		ldr	r2, .L72
 1300 001e 116C     		ldr	r1, [r2, #64]
 1301 0020 41F08051 		orr	r1, r1, #268435456
ARM GAS  C:\Users\jdcox\AppData\Local\Temp\ccPJHbOo.s 			page 43


 1302 0024 1164     		str	r1, [r2, #64]
 211:Core/Src/main.c ****   __HAL_PWR_VOLTAGESCALING_CONFIG(PWR_REGULATOR_VOLTAGE_SCALE2);
 1303              		.loc 1 211 3 view .LVU329
 1304 0026 126C     		ldr	r2, [r2, #64]
 1305 0028 02F08052 		and	r2, r2, #268435456
 1306 002c 0192     		str	r2, [sp, #4]
 211:Core/Src/main.c ****   __HAL_PWR_VOLTAGESCALING_CONFIG(PWR_REGULATOR_VOLTAGE_SCALE2);
 1307              		.loc 1 211 3 view .LVU330
 1308 002e 019A     		ldr	r2, [sp, #4]
 1309              	.LBE12:
 211:Core/Src/main.c ****   __HAL_PWR_VOLTAGESCALING_CONFIG(PWR_REGULATOR_VOLTAGE_SCALE2);
 1310              		.loc 1 211 3 view .LVU331
 212:Core/Src/main.c **** 
 1311              		.loc 1 212 3 view .LVU332
 1312              	.LBB13:
 212:Core/Src/main.c **** 
 1313              		.loc 1 212 3 view .LVU333
 1314 0030 0293     		str	r3, [sp, #8]
 212:Core/Src/main.c **** 
 1315              		.loc 1 212 3 view .LVU334
 1316 0032 1D4A     		ldr	r2, .L72+4
 1317 0034 1368     		ldr	r3, [r2]
 1318 0036 23F44043 		bic	r3, r3, #49152
 1319 003a 43F40043 		orr	r3, r3, #32768
 1320 003e 1360     		str	r3, [r2]
 212:Core/Src/main.c **** 
 1321              		.loc 1 212 3 view .LVU335
 1322 0040 1368     		ldr	r3, [r2]
 1323 0042 03F44043 		and	r3, r3, #49152
 1324 0046 0293     		str	r3, [sp, #8]
 212:Core/Src/main.c **** 
 1325              		.loc 1 212 3 view .LVU336
 1326 0048 029B     		ldr	r3, [sp, #8]
 1327              	.LBE13:
 212:Core/Src/main.c **** 
 1328              		.loc 1 212 3 view .LVU337
 217:Core/Src/main.c ****   RCC_OscInitStruct.HSEState = RCC_HSE_ON;
 1329              		.loc 1 217 3 view .LVU338
 217:Core/Src/main.c ****   RCC_OscInitStruct.HSEState = RCC_HSE_ON;
 1330              		.loc 1 217 36 is_stmt 0 view .LVU339
 1331 004a 0123     		movs	r3, #1
 1332 004c 0893     		str	r3, [sp, #32]
 218:Core/Src/main.c ****   RCC_OscInitStruct.PLL.PLLState = RCC_PLL_ON;
 1333              		.loc 1 218 3 is_stmt 1 view .LVU340
 218:Core/Src/main.c ****   RCC_OscInitStruct.PLL.PLLState = RCC_PLL_ON;
 1334              		.loc 1 218 30 is_stmt 0 view .LVU341
 1335 004e 4FF48033 		mov	r3, #65536
 1336 0052 0993     		str	r3, [sp, #36]
 219:Core/Src/main.c ****   RCC_OscInitStruct.PLL.PLLSource = RCC_PLLSOURCE_HSE;
 1337              		.loc 1 219 3 is_stmt 1 view .LVU342
 219:Core/Src/main.c ****   RCC_OscInitStruct.PLL.PLLSource = RCC_PLLSOURCE_HSE;
 1338              		.loc 1 219 34 is_stmt 0 view .LVU343
 1339 0054 0223     		movs	r3, #2
 1340 0056 0E93     		str	r3, [sp, #56]
 220:Core/Src/main.c ****   RCC_OscInitStruct.PLL.PLLM = 25;
 1341              		.loc 1 220 3 is_stmt 1 view .LVU344
 220:Core/Src/main.c ****   RCC_OscInitStruct.PLL.PLLM = 25;
ARM GAS  C:\Users\jdcox\AppData\Local\Temp\ccPJHbOo.s 			page 44


 1342              		.loc 1 220 35 is_stmt 0 view .LVU345
 1343 0058 4FF48003 		mov	r3, #4194304
 1344 005c 0F93     		str	r3, [sp, #60]
 221:Core/Src/main.c ****   RCC_OscInitStruct.PLL.PLLN = 336;
 1345              		.loc 1 221 3 is_stmt 1 view .LVU346
 221:Core/Src/main.c ****   RCC_OscInitStruct.PLL.PLLN = 336;
 1346              		.loc 1 221 30 is_stmt 0 view .LVU347
 1347 005e 1923     		movs	r3, #25
 1348 0060 1093     		str	r3, [sp, #64]
 222:Core/Src/main.c ****   RCC_OscInitStruct.PLL.PLLP = RCC_PLLP_DIV4;
 1349              		.loc 1 222 3 is_stmt 1 view .LVU348
 222:Core/Src/main.c ****   RCC_OscInitStruct.PLL.PLLP = RCC_PLLP_DIV4;
 1350              		.loc 1 222 30 is_stmt 0 view .LVU349
 1351 0062 4FF4A873 		mov	r3, #336
 1352 0066 1193     		str	r3, [sp, #68]
 223:Core/Src/main.c ****   RCC_OscInitStruct.PLL.PLLQ = 7;
 1353              		.loc 1 223 3 is_stmt 1 view .LVU350
 223:Core/Src/main.c ****   RCC_OscInitStruct.PLL.PLLQ = 7;
 1354              		.loc 1 223 30 is_stmt 0 view .LVU351
 1355 0068 0423     		movs	r3, #4
 1356 006a 1293     		str	r3, [sp, #72]
 224:Core/Src/main.c ****   if (HAL_RCC_OscConfig(&RCC_OscInitStruct) != HAL_OK)
 1357              		.loc 1 224 3 is_stmt 1 view .LVU352
 224:Core/Src/main.c ****   if (HAL_RCC_OscConfig(&RCC_OscInitStruct) != HAL_OK)
 1358              		.loc 1 224 30 is_stmt 0 view .LVU353
 1359 006c 0723     		movs	r3, #7
 1360 006e 1393     		str	r3, [sp, #76]
 225:Core/Src/main.c ****   {
 1361              		.loc 1 225 3 is_stmt 1 view .LVU354
 225:Core/Src/main.c ****   {
 1362              		.loc 1 225 7 is_stmt 0 view .LVU355
 1363 0070 08A8     		add	r0, sp, #32
 1364 0072 FFF7FEFF 		bl	HAL_RCC_OscConfig
 1365              	.LVL77:
 225:Core/Src/main.c ****   {
 1366              		.loc 1 225 6 view .LVU356
 1367 0076 80B9     		cbnz	r0, .L70
 232:Core/Src/main.c ****                               |RCC_CLOCKTYPE_PCLK1|RCC_CLOCKTYPE_PCLK2;
 1368              		.loc 1 232 3 is_stmt 1 view .LVU357
 232:Core/Src/main.c ****                               |RCC_CLOCKTYPE_PCLK1|RCC_CLOCKTYPE_PCLK2;
 1369              		.loc 1 232 31 is_stmt 0 view .LVU358
 1370 0078 0F23     		movs	r3, #15
 1371 007a 0393     		str	r3, [sp, #12]
 234:Core/Src/main.c ****   RCC_ClkInitStruct.AHBCLKDivider = RCC_SYSCLK_DIV1;
 1372              		.loc 1 234 3 is_stmt 1 view .LVU359
 234:Core/Src/main.c ****   RCC_ClkInitStruct.AHBCLKDivider = RCC_SYSCLK_DIV1;
 1373              		.loc 1 234 34 is_stmt 0 view .LVU360
 1374 007c 0221     		movs	r1, #2
 1375 007e 0491     		str	r1, [sp, #16]
 235:Core/Src/main.c ****   RCC_ClkInitStruct.APB1CLKDivider = RCC_HCLK_DIV2;
 1376              		.loc 1 235 3 is_stmt 1 view .LVU361
 235:Core/Src/main.c ****   RCC_ClkInitStruct.APB1CLKDivider = RCC_HCLK_DIV2;
 1377              		.loc 1 235 35 is_stmt 0 view .LVU362
 1378 0080 0023     		movs	r3, #0
 1379 0082 0593     		str	r3, [sp, #20]
 236:Core/Src/main.c ****   RCC_ClkInitStruct.APB2CLKDivider = RCC_HCLK_DIV1;
 1380              		.loc 1 236 3 is_stmt 1 view .LVU363
ARM GAS  C:\Users\jdcox\AppData\Local\Temp\ccPJHbOo.s 			page 45


 236:Core/Src/main.c ****   RCC_ClkInitStruct.APB2CLKDivider = RCC_HCLK_DIV1;
 1381              		.loc 1 236 36 is_stmt 0 view .LVU364
 1382 0084 4FF48052 		mov	r2, #4096
 1383 0088 0692     		str	r2, [sp, #24]
 237:Core/Src/main.c **** 
 1384              		.loc 1 237 3 is_stmt 1 view .LVU365
 237:Core/Src/main.c **** 
 1385              		.loc 1 237 36 is_stmt 0 view .LVU366
 1386 008a 0793     		str	r3, [sp, #28]
 239:Core/Src/main.c ****   {
 1387              		.loc 1 239 3 is_stmt 1 view .LVU367
 239:Core/Src/main.c ****   {
 1388              		.loc 1 239 7 is_stmt 0 view .LVU368
 1389 008c 03A8     		add	r0, sp, #12
 1390 008e FFF7FEFF 		bl	HAL_RCC_ClockConfig
 1391              	.LVL78:
 239:Core/Src/main.c ****   {
 1392              		.loc 1 239 6 view .LVU369
 1393 0092 20B9     		cbnz	r0, .L71
 243:Core/Src/main.c **** 
 1394              		.loc 1 243 1 view .LVU370
 1395 0094 15B0     		add	sp, sp, #84
 1396              	.LCFI17:
 1397              		.cfi_remember_state
 1398              		.cfi_def_cfa_offset 4
 1399              		@ sp needed
 1400 0096 5DF804FB 		ldr	pc, [sp], #4
 1401              	.L70:
 1402              	.LCFI18:
 1403              		.cfi_restore_state
 227:Core/Src/main.c ****   }
 1404              		.loc 1 227 5 is_stmt 1 view .LVU371
 1405 009a FFF7FEFF 		bl	Error_Handler
 1406              	.LVL79:
 1407              	.L71:
 241:Core/Src/main.c ****   }
 1408              		.loc 1 241 5 view .LVU372
 1409 009e FFF7FEFF 		bl	Error_Handler
 1410              	.LVL80:
 1411              	.L73:
 1412 00a2 00BF     		.align	2
 1413              	.L72:
 1414 00a4 00380240 		.word	1073887232
 1415 00a8 00700040 		.word	1073770496
 1416              		.cfi_endproc
 1417              	.LFE139:
 1419              		.section	.text.main,"ax",%progbits
 1420              		.align	1
 1421              		.global	main
 1422              		.syntax unified
 1423              		.thumb
 1424              		.thumb_func
 1426              	main:
 1427              	.LFB138:
  99:Core/Src/main.c ****   /* USER CODE BEGIN 1 */
 1428              		.loc 1 99 1 view -0
 1429              		.cfi_startproc
ARM GAS  C:\Users\jdcox\AppData\Local\Temp\ccPJHbOo.s 			page 46


 1430              		@ Volatile: function does not return.
 1431              		@ args = 0, pretend = 0, frame = 80
 1432              		@ frame_needed = 0, uses_anonymous_args = 0
 1433 0000 00B5     		push	{lr}
 1434              	.LCFI19:
 1435              		.cfi_def_cfa_offset 4
 1436              		.cfi_offset 14, -4
 1437 0002 95B0     		sub	sp, sp, #84
 1438              	.LCFI20:
 1439              		.cfi_def_cfa_offset 88
 107:Core/Src/main.c **** 
 1440              		.loc 1 107 3 view .LVU374
 1441 0004 FFF7FEFF 		bl	HAL_Init
 1442              	.LVL81:
 114:Core/Src/main.c **** 
 1443              		.loc 1 114 3 view .LVU375
 1444 0008 FFF7FEFF 		bl	SystemClock_Config
 1445              	.LVL82:
 121:Core/Src/main.c ****   MX_DMA_Init();
 1446              		.loc 1 121 3 view .LVU376
 1447 000c FFF7FEFF 		bl	MX_GPIO_Init
 1448              	.LVL83:
 122:Core/Src/main.c ****   MX_SPI1_Init();
 1449              		.loc 1 122 3 view .LVU377
 1450 0010 FFF7FEFF 		bl	MX_DMA_Init
 1451              	.LVL84:
 123:Core/Src/main.c ****   MX_I2C1_Init();
 1452              		.loc 1 123 3 view .LVU378
 1453 0014 FFF7FEFF 		bl	MX_SPI1_Init
 1454              	.LVL85:
 124:Core/Src/main.c ****   /* USER CODE BEGIN 2 */
 1455              		.loc 1 124 3 view .LVU379
 1456 0018 FFF7FEFF 		bl	MX_I2C1_Init
 1457              	.LVL86:
 139:Core/Src/main.c **** 
 1458              		.loc 1 139 3 view .LVU380
 139:Core/Src/main.c **** 
 1459              		.loc 1 139 16 is_stmt 0 view .LVU381
 1460 001c 0120     		movs	r0, #1
 1461 001e FFF7FEFF 		bl	xQueueCreateMutex
 1462              	.LVL87:
 139:Core/Src/main.c **** 
 1463              		.loc 1 139 14 view .LVU382
 1464 0022 244B     		ldr	r3, .L77
 1465 0024 1860     		str	r0, [r3]
 149:Core/Src/main.c ****   msTickHandle = osTimerCreate(osTimer(msTick), osTimerPeriodic, NULL);
 1466              		.loc 1 149 3 is_stmt 1 view .LVU383
 1467 0026 244B     		ldr	r3, .L77+4
 1468 0028 1293     		str	r3, [sp, #72]
 1469 002a 0025     		movs	r5, #0
 1470 002c 1395     		str	r5, [sp, #76]
 150:Core/Src/main.c **** 
 1471              		.loc 1 150 3 view .LVU384
 150:Core/Src/main.c **** 
 1472              		.loc 1 150 18 is_stmt 0 view .LVU385
 1473 002e 2A46     		mov	r2, r5
 1474 0030 0121     		movs	r1, #1
ARM GAS  C:\Users\jdcox\AppData\Local\Temp\ccPJHbOo.s 			page 47


 1475 0032 12A8     		add	r0, sp, #72
 1476 0034 FFF7FEFF 		bl	osTimerCreate
 1477              	.LVL88:
 150:Core/Src/main.c **** 
 1478              		.loc 1 150 16 view .LVU386
 1479 0038 204B     		ldr	r3, .L77+8
 1480 003a 1860     		str	r0, [r3]
 153:Core/Src/main.c ****   debounceTimerHandle = osTimerCreate(osTimer(debounceTimer), osTimerOnce, NULL);
 1481              		.loc 1 153 3 is_stmt 1 view .LVU387
 1482 003c 204B     		ldr	r3, .L77+12
 1483 003e 1093     		str	r3, [sp, #64]
 1484 0040 1195     		str	r5, [sp, #68]
 154:Core/Src/main.c **** 
 1485              		.loc 1 154 3 view .LVU388
 154:Core/Src/main.c **** 
 1486              		.loc 1 154 25 is_stmt 0 view .LVU389
 1487 0042 2A46     		mov	r2, r5
 1488 0044 2946     		mov	r1, r5
 1489 0046 10A8     		add	r0, sp, #64
 1490 0048 FFF7FEFF 		bl	osTimerCreate
 1491              	.LVL89:
 154:Core/Src/main.c **** 
 1492              		.loc 1 154 23 view .LVU390
 1493 004c 1D4B     		ldr	r3, .L77+16
 1494 004e 1860     		str	r0, [r3]
 157:Core/Src/main.c ****   blinkTimerHandle = osTimerCreate(osTimer(blinkTimer), osTimerOnce, NULL);
 1495              		.loc 1 157 3 is_stmt 1 view .LVU391
 1496 0050 1D4B     		ldr	r3, .L77+20
 1497 0052 0E93     		str	r3, [sp, #56]
 1498 0054 0F95     		str	r5, [sp, #60]
 158:Core/Src/main.c **** 
 1499              		.loc 1 158 3 view .LVU392
 158:Core/Src/main.c **** 
 1500              		.loc 1 158 22 is_stmt 0 view .LVU393
 1501 0056 2A46     		mov	r2, r5
 1502 0058 2946     		mov	r1, r5
 1503 005a 0EA8     		add	r0, sp, #56
 1504 005c FFF7FEFF 		bl	osTimerCreate
 1505              	.LVL90:
 158:Core/Src/main.c **** 
 1506              		.loc 1 158 20 view .LVU394
 1507 0060 1A4B     		ldr	r3, .L77+24
 1508 0062 1860     		str	r0, [r3]
 171:Core/Src/main.c ****   defaultTaskHandle = osThreadCreate(osThread(defaultTask), NULL);
 1509              		.loc 1 171 3 is_stmt 1 view .LVU395
 1510 0064 1A4C     		ldr	r4, .L77+28
 1511 0066 0DF11C0C 		add	ip, sp, #28
 1512 006a 04F11C0E 		add	lr, r4, #28
 1513 006e BEE80F00 		ldmia	lr!, {r0, r1, r2, r3}
 1514 0072 ACE80F00 		stmia	ip!, {r0, r1, r2, r3}
 1515 0076 9EE80700 		ldm	lr, {r0, r1, r2}
 1516 007a 8CE80700 		stm	ip, {r0, r1, r2}
 172:Core/Src/main.c **** 
 1517              		.loc 1 172 3 view .LVU396
 172:Core/Src/main.c **** 
 1518              		.loc 1 172 23 is_stmt 0 view .LVU397
 1519 007e 2946     		mov	r1, r5
ARM GAS  C:\Users\jdcox\AppData\Local\Temp\ccPJHbOo.s 			page 48


 1520 0080 07A8     		add	r0, sp, #28
 1521 0082 FFF7FEFF 		bl	osThreadCreate
 1522              	.LVL91:
 172:Core/Src/main.c **** 
 1523              		.loc 1 172 21 view .LVU398
 1524 0086 134B     		ldr	r3, .L77+32
 1525 0088 1860     		str	r0, [r3]
 178:Core/Src/main.c ****   displayTaskHandle = osThreadCreate(osThread(displayTask), NULL);
 1526              		.loc 1 178 3 is_stmt 1 view .LVU399
 1527 008a EE46     		mov	lr, sp
 1528 008c 04F1380C 		add	ip, r4, #56
 1529 0090 BCE80F00 		ldmia	ip!, {r0, r1, r2, r3}
 1530 0094 AEE80F00 		stmia	lr!, {r0, r1, r2, r3}
 1531 0098 9CE80700 		ldm	ip, {r0, r1, r2}
 1532 009c 8EE80700 		stm	lr, {r0, r1, r2}
 179:Core/Src/main.c **** 
 1533              		.loc 1 179 3 view .LVU400
 179:Core/Src/main.c **** 
 1534              		.loc 1 179 23 is_stmt 0 view .LVU401
 1535 00a0 2946     		mov	r1, r5
 1536 00a2 6846     		mov	r0, sp
 1537 00a4 FFF7FEFF 		bl	osThreadCreate
 1538              	.LVL92:
 179:Core/Src/main.c **** 
 1539              		.loc 1 179 21 view .LVU402
 1540 00a8 0B4B     		ldr	r3, .L77+36
 1541 00aa 1860     		str	r0, [r3]
 186:Core/Src/main.c **** 
 1542              		.loc 1 186 3 is_stmt 1 view .LVU403
 1543 00ac FFF7FEFF 		bl	osKernelStart
 1544              	.LVL93:
 1545              	.L75:
 191:Core/Src/main.c ****   {
 1546              		.loc 1 191 3 discriminator 1 view .LVU404
 196:Core/Src/main.c ****   /* USER CODE END 3 */
 1547              		.loc 1 196 3 discriminator 1 view .LVU405
 191:Core/Src/main.c ****   {
 1548              		.loc 1 191 9 discriminator 1 view .LVU406
 1549 00b0 FEE7     		b	.L75
 1550              	.L78:
 1551 00b2 00BF     		.align	2
 1552              	.L77:
 1553 00b4 00000000 		.word	.LANCHOR6
 1554 00b8 00000000 		.word	msTickCallback
 1555 00bc 00000000 		.word	.LANCHOR2
 1556 00c0 00000000 		.word	debounceCallback
 1557 00c4 00000000 		.word	.LANCHOR7
 1558 00c8 00000000 		.word	blinkTimerCallback
 1559 00cc 00000000 		.word	.LANCHOR8
 1560 00d0 00000000 		.word	.LANCHOR0
 1561 00d4 00000000 		.word	.LANCHOR9
 1562 00d8 00000000 		.word	.LANCHOR10
 1563              		.cfi_endproc
 1564              	.LFE138:
 1566              		.section	.rodata.str1.4,"aMS",%progbits,1
 1567              		.align	2
 1568              	.LC4:
ARM GAS  C:\Users\jdcox\AppData\Local\Temp\ccPJHbOo.s 			page 49


 1569 0000 6C6F7261 		.ascii	"loraTask\000"
 1569      5461736B 
 1569      00
 1570 0009 000000   		.align	2
 1571              	.LC2:
 1572 000c 64697370 		.ascii	"displayTask\000"
 1572      6C617954 
 1572      61736B00 
 1573              		.align	2
 1574              	.LC0:
 1575 0018 64656661 		.ascii	"defaultTask\000"
 1575      756C7454 
 1575      61736B00 
 1576              		.global	myLoRa
 1577              		.global	xloraMutex
 1578              		.global	lora_mutexHandle
 1579              		.global	blinkTimerHandle
 1580              		.global	debounceTimerHandle
 1581              		.global	msTickHandle
 1582              		.global	displayTaskHandle
 1583              		.global	loraTaskHandle
 1584              		.global	defaultTaskHandle
 1585              		.global	hdma_spi1_rx
 1586              		.global	hdma_spi1_tx
 1587              		.global	hspi1
 1588              		.global	hdma_i2c1_tx
 1589              		.global	hi2c1
 1590              		.section	.rodata
 1591              		.align	2
 1592              		.set	.LANCHOR0,. + 0
 1593              	.LC6:
 1594 0000 00000000 		.word	.LC4
 1595 0004 00000000 		.word	StartLoraTask
 1596 0008 0100     		.short	1
 1597 000a 0000     		.space	2
 1598 000c 00000000 		.word	0
 1599 0010 80000000 		.word	128
 1600 0014 00000000 		.word	0
 1601 0018 00000000 		.word	0
 1602              	.LC12:
 1603 001c 18000000 		.word	.LC0
 1604 0020 00000000 		.word	StartDefaultTask
 1605 0024 0000     		.short	0
 1606 0026 0000     		.space	2
 1607 0028 00000000 		.word	0
 1608 002c 80000000 		.word	128
 1609 0030 00000000 		.word	0
 1610 0034 00000000 		.word	0
 1611              	.LC13:
 1612 0038 0C000000 		.word	.LC2
 1613 003c 00000000 		.word	StartDisplayTask
 1614 0040 0000     		.short	0
 1615 0042 0000     		.space	2
 1616 0044 00000000 		.word	0
 1617 0048 80000000 		.word	128
 1618 004c 00000000 		.word	0
 1619 0050 00000000 		.word	0
ARM GAS  C:\Users\jdcox\AppData\Local\Temp\ccPJHbOo.s 			page 50


 1620              		.section	.bss.blinkTimerHandle,"aw",%nobits
 1621              		.align	2
 1622              		.set	.LANCHOR8,. + 0
 1625              	blinkTimerHandle:
 1626 0000 00000000 		.space	4
 1627              		.section	.bss.debounceTimerHandle,"aw",%nobits
 1628              		.align	2
 1629              		.set	.LANCHOR7,. + 0
 1632              	debounceTimerHandle:
 1633 0000 00000000 		.space	4
 1634              		.section	.bss.defaultTaskHandle,"aw",%nobits
 1635              		.align	2
 1636              		.set	.LANCHOR9,. + 0
 1639              	defaultTaskHandle:
 1640 0000 00000000 		.space	4
 1641              		.section	.bss.displayTaskHandle,"aw",%nobits
 1642              		.align	2
 1643              		.set	.LANCHOR10,. + 0
 1646              	displayTaskHandle:
 1647 0000 00000000 		.space	4
 1648              		.section	.bss.hdma_i2c1_tx,"aw",%nobits
 1649              		.align	2
 1652              	hdma_i2c1_tx:
 1653 0000 00000000 		.space	96
 1653      00000000 
 1653      00000000 
 1653      00000000 
 1653      00000000 
 1654              		.section	.bss.hdma_spi1_rx,"aw",%nobits
 1655              		.align	2
 1658              	hdma_spi1_rx:
 1659 0000 00000000 		.space	96
 1659      00000000 
 1659      00000000 
 1659      00000000 
 1659      00000000 
 1660              		.section	.bss.hdma_spi1_tx,"aw",%nobits
 1661              		.align	2
 1664              	hdma_spi1_tx:
 1665 0000 00000000 		.space	96
 1665      00000000 
 1665      00000000 
 1665      00000000 
 1665      00000000 
 1666              		.section	.bss.hi2c1,"aw",%nobits
 1667              		.align	2
 1668              		.set	.LANCHOR5,. + 0
 1671              	hi2c1:
 1672 0000 00000000 		.space	84
 1672      00000000 
 1672      00000000 
 1672      00000000 
 1672      00000000 
 1673              		.section	.bss.hspi1,"aw",%nobits
 1674              		.align	2
 1675              		.set	.LANCHOR4,. + 0
 1678              	hspi1:
ARM GAS  C:\Users\jdcox\AppData\Local\Temp\ccPJHbOo.s 			page 51


 1679 0000 00000000 		.space	88
 1679      00000000 
 1679      00000000 
 1679      00000000 
 1679      00000000 
 1680              		.section	.bss.loraTaskHandle,"aw",%nobits
 1681              		.align	2
 1682              		.set	.LANCHOR1,. + 0
 1685              	loraTaskHandle:
 1686 0000 00000000 		.space	4
 1687              		.section	.bss.lora_mutexHandle,"aw",%nobits
 1688              		.align	2
 1691              	lora_mutexHandle:
 1692 0000 00000000 		.space	4
 1693              		.section	.bss.msTickHandle,"aw",%nobits
 1694              		.align	2
 1695              		.set	.LANCHOR2,. + 0
 1698              	msTickHandle:
 1699 0000 00000000 		.space	4
 1700              		.section	.bss.myLoRa,"aw",%nobits
 1701              		.align	2
 1702              		.set	.LANCHOR3,. + 0
 1705              	myLoRa:
 1706 0000 00000000 		.space	44
 1706      00000000 
 1706      00000000 
 1706      00000000 
 1706      00000000 
 1707              		.section	.bss.xloraMutex,"aw",%nobits
 1708              		.align	2
 1709              		.set	.LANCHOR6,. + 0
 1712              	xloraMutex:
 1713 0000 00000000 		.space	4
 1714              		.text
 1715              	.Letext0:
 1716              		.file 3 "Drivers/CMSIS/Device/ST/STM32F4xx/Include/stm32f401xc.h"
 1717              		.file 4 "c:\\libraries\\gcc\\11.2 2022.02\\arm-none-eabi\\include\\machine\\_default_types.h"
 1718              		.file 5 "c:\\libraries\\gcc\\11.2 2022.02\\arm-none-eabi\\include\\sys\\_stdint.h"
 1719              		.file 6 "Drivers/CMSIS/Device/ST/STM32F4xx/Include/stm32f4xx.h"
 1720              		.file 7 "Drivers/STM32F4xx_HAL_Driver/Inc/stm32f4xx_hal_def.h"
 1721              		.file 8 "Drivers/STM32F4xx_HAL_Driver/Inc/stm32f4xx_hal_rcc_ex.h"
 1722              		.file 9 "Drivers/STM32F4xx_HAL_Driver/Inc/stm32f4xx_hal_rcc.h"
 1723              		.file 10 "Drivers/STM32F4xx_HAL_Driver/Inc/stm32f4xx_hal_gpio.h"
 1724              		.file 11 "Drivers/STM32F4xx_HAL_Driver/Inc/stm32f4xx_hal_dma.h"
 1725              		.file 12 "Drivers/STM32F4xx_HAL_Driver/Inc/stm32f4xx_hal_i2c.h"
 1726              		.file 13 "Drivers/STM32F4xx_HAL_Driver/Inc/stm32f4xx_hal_spi.h"
 1727              		.file 14 "Drivers/STM32F4xx_HAL_Driver/Inc/stm32f4xx_hal_tim.h"
 1728              		.file 15 "Middlewares/Third_Party/FreeRTOS/Source/include/projdefs.h"
 1729              		.file 16 "Middlewares/Third_Party/FreeRTOS/Source/portable/GCC/ARM_CM4F/portmacro.h"
 1730              		.file 17 "Middlewares/Third_Party/FreeRTOS/Source/include/FreeRTOS.h"
 1731              		.file 18 "Middlewares/Third_Party/FreeRTOS/Source/include/task.h"
 1732              		.file 19 "Middlewares/Third_Party/FreeRTOS/Source/include/timers.h"
 1733              		.file 20 "Middlewares/Third_Party/FreeRTOS/Source/include/queue.h"
 1734              		.file 21 "Middlewares/Third_Party/FreeRTOS/Source/include/semphr.h"
 1735              		.file 22 "Middlewares/Third_Party/FreeRTOS/Source/CMSIS_RTOS/cmsis_os.h"
 1736              		.file 23 "Core/Inc/lora.h"
 1737              		.file 24 "Core/Inc/extern.h"
ARM GAS  C:\Users\jdcox\AppData\Local\Temp\ccPJHbOo.s 			page 52


 1738              		.file 25 "Core/Inc/ssd1306_fonts.h"
 1739              		.file 26 "Core/Inc/ssd1306.h"
 1740              		.file 27 "c:\\libraries\\gcc\\11.2 2022.02\\arm-none-eabi\\include\\stdio.h"
 1741              		.file 28 "Drivers/STM32F4xx_HAL_Driver/Inc/stm32f4xx_hal.h"
 1742              		.file 29 "Drivers/STM32F4xx_HAL_Driver/Inc/stm32f4xx_hal_cortex.h"
 1743              		.file 30 "<built-in>"
ARM GAS  C:\Users\jdcox\AppData\Local\Temp\ccPJHbOo.s 			page 53


DEFINED SYMBOLS
                            *ABS*:00000000 main.c
C:\Users\jdcox\AppData\Local\Temp\ccPJHbOo.s:20     .text.debounceCallback:00000000 $t
C:\Users\jdcox\AppData\Local\Temp\ccPJHbOo.s:26     .text.debounceCallback:00000000 debounceCallback
C:\Users\jdcox\AppData\Local\Temp\ccPJHbOo.s:45     .text.debounceCallback:00000008 $d
C:\Users\jdcox\AppData\Local\Temp\ccPJHbOo.s:50     .text.blinkTimerCallback:00000000 $t
C:\Users\jdcox\AppData\Local\Temp\ccPJHbOo.s:56     .text.blinkTimerCallback:00000000 blinkTimerCallback
C:\Users\jdcox\AppData\Local\Temp\ccPJHbOo.s:70     .text.msTickCallback:00000000 $t
C:\Users\jdcox\AppData\Local\Temp\ccPJHbOo.s:76     .text.msTickCallback:00000000 msTickCallback
C:\Users\jdcox\AppData\Local\Temp\ccPJHbOo.s:229    .text.msTickCallback:000000a4 $d
C:\Users\jdcox\AppData\Local\Temp\ccPJHbOo.s:243    .text.MX_GPIO_Init:00000000 $t
C:\Users\jdcox\AppData\Local\Temp\ccPJHbOo.s:248    .text.MX_GPIO_Init:00000000 MX_GPIO_Init
C:\Users\jdcox\AppData\Local\Temp\ccPJHbOo.s:455    .text.MX_GPIO_Init:000000f8 $d
C:\Users\jdcox\AppData\Local\Temp\ccPJHbOo.s:463    .text.MX_DMA_Init:00000000 $t
C:\Users\jdcox\AppData\Local\Temp\ccPJHbOo.s:468    .text.MX_DMA_Init:00000000 MX_DMA_Init
C:\Users\jdcox\AppData\Local\Temp\ccPJHbOo.s:555    .text.MX_DMA_Init:00000064 $d
C:\Users\jdcox\AppData\Local\Temp\ccPJHbOo.s:560    .text.StartDisplayTask:00000000 $t
C:\Users\jdcox\AppData\Local\Temp\ccPJHbOo.s:566    .text.StartDisplayTask:00000000 StartDisplayTask
C:\Users\jdcox\AppData\Local\Temp\ccPJHbOo.s:593    .rodata.StartDefaultTask.str1.4:00000000 $d
C:\Users\jdcox\AppData\Local\Temp\ccPJHbOo.s:606    .text.StartDefaultTask:00000000 $t
C:\Users\jdcox\AppData\Local\Temp\ccPJHbOo.s:612    .text.StartDefaultTask:00000000 StartDefaultTask
C:\Users\jdcox\AppData\Local\Temp\ccPJHbOo.s:815    .text.StartDefaultTask:00000124 $d
C:\Users\jdcox\AppData\Local\Temp\ccPJHbOo.s:832    .rodata.StartLoraTask.str1.4:00000000 $d
C:\Users\jdcox\AppData\Local\Temp\ccPJHbOo.s:836    .text.StartLoraTask:00000000 $t
C:\Users\jdcox\AppData\Local\Temp\ccPJHbOo.s:842    .text.StartLoraTask:00000000 StartLoraTask
C:\Users\jdcox\AppData\Local\Temp\ccPJHbOo.s:1010   .text.StartLoraTask:000000d0 $d
C:\Users\jdcox\AppData\Local\Temp\ccPJHbOo.s:1026   .text.HAL_TIM_PeriodElapsedCallback:00000000 $t
C:\Users\jdcox\AppData\Local\Temp\ccPJHbOo.s:1032   .text.HAL_TIM_PeriodElapsedCallback:00000000 HAL_TIM_PeriodElapsedCallback
C:\Users\jdcox\AppData\Local\Temp\ccPJHbOo.s:1066   .text.HAL_TIM_PeriodElapsedCallback:00000014 $d
C:\Users\jdcox\AppData\Local\Temp\ccPJHbOo.s:1071   .text.Error_Handler:00000000 $t
C:\Users\jdcox\AppData\Local\Temp\ccPJHbOo.s:1077   .text.Error_Handler:00000000 Error_Handler
C:\Users\jdcox\AppData\Local\Temp\ccPJHbOo.s:1109   .text.MX_SPI1_Init:00000000 $t
C:\Users\jdcox\AppData\Local\Temp\ccPJHbOo.s:1114   .text.MX_SPI1_Init:00000000 MX_SPI1_Init
C:\Users\jdcox\AppData\Local\Temp\ccPJHbOo.s:1183   .text.MX_SPI1_Init:00000038 $d
C:\Users\jdcox\AppData\Local\Temp\ccPJHbOo.s:1189   .text.MX_I2C1_Init:00000000 $t
C:\Users\jdcox\AppData\Local\Temp\ccPJHbOo.s:1194   .text.MX_I2C1_Init:00000000 MX_I2C1_Init
C:\Users\jdcox\AppData\Local\Temp\ccPJHbOo.s:1253   .text.MX_I2C1_Init:00000030 $d
C:\Users\jdcox\AppData\Local\Temp\ccPJHbOo.s:1260   .text.SystemClock_Config:00000000 $t
C:\Users\jdcox\AppData\Local\Temp\ccPJHbOo.s:1266   .text.SystemClock_Config:00000000 SystemClock_Config
C:\Users\jdcox\AppData\Local\Temp\ccPJHbOo.s:1414   .text.SystemClock_Config:000000a4 $d
C:\Users\jdcox\AppData\Local\Temp\ccPJHbOo.s:1420   .text.main:00000000 $t
C:\Users\jdcox\AppData\Local\Temp\ccPJHbOo.s:1426   .text.main:00000000 main
C:\Users\jdcox\AppData\Local\Temp\ccPJHbOo.s:1553   .text.main:000000b4 $d
C:\Users\jdcox\AppData\Local\Temp\ccPJHbOo.s:1567   .rodata.str1.4:00000000 $d
C:\Users\jdcox\AppData\Local\Temp\ccPJHbOo.s:1705   .bss.myLoRa:00000000 myLoRa
C:\Users\jdcox\AppData\Local\Temp\ccPJHbOo.s:1712   .bss.xloraMutex:00000000 xloraMutex
C:\Users\jdcox\AppData\Local\Temp\ccPJHbOo.s:1691   .bss.lora_mutexHandle:00000000 lora_mutexHandle
C:\Users\jdcox\AppData\Local\Temp\ccPJHbOo.s:1625   .bss.blinkTimerHandle:00000000 blinkTimerHandle
C:\Users\jdcox\AppData\Local\Temp\ccPJHbOo.s:1632   .bss.debounceTimerHandle:00000000 debounceTimerHandle
C:\Users\jdcox\AppData\Local\Temp\ccPJHbOo.s:1698   .bss.msTickHandle:00000000 msTickHandle
C:\Users\jdcox\AppData\Local\Temp\ccPJHbOo.s:1646   .bss.displayTaskHandle:00000000 displayTaskHandle
C:\Users\jdcox\AppData\Local\Temp\ccPJHbOo.s:1685   .bss.loraTaskHandle:00000000 loraTaskHandle
C:\Users\jdcox\AppData\Local\Temp\ccPJHbOo.s:1639   .bss.defaultTaskHandle:00000000 defaultTaskHandle
C:\Users\jdcox\AppData\Local\Temp\ccPJHbOo.s:1658   .bss.hdma_spi1_rx:00000000 hdma_spi1_rx
C:\Users\jdcox\AppData\Local\Temp\ccPJHbOo.s:1664   .bss.hdma_spi1_tx:00000000 hdma_spi1_tx
C:\Users\jdcox\AppData\Local\Temp\ccPJHbOo.s:1678   .bss.hspi1:00000000 hspi1
C:\Users\jdcox\AppData\Local\Temp\ccPJHbOo.s:1652   .bss.hdma_i2c1_tx:00000000 hdma_i2c1_tx
ARM GAS  C:\Users\jdcox\AppData\Local\Temp\ccPJHbOo.s 			page 54


C:\Users\jdcox\AppData\Local\Temp\ccPJHbOo.s:1671   .bss.hi2c1:00000000 hi2c1
C:\Users\jdcox\AppData\Local\Temp\ccPJHbOo.s:1591   .rodata:00000000 $d
C:\Users\jdcox\AppData\Local\Temp\ccPJHbOo.s:1621   .bss.blinkTimerHandle:00000000 $d
C:\Users\jdcox\AppData\Local\Temp\ccPJHbOo.s:1628   .bss.debounceTimerHandle:00000000 $d
C:\Users\jdcox\AppData\Local\Temp\ccPJHbOo.s:1635   .bss.defaultTaskHandle:00000000 $d
C:\Users\jdcox\AppData\Local\Temp\ccPJHbOo.s:1642   .bss.displayTaskHandle:00000000 $d
C:\Users\jdcox\AppData\Local\Temp\ccPJHbOo.s:1649   .bss.hdma_i2c1_tx:00000000 $d
C:\Users\jdcox\AppData\Local\Temp\ccPJHbOo.s:1655   .bss.hdma_spi1_rx:00000000 $d
C:\Users\jdcox\AppData\Local\Temp\ccPJHbOo.s:1661   .bss.hdma_spi1_tx:00000000 $d
C:\Users\jdcox\AppData\Local\Temp\ccPJHbOo.s:1667   .bss.hi2c1:00000000 $d
C:\Users\jdcox\AppData\Local\Temp\ccPJHbOo.s:1674   .bss.hspi1:00000000 $d
C:\Users\jdcox\AppData\Local\Temp\ccPJHbOo.s:1681   .bss.loraTaskHandle:00000000 $d
C:\Users\jdcox\AppData\Local\Temp\ccPJHbOo.s:1688   .bss.lora_mutexHandle:00000000 $d
C:\Users\jdcox\AppData\Local\Temp\ccPJHbOo.s:1694   .bss.msTickHandle:00000000 $d
C:\Users\jdcox\AppData\Local\Temp\ccPJHbOo.s:1701   .bss.myLoRa:00000000 $d
C:\Users\jdcox\AppData\Local\Temp\ccPJHbOo.s:1708   .bss.xloraMutex:00000000 $d

UNDEFINED SYMBOLS
debouncing_Flag
HAL_GPIO_WritePin
red_flag
blue_flag
redLED_flag
redLED_timer
blueLED_flag
blueLED_timer
red_counter
gameState
blue_counter
HAL_GPIO_Init
HAL_NVIC_SetPriority
HAL_NVIC_EnableIRQ
osDelay
osThreadCreate
HAL_GPIO_ReadPin
ssd1306_Init
ssd1306_SetCursor
ssd1306_WriteString
ssd1306_UpdateScreen
ssd1306_Fill
resetGame
osTimerStart
decodeKOTHPacket
doGameState
THIS_PLAYER
OTHER_PLAYER
Font_16x24
newRX_flag
newLoRa
LoRa_init
sprintf
LoRa_startReceiving
LoRa_transmit
LoRa_receive
opcodeString
rxCount
txCount
ARM GAS  C:\Users\jdcox\AppData\Local\Temp\ccPJHbOo.s 			page 55


newTX_flag
loraRXbuf
packet_size
receivedPacket
HAL_IncTick
HAL_SPI_Init
HAL_I2C_Init
memset
HAL_RCC_OscConfig
HAL_RCC_ClockConfig
HAL_Init
xQueueCreateMutex
osTimerCreate
osKernelStart
