ARM GAS  C:\Users\jdcox\AppData\Local\Temp\cczPUCDJ.s 			page 1


   1              		.cpu cortex-m4
   2              		.arch armv7e-m
   3              		.fpu fpv4-sp-d16
   4              		.eabi_attribute 27, 1
   5              		.eabi_attribute 28, 1
   6              		.eabi_attribute 20, 1
   7              		.eabi_attribute 21, 1
   8              		.eabi_attribute 23, 3
   9              		.eabi_attribute 24, 1
  10              		.eabi_attribute 25, 1
  11              		.eabi_attribute 26, 1
  12              		.eabi_attribute 30, 1
  13              		.eabi_attribute 34, 1
  14              		.eabi_attribute 18, 4
  15              		.file	"main.c"
  16              		.text
  17              	.Ltext0:
  18              		.cfi_sections	.debug_frame
  19              		.section	.text.msTickCallback,"ax",%progbits
  20              		.align	1
  21              		.global	msTickCallback
  22              		.syntax unified
  23              		.thumb
  24              		.thumb_func
  26              	msTickCallback:
  27              	.LVL0:
  28              	.LFB147:
  29              		.file 1 "Core/Src/main.c"
   1:Core/Src/main.c **** /* USER CODE BEGIN Header */
   2:Core/Src/main.c **** /**
   3:Core/Src/main.c ****   ******************************************************************************
   4:Core/Src/main.c ****   * @file           : main.c
   5:Core/Src/main.c ****   * @brief          : Main program body
   6:Core/Src/main.c ****   ******************************************************************************
   7:Core/Src/main.c ****   * @attention
   8:Core/Src/main.c ****   *
   9:Core/Src/main.c ****   * Copyright (c) 2024 STMicroelectronics.
  10:Core/Src/main.c ****   * All rights reserved.
  11:Core/Src/main.c ****   *
  12:Core/Src/main.c ****   * This software is licensed under terms that can be found in the LICENSE file
  13:Core/Src/main.c ****   * in the root directory of this software component.
  14:Core/Src/main.c ****   * If no LICENSE file comes with this software, it is provided AS-IS.
  15:Core/Src/main.c ****   *
  16:Core/Src/main.c ****   ******************************************************************************
  17:Core/Src/main.c ****   */
  18:Core/Src/main.c **** /* USER CODE END Header */
  19:Core/Src/main.c **** /* Includes ------------------------------------------------------------------*/
  20:Core/Src/main.c **** #include "main.h"
  21:Core/Src/main.c **** #include "cmsis_os.h"
  22:Core/Src/main.c **** 
  23:Core/Src/main.c **** /* Private includes ----------------------------------------------------------*/
  24:Core/Src/main.c **** /* USER CODE BEGIN Includes */
  25:Core/Src/main.c **** #include "extern.h"
  26:Core/Src/main.c **** #include "i2c-lcd.h"
  27:Core/Src/main.c **** #include "lora.h"
  28:Core/Src/main.c **** #include <string.h>
  29:Core/Src/main.c **** #include <stdio.h>
ARM GAS  C:\Users\jdcox\AppData\Local\Temp\cczPUCDJ.s 			page 2


  30:Core/Src/main.c **** #include "ssd1306.h"
  31:Core/Src/main.c **** #include "semphr.h"
  32:Core/Src/main.c **** 
  33:Core/Src/main.c **** 
  34:Core/Src/main.c **** /* USER CODE END Includes */
  35:Core/Src/main.c **** 
  36:Core/Src/main.c **** /* Private typedef -----------------------------------------------------------*/
  37:Core/Src/main.c **** /* USER CODE BEGIN PTD */
  38:Core/Src/main.c **** 
  39:Core/Src/main.c **** /* USER CODE END PTD */
  40:Core/Src/main.c **** 
  41:Core/Src/main.c **** /* Private define ------------------------------------------------------------*/
  42:Core/Src/main.c **** /* USER CODE BEGIN PD */
  43:Core/Src/main.c **** /* USER CODE END PD */
  44:Core/Src/main.c **** 
  45:Core/Src/main.c **** /* Private macro -------------------------------------------------------------*/
  46:Core/Src/main.c **** /* USER CODE BEGIN PM */
  47:Core/Src/main.c **** 
  48:Core/Src/main.c **** /* USER CODE END PM */
  49:Core/Src/main.c **** 
  50:Core/Src/main.c **** /* Private variables ---------------------------------------------------------*/
  51:Core/Src/main.c **** I2C_HandleTypeDef hi2c1;
  52:Core/Src/main.c **** DMA_HandleTypeDef hdma_i2c1_tx;
  53:Core/Src/main.c **** 
  54:Core/Src/main.c **** SPI_HandleTypeDef hspi1;
  55:Core/Src/main.c **** DMA_HandleTypeDef hdma_spi1_tx;
  56:Core/Src/main.c **** DMA_HandleTypeDef hdma_spi1_rx;
  57:Core/Src/main.c **** 
  58:Core/Src/main.c **** osThreadId defaultTaskHandle;
  59:Core/Src/main.c **** osThreadId loraRXTaskHandle;
  60:Core/Src/main.c **** osThreadId displayTaskHandle;
  61:Core/Src/main.c **** osTimerId msTickHandle;
  62:Core/Src/main.c **** osTimerId debounceTimerHandle;
  63:Core/Src/main.c **** osTimerId blinkTimerHandle;
  64:Core/Src/main.c **** osMutexId lora_mutexHandle;
  65:Core/Src/main.c **** /* USER CODE BEGIN PV */
  66:Core/Src/main.c **** SemaphoreHandle_t xloraMutex;
  67:Core/Src/main.c **** LoRa myLoRa;
  68:Core/Src/main.c **** 
  69:Core/Src/main.c **** 
  70:Core/Src/main.c **** /* USER CODE END PV */
  71:Core/Src/main.c **** 
  72:Core/Src/main.c **** /* Private function prototypes -----------------------------------------------*/
  73:Core/Src/main.c **** void SystemClock_Config(void);
  74:Core/Src/main.c **** static void MX_GPIO_Init(void);
  75:Core/Src/main.c **** static void MX_DMA_Init(void);
  76:Core/Src/main.c **** static void MX_SPI1_Init(void);
  77:Core/Src/main.c **** static void MX_I2C1_Init(void);
  78:Core/Src/main.c **** void StartDefaultTask(void const * argument);
  79:Core/Src/main.c **** void StartLoraRXTask(void const * argument);
  80:Core/Src/main.c **** void StartDisplayTask(void const * argument);
  81:Core/Src/main.c **** void msTickCallback(void const * argument);
  82:Core/Src/main.c **** void debounceCallback(void const * argument);
  83:Core/Src/main.c **** void blinkTimerCallback(void const * argument);
  84:Core/Src/main.c **** 
  85:Core/Src/main.c **** /* USER CODE BEGIN PFP */
  86:Core/Src/main.c **** 
ARM GAS  C:\Users\jdcox\AppData\Local\Temp\cczPUCDJ.s 			page 3


  87:Core/Src/main.c **** /* USER CODE END PFP */
  88:Core/Src/main.c **** 
  89:Core/Src/main.c **** /* Private user code ---------------------------------------------------------*/
  90:Core/Src/main.c **** /* USER CODE BEGIN 0 */
  91:Core/Src/main.c **** 
  92:Core/Src/main.c **** /* USER CODE END 0 */
  93:Core/Src/main.c **** 
  94:Core/Src/main.c **** /**
  95:Core/Src/main.c ****   * @brief  The application entry point.
  96:Core/Src/main.c ****   * @retval int
  97:Core/Src/main.c ****   */
  98:Core/Src/main.c **** int main(void)
  99:Core/Src/main.c **** {
 100:Core/Src/main.c ****   /* USER CODE BEGIN 1 */
 101:Core/Src/main.c **** 
 102:Core/Src/main.c ****   /* USER CODE END 1 */
 103:Core/Src/main.c **** 
 104:Core/Src/main.c ****   /* MCU Configuration--------------------------------------------------------*/
 105:Core/Src/main.c **** 
 106:Core/Src/main.c ****   /* Reset of all peripherals, Initializes the Flash interface and the Systick. */
 107:Core/Src/main.c ****   HAL_Init();
 108:Core/Src/main.c **** 
 109:Core/Src/main.c ****   /* USER CODE BEGIN Init */
 110:Core/Src/main.c **** 
 111:Core/Src/main.c ****   /* USER CODE END Init */
 112:Core/Src/main.c **** 
 113:Core/Src/main.c ****   /* Configure the system clock */
 114:Core/Src/main.c ****   SystemClock_Config();
 115:Core/Src/main.c **** 
 116:Core/Src/main.c ****   /* USER CODE BEGIN SysInit */
 117:Core/Src/main.c **** 
 118:Core/Src/main.c ****   /* USER CODE END SysInit */
 119:Core/Src/main.c **** 
 120:Core/Src/main.c ****   /* Initialize all configured peripherals */
 121:Core/Src/main.c ****   MX_GPIO_Init();
 122:Core/Src/main.c ****   MX_DMA_Init();
 123:Core/Src/main.c ****   MX_SPI1_Init();
 124:Core/Src/main.c ****   MX_I2C1_Init();
 125:Core/Src/main.c ****   /* USER CODE BEGIN 2 */
 126:Core/Src/main.c **** 
 127:Core/Src/main.c **** 
 128:Core/Src/main.c **** 
 129:Core/Src/main.c ****   /* USER CODE END 2 */
 130:Core/Src/main.c **** 
 131:Core/Src/main.c ****   /* Create the mutex(es) */
 132:Core/Src/main.c ****   /* definition and creation of lora_mutex */
 133:Core/Src/main.c ****   //debug osMutexDef(lora_mutex);
 134:Core/Src/main.c ****   //debug lora_mutexHandle = osMutexCreate(osMutex(lora_mutex));
 135:Core/Src/main.c **** 
 136:Core/Src/main.c ****   /* USER CODE BEGIN RTOS_MUTEX */
 137:Core/Src/main.c ****   /* add mutexes, ... */
 138:Core/Src/main.c **** 
 139:Core/Src/main.c ****   xloraMutex = xSemaphoreCreateMutex();
 140:Core/Src/main.c **** 
 141:Core/Src/main.c ****   /* USER CODE END RTOS_MUTEX */
 142:Core/Src/main.c **** 
 143:Core/Src/main.c ****   /* USER CODE BEGIN RTOS_SEMAPHORES */
ARM GAS  C:\Users\jdcox\AppData\Local\Temp\cczPUCDJ.s 			page 4


 144:Core/Src/main.c ****   /* add semaphores, ... */
 145:Core/Src/main.c ****   /* USER CODE END RTOS_SEMAPHORES */
 146:Core/Src/main.c **** 
 147:Core/Src/main.c ****   /* Create the timer(s) */
 148:Core/Src/main.c ****   /* definition and creation of msTick */
 149:Core/Src/main.c ****   osTimerDef(msTick, msTickCallback);
 150:Core/Src/main.c ****   msTickHandle = osTimerCreate(osTimer(msTick), osTimerPeriodic, NULL);
 151:Core/Src/main.c **** 
 152:Core/Src/main.c ****   /* definition and creation of debounceTimer */
 153:Core/Src/main.c ****   osTimerDef(debounceTimer, debounceCallback);
 154:Core/Src/main.c ****   debounceTimerHandle = osTimerCreate(osTimer(debounceTimer), osTimerOnce, NULL);
 155:Core/Src/main.c **** 
 156:Core/Src/main.c ****   /* definition and creation of blinkTimer */
 157:Core/Src/main.c ****   osTimerDef(blinkTimer, blinkTimerCallback);
 158:Core/Src/main.c ****   blinkTimerHandle = osTimerCreate(osTimer(blinkTimer), osTimerOnce, NULL);
 159:Core/Src/main.c **** 
 160:Core/Src/main.c ****   /* USER CODE BEGIN RTOS_TIMERS */
 161:Core/Src/main.c ****   /* start timers, add new ones, ... */
 162:Core/Src/main.c ****  
 163:Core/Src/main.c ****   /* USER CODE END RTOS_TIMERS */
 164:Core/Src/main.c **** 
 165:Core/Src/main.c ****   /* USER CODE BEGIN RTOS_QUEUES */
 166:Core/Src/main.c ****   /* add queues, ... */
 167:Core/Src/main.c ****   /* USER CODE END RTOS_QUEUES */
 168:Core/Src/main.c **** 
 169:Core/Src/main.c ****   /* Create the thread(s) */
 170:Core/Src/main.c ****   /* definition and creation of defaultTask */
 171:Core/Src/main.c ****   osThreadDef(defaultTask, StartDefaultTask, osPriorityNormal, 0, 128);
 172:Core/Src/main.c ****   defaultTaskHandle = osThreadCreate(osThread(defaultTask), NULL);
 173:Core/Src/main.c **** 
 174:Core/Src/main.c ****   /* definition and creation of loraRXTask */
 175:Core/Src/main.c **** 
 176:Core/Src/main.c **** 
 177:Core/Src/main.c ****   /* definition and creation of displayTask */
 178:Core/Src/main.c ****   osThreadDef(displayTask, StartDisplayTask, osPriorityNormal, 0, 128);
 179:Core/Src/main.c ****   displayTaskHandle = osThreadCreate(osThread(displayTask), NULL);
 180:Core/Src/main.c **** 
 181:Core/Src/main.c ****   /* USER CODE BEGIN RTOS_THREADS */
 182:Core/Src/main.c ****   /* add threads, ... */
 183:Core/Src/main.c ****   /* USER CODE END RTOS_THREADS */
 184:Core/Src/main.c **** 
 185:Core/Src/main.c ****   /* Start scheduler */
 186:Core/Src/main.c ****   osKernelStart();
 187:Core/Src/main.c **** 
 188:Core/Src/main.c ****   /* We should never get here as control is now taken by the scheduler */
 189:Core/Src/main.c ****   /* Infinite loop */
 190:Core/Src/main.c ****   /* USER CODE BEGIN WHILE */
 191:Core/Src/main.c ****   while (1)
 192:Core/Src/main.c ****   {
 193:Core/Src/main.c ****     /* USER CODE END WHILE */
 194:Core/Src/main.c **** 
 195:Core/Src/main.c ****     /* USER CODE BEGIN 3 */
 196:Core/Src/main.c ****   }
 197:Core/Src/main.c ****   /* USER CODE END 3 */
 198:Core/Src/main.c **** }
 199:Core/Src/main.c **** 
 200:Core/Src/main.c **** /**
ARM GAS  C:\Users\jdcox\AppData\Local\Temp\cczPUCDJ.s 			page 5


 201:Core/Src/main.c ****   * @brief System Clock Configuration
 202:Core/Src/main.c ****   * @retval None
 203:Core/Src/main.c ****   */
 204:Core/Src/main.c **** void SystemClock_Config(void)
 205:Core/Src/main.c **** {
 206:Core/Src/main.c ****   RCC_OscInitTypeDef RCC_OscInitStruct = {0};
 207:Core/Src/main.c ****   RCC_ClkInitTypeDef RCC_ClkInitStruct = {0};
 208:Core/Src/main.c **** 
 209:Core/Src/main.c ****   /** Configure the main internal regulator output voltage
 210:Core/Src/main.c ****   */
 211:Core/Src/main.c ****   __HAL_RCC_PWR_CLK_ENABLE();
 212:Core/Src/main.c ****   __HAL_PWR_VOLTAGESCALING_CONFIG(PWR_REGULATOR_VOLTAGE_SCALE2);
 213:Core/Src/main.c **** 
 214:Core/Src/main.c ****   /** Initializes the RCC Oscillators according to the specified parameters
 215:Core/Src/main.c ****   * in the RCC_OscInitTypeDef structure.
 216:Core/Src/main.c ****   */
 217:Core/Src/main.c ****   RCC_OscInitStruct.OscillatorType = RCC_OSCILLATORTYPE_HSE;
 218:Core/Src/main.c ****   RCC_OscInitStruct.HSEState = RCC_HSE_ON;
 219:Core/Src/main.c ****   RCC_OscInitStruct.PLL.PLLState = RCC_PLL_ON;
 220:Core/Src/main.c ****   RCC_OscInitStruct.PLL.PLLSource = RCC_PLLSOURCE_HSE;
 221:Core/Src/main.c ****   RCC_OscInitStruct.PLL.PLLM = 25;
 222:Core/Src/main.c ****   RCC_OscInitStruct.PLL.PLLN = 336;
 223:Core/Src/main.c ****   RCC_OscInitStruct.PLL.PLLP = RCC_PLLP_DIV4;
 224:Core/Src/main.c ****   RCC_OscInitStruct.PLL.PLLQ = 7;
 225:Core/Src/main.c ****   if (HAL_RCC_OscConfig(&RCC_OscInitStruct) != HAL_OK)
 226:Core/Src/main.c ****   {
 227:Core/Src/main.c ****     Error_Handler();
 228:Core/Src/main.c ****   }
 229:Core/Src/main.c **** 
 230:Core/Src/main.c ****   /** Initializes the CPU, AHB and APB buses clocks
 231:Core/Src/main.c ****   */
 232:Core/Src/main.c ****   RCC_ClkInitStruct.ClockType = RCC_CLOCKTYPE_HCLK|RCC_CLOCKTYPE_SYSCLK
 233:Core/Src/main.c ****                               |RCC_CLOCKTYPE_PCLK1|RCC_CLOCKTYPE_PCLK2;
 234:Core/Src/main.c ****   RCC_ClkInitStruct.SYSCLKSource = RCC_SYSCLKSOURCE_PLLCLK;
 235:Core/Src/main.c ****   RCC_ClkInitStruct.AHBCLKDivider = RCC_SYSCLK_DIV1;
 236:Core/Src/main.c ****   RCC_ClkInitStruct.APB1CLKDivider = RCC_HCLK_DIV2;
 237:Core/Src/main.c ****   RCC_ClkInitStruct.APB2CLKDivider = RCC_HCLK_DIV1;
 238:Core/Src/main.c **** 
 239:Core/Src/main.c ****   if (HAL_RCC_ClockConfig(&RCC_ClkInitStruct, FLASH_LATENCY_2) != HAL_OK)
 240:Core/Src/main.c ****   {
 241:Core/Src/main.c ****     Error_Handler();
 242:Core/Src/main.c ****   }
 243:Core/Src/main.c **** }
 244:Core/Src/main.c **** 
 245:Core/Src/main.c **** /**
 246:Core/Src/main.c ****   * @brief I2C1 Initialization Function
 247:Core/Src/main.c ****   * @param None
 248:Core/Src/main.c ****   * @retval None
 249:Core/Src/main.c ****   */
 250:Core/Src/main.c **** static void MX_I2C1_Init(void)
 251:Core/Src/main.c **** {
 252:Core/Src/main.c **** 
 253:Core/Src/main.c ****   /* USER CODE BEGIN I2C1_Init 0 */
 254:Core/Src/main.c **** 
 255:Core/Src/main.c ****   /* USER CODE END I2C1_Init 0 */
 256:Core/Src/main.c **** 
 257:Core/Src/main.c ****   /* USER CODE BEGIN I2C1_Init 1 */
ARM GAS  C:\Users\jdcox\AppData\Local\Temp\cczPUCDJ.s 			page 6


 258:Core/Src/main.c **** 
 259:Core/Src/main.c ****   /* USER CODE END I2C1_Init 1 */
 260:Core/Src/main.c ****   hi2c1.Instance = I2C1;
 261:Core/Src/main.c ****   hi2c1.Init.ClockSpeed = 100000;
 262:Core/Src/main.c ****   hi2c1.Init.DutyCycle = I2C_DUTYCYCLE_2;
 263:Core/Src/main.c ****   hi2c1.Init.OwnAddress1 = 78;
 264:Core/Src/main.c ****   hi2c1.Init.AddressingMode = I2C_ADDRESSINGMODE_7BIT;
 265:Core/Src/main.c ****   hi2c1.Init.DualAddressMode = I2C_DUALADDRESS_DISABLE;
 266:Core/Src/main.c ****   hi2c1.Init.OwnAddress2 = 0;
 267:Core/Src/main.c ****   hi2c1.Init.GeneralCallMode = I2C_GENERALCALL_DISABLE;
 268:Core/Src/main.c ****   hi2c1.Init.NoStretchMode = I2C_NOSTRETCH_DISABLE;
 269:Core/Src/main.c ****   if (HAL_I2C_Init(&hi2c1) != HAL_OK)
 270:Core/Src/main.c ****   {
 271:Core/Src/main.c ****     Error_Handler();
 272:Core/Src/main.c ****   }
 273:Core/Src/main.c ****   /* USER CODE BEGIN I2C1_Init 2 */
 274:Core/Src/main.c **** 
 275:Core/Src/main.c ****   /* USER CODE END I2C1_Init 2 */
 276:Core/Src/main.c **** 
 277:Core/Src/main.c **** }
 278:Core/Src/main.c **** 
 279:Core/Src/main.c **** /**
 280:Core/Src/main.c ****   * @brief SPI1 Initialization Function
 281:Core/Src/main.c ****   * @param None
 282:Core/Src/main.c ****   * @retval None
 283:Core/Src/main.c ****   */
 284:Core/Src/main.c **** static void MX_SPI1_Init(void)
 285:Core/Src/main.c **** {
 286:Core/Src/main.c **** 
 287:Core/Src/main.c ****   /* USER CODE BEGIN SPI1_Init 0 */
 288:Core/Src/main.c **** 
 289:Core/Src/main.c ****   /* USER CODE END SPI1_Init 0 */
 290:Core/Src/main.c **** 
 291:Core/Src/main.c ****   /* USER CODE BEGIN SPI1_Init 1 */
 292:Core/Src/main.c **** 
 293:Core/Src/main.c ****   /* USER CODE END SPI1_Init 1 */
 294:Core/Src/main.c ****   /* SPI1 parameter configuration*/
 295:Core/Src/main.c ****   hspi1.Instance = SPI1;
 296:Core/Src/main.c ****   hspi1.Init.Mode = SPI_MODE_MASTER;
 297:Core/Src/main.c ****   hspi1.Init.Direction = SPI_DIRECTION_2LINES;
 298:Core/Src/main.c ****   hspi1.Init.DataSize = SPI_DATASIZE_8BIT;
 299:Core/Src/main.c ****   hspi1.Init.CLKPolarity = SPI_POLARITY_LOW;
 300:Core/Src/main.c ****   hspi1.Init.CLKPhase = SPI_PHASE_1EDGE;
 301:Core/Src/main.c ****   hspi1.Init.NSS = SPI_NSS_SOFT;
 302:Core/Src/main.c ****   hspi1.Init.BaudRatePrescaler = SPI_BAUDRATEPRESCALER_16;
 303:Core/Src/main.c ****   hspi1.Init.FirstBit = SPI_FIRSTBIT_MSB;
 304:Core/Src/main.c ****   hspi1.Init.TIMode = SPI_TIMODE_DISABLE;
 305:Core/Src/main.c ****   hspi1.Init.CRCCalculation = SPI_CRCCALCULATION_DISABLE;
 306:Core/Src/main.c ****   hspi1.Init.CRCPolynomial = 10;
 307:Core/Src/main.c ****   if (HAL_SPI_Init(&hspi1) != HAL_OK)
 308:Core/Src/main.c ****   {
 309:Core/Src/main.c ****     Error_Handler();
 310:Core/Src/main.c ****   }
 311:Core/Src/main.c ****   /* USER CODE BEGIN SPI1_Init 2 */
 312:Core/Src/main.c **** 
 313:Core/Src/main.c ****   /* USER CODE END SPI1_Init 2 */
 314:Core/Src/main.c **** 
ARM GAS  C:\Users\jdcox\AppData\Local\Temp\cczPUCDJ.s 			page 7


 315:Core/Src/main.c **** }
 316:Core/Src/main.c **** 
 317:Core/Src/main.c **** /**
 318:Core/Src/main.c ****   * Enable DMA controller clock
 319:Core/Src/main.c ****   */
 320:Core/Src/main.c **** static void MX_DMA_Init(void)
 321:Core/Src/main.c **** {
 322:Core/Src/main.c **** 
 323:Core/Src/main.c ****   /* DMA controller clock enable */
 324:Core/Src/main.c ****   __HAL_RCC_DMA1_CLK_ENABLE();
 325:Core/Src/main.c ****   __HAL_RCC_DMA2_CLK_ENABLE();
 326:Core/Src/main.c **** 
 327:Core/Src/main.c ****   /* DMA interrupt init */
 328:Core/Src/main.c ****   /* DMA1_Stream6_IRQn interrupt configuration */
 329:Core/Src/main.c ****   HAL_NVIC_SetPriority(DMA1_Stream6_IRQn, 5, 0);
 330:Core/Src/main.c ****   HAL_NVIC_EnableIRQ(DMA1_Stream6_IRQn);
 331:Core/Src/main.c ****   /* DMA2_Stream0_IRQn interrupt configuration */
 332:Core/Src/main.c ****   HAL_NVIC_SetPriority(DMA2_Stream0_IRQn, 5, 0);
 333:Core/Src/main.c ****   HAL_NVIC_EnableIRQ(DMA2_Stream0_IRQn);
 334:Core/Src/main.c ****   /* DMA2_Stream3_IRQn interrupt configuration */
 335:Core/Src/main.c ****   HAL_NVIC_SetPriority(DMA2_Stream3_IRQn, 5, 0);
 336:Core/Src/main.c ****   HAL_NVIC_EnableIRQ(DMA2_Stream3_IRQn);
 337:Core/Src/main.c **** 
 338:Core/Src/main.c **** }
 339:Core/Src/main.c **** 
 340:Core/Src/main.c **** /**
 341:Core/Src/main.c ****   * @brief GPIO Initialization Function
 342:Core/Src/main.c ****   * @param None
 343:Core/Src/main.c ****   * @retval None
 344:Core/Src/main.c ****   */
 345:Core/Src/main.c **** static void MX_GPIO_Init(void)
 346:Core/Src/main.c **** {
 347:Core/Src/main.c ****   GPIO_InitTypeDef GPIO_InitStruct = {0};
 348:Core/Src/main.c **** 
 349:Core/Src/main.c ****   /* GPIO Ports Clock Enable */
 350:Core/Src/main.c ****   __HAL_RCC_GPIOH_CLK_ENABLE();
 351:Core/Src/main.c ****   __HAL_RCC_GPIOA_CLK_ENABLE();
 352:Core/Src/main.c ****   __HAL_RCC_GPIOB_CLK_ENABLE();
 353:Core/Src/main.c **** 
 354:Core/Src/main.c ****   /*Configure GPIO pin Output Level */
 355:Core/Src/main.c ****   HAL_GPIO_WritePin(GPIOB, LED1_Pin|LED2_Pin, GPIO_PIN_SET);
 356:Core/Src/main.c **** 
 357:Core/Src/main.c ****   /*Configure GPIO pin Output Level */
 358:Core/Src/main.c ****   HAL_GPIO_WritePin(LORA_RST_GPIO_Port, LORA_RST_Pin, GPIO_PIN_RESET);
 359:Core/Src/main.c **** 
 360:Core/Src/main.c ****   /*Configure GPIO pin Output Level */
 361:Core/Src/main.c ****   HAL_GPIO_WritePin(LORA_CS_GPIO_Port, LORA_CS_Pin, GPIO_PIN_SET);
 362:Core/Src/main.c **** 
 363:Core/Src/main.c ****   /*Configure GPIO pin : BTN_IN_Pin */
 364:Core/Src/main.c ****   GPIO_InitStruct.Pin = BTN_IN_Pin;
 365:Core/Src/main.c ****   GPIO_InitStruct.Mode = GPIO_MODE_IT_FALLING;
 366:Core/Src/main.c ****   GPIO_InitStruct.Pull = GPIO_PULLUP;
 367:Core/Src/main.c ****   HAL_GPIO_Init(BTN_IN_GPIO_Port, &GPIO_InitStruct);
 368:Core/Src/main.c **** 
 369:Core/Src/main.c ****   /*Configure GPIO pins : LED1_Pin LED2_Pin */
 370:Core/Src/main.c ****   GPIO_InitStruct.Pin = LED1_Pin|LED2_Pin;
 371:Core/Src/main.c ****   GPIO_InitStruct.Mode = GPIO_MODE_OUTPUT_PP;
ARM GAS  C:\Users\jdcox\AppData\Local\Temp\cczPUCDJ.s 			page 8


 372:Core/Src/main.c ****   GPIO_InitStruct.Pull = GPIO_NOPULL;
 373:Core/Src/main.c ****   GPIO_InitStruct.Speed = GPIO_SPEED_FREQ_LOW;
 374:Core/Src/main.c ****   HAL_GPIO_Init(GPIOB, &GPIO_InitStruct);
 375:Core/Src/main.c **** 
 376:Core/Src/main.c ****   /*Configure GPIO pin : LORA_EXTI_Pin */
 377:Core/Src/main.c ****   GPIO_InitStruct.Pin = LORA_EXTI_Pin;
 378:Core/Src/main.c ****   GPIO_InitStruct.Mode = GPIO_MODE_IT_RISING;
 379:Core/Src/main.c ****   GPIO_InitStruct.Pull = GPIO_NOPULL;
 380:Core/Src/main.c ****   HAL_GPIO_Init(LORA_EXTI_GPIO_Port, &GPIO_InitStruct);
 381:Core/Src/main.c **** 
 382:Core/Src/main.c ****   /*Configure GPIO pins : LORA_RST_Pin LORA_CS_Pin */
 383:Core/Src/main.c ****   GPIO_InitStruct.Pin = LORA_RST_Pin|LORA_CS_Pin;
 384:Core/Src/main.c ****   GPIO_InitStruct.Mode = GPIO_MODE_OUTPUT_PP;
 385:Core/Src/main.c ****   GPIO_InitStruct.Pull = GPIO_NOPULL;
 386:Core/Src/main.c ****   GPIO_InitStruct.Speed = GPIO_SPEED_FREQ_LOW;
 387:Core/Src/main.c ****   HAL_GPIO_Init(GPIOA, &GPIO_InitStruct);
 388:Core/Src/main.c **** 
 389:Core/Src/main.c ****   /* EXTI interrupt init*/
 390:Core/Src/main.c ****   HAL_NVIC_SetPriority(EXTI0_IRQn, 5, 0);
 391:Core/Src/main.c ****   HAL_NVIC_EnableIRQ(EXTI0_IRQn);
 392:Core/Src/main.c **** 
 393:Core/Src/main.c **** }
 394:Core/Src/main.c **** 
 395:Core/Src/main.c **** /* USER CODE BEGIN 4 */
 396:Core/Src/main.c **** 
 397:Core/Src/main.c **** /* USER CODE END 4 */
 398:Core/Src/main.c **** 
 399:Core/Src/main.c **** /* USER CODE BEGIN Header_StartDefaultTask */
 400:Core/Src/main.c **** /**
 401:Core/Src/main.c ****   * @brief  Function implementing the defaultTask thread.
 402:Core/Src/main.c ****   * @param  argument: Not used
 403:Core/Src/main.c ****   * @retval None
 404:Core/Src/main.c ****   */
 405:Core/Src/main.c **** /* USER CODE END Header_StartDefaultTask */
 406:Core/Src/main.c **** void StartDefaultTask(void const * argument)
 407:Core/Src/main.c **** {
 408:Core/Src/main.c ****   /* USER CODE BEGIN 5 */
 409:Core/Src/main.c ****   xloraMutex = xSemaphoreCreateMutex();
 410:Core/Src/main.c ****   //xSemaphoreTake(xloraMutex, portMAX_DELAY);
 411:Core/Src/main.c **** 
 412:Core/Src/main.c ****   // Create LoRa instance
 413:Core/Src/main.c ****   myLoRa = newLoRa();
 414:Core/Src/main.c **** 
 415:Core/Src/main.c ****   // configure
 416:Core/Src/main.c ****     myLoRa.CS_port         = LORA_CS_GPIO_Port;
 417:Core/Src/main.c ****     myLoRa.CS_pin          = LORA_CS_Pin;
 418:Core/Src/main.c ****     myLoRa.reset_port      = LORA_RST_GPIO_Port;
 419:Core/Src/main.c ****     myLoRa.reset_pin       = LORA_RST_Pin;
 420:Core/Src/main.c ****     myLoRa.DIO0_port       = LORA_EXTI_GPIO_Port;
 421:Core/Src/main.c ****     myLoRa.DIO0_pin        = LORA_EXTI_Pin;
 422:Core/Src/main.c ****     myLoRa.hSPIx           = &hspi1;
 423:Core/Src/main.c **** 
 424:Core/Src/main.c ****   // Kick it
 425:Core/Src/main.c ****   uint16_t LoRa_Status = LoRa_init(&myLoRa);
 426:Core/Src/main.c ****   sprintf(opcodeString,"Josh wins", 10);
 427:Core/Src/main.c ****   if(LoRa_Status == LORA_OK)
 428:Core/Src/main.c ****   {
ARM GAS  C:\Users\jdcox\AppData\Local\Temp\cczPUCDJ.s 			page 9


 429:Core/Src/main.c ****     LoRa_transmit(&myLoRa, (uint8_t*)opcodeString, 12, 100);
 430:Core/Src/main.c ****   }
 431:Core/Src/main.c ****   else
 432:Core/Src/main.c ****   {
 433:Core/Src/main.c ****     debugBuddy = 9;
 434:Core/Src/main.c ****   }
 435:Core/Src/main.c **** 
 436:Core/Src/main.c ****   LoRa_startReceiving(&myLoRa);
 437:Core/Src/main.c ****   
 438:Core/Src/main.c ****   //xSemaphoreGive(xloraMutex);
 439:Core/Src/main.c ****   //debug osMutexRelease(lora_mutexHandle);
 440:Core/Src/main.c **** 
 441:Core/Src/main.c ****   osThreadDef(loraRXTask, StartLoraRXTask, osPriorityAboveNormal, 0, 128);
 442:Core/Src/main.c ****   loraRXTaskHandle = osThreadCreate(osThread(loraRXTask), NULL);
 443:Core/Src/main.c **** 
 444:Core/Src/main.c ****   P1LED_OFF;
 445:Core/Src/main.c ****   ssd1306_Init();
 446:Core/Src/main.c ****   ssd1306_SetCursor(0,0);
 447:Core/Src/main.c ****   ssd1306_WriteString("KING",Font_16x24,1);
 448:Core/Src/main.c ****   ssd1306_UpdateScreen();
 449:Core/Src/main.c ****   osDelay(500);
 450:Core/Src/main.c ****   ssd1306_Fill(0);
 451:Core/Src/main.c ****   ssd1306_SetCursor(64,0);
 452:Core/Src/main.c ****   ssd1306_WriteString("OF",Font_16x24,1);
 453:Core/Src/main.c ****   ssd1306_UpdateScreen();
 454:Core/Src/main.c ****   osDelay(500);
 455:Core/Src/main.c ****   ssd1306_Fill(0);
 456:Core/Src/main.c ****   ssd1306_SetCursor(0,8);
 457:Core/Src/main.c ****   ssd1306_WriteString("THE",Font_16x24,1);
 458:Core/Src/main.c ****   ssd1306_UpdateScreen();
 459:Core/Src/main.c ****   osDelay(500);
 460:Core/Src/main.c ****   ssd1306_Fill(0);
 461:Core/Src/main.c ****   ssd1306_SetCursor(64,8);
 462:Core/Src/main.c ****   ssd1306_WriteString("HILL",Font_16x24,1);
 463:Core/Src/main.c ****   ssd1306_UpdateScreen();
 464:Core/Src/main.c **** 
 465:Core/Src/main.c ****   
 466:Core/Src/main.c **** 
 467:Core/Src/main.c ****   osDelay(1000);
 468:Core/Src/main.c **** 
 469:Core/Src/main.c ****   gameState = waiting;
 470:Core/Src/main.c ****   stateChange_flag = 1;
 471:Core/Src/main.c ****   
 472:Core/Src/main.c **** 
 473:Core/Src/main.c ****   /* Infinite loop */
 474:Core/Src/main.c ****   for(;;)
 475:Core/Src/main.c ****   {
 476:Core/Src/main.c ****     //debug
 477:Core/Src/main.c ****     HAL_GPIO_TogglePin(LED1_GPIO_Port,LED1_Pin);
 478:Core/Src/main.c ****     
 479:Core/Src/main.c ****     switch (gameState)
 480:Core/Src/main.c ****     {
 481:Core/Src/main.c ****       case waiting:
 482:Core/Src/main.c ****         if(stateChange_flag)
 483:Core/Src/main.c ****         {
 484:Core/Src/main.c ****           stateChange_flag = 0;
 485:Core/Src/main.c ****           ssd1306_Fill(0); 
ARM GAS  C:\Users\jdcox\AppData\Local\Temp\cczPUCDJ.s 			page 10


 486:Core/Src/main.c ****           ssd1306_SetCursor(0,0);
 487:Core/Src/main.c ****           ssd1306_WriteString("Push to play",Font_7x10,1);
 488:Core/Src/main.c ****           ssd1306_UpdateScreen();
 489:Core/Src/main.c ****         }
 490:Core/Src/main.c ****       break;
 491:Core/Src/main.c **** 
 492:Core/Src/main.c ****       case p1King:
 493:Core/Src/main.c ****         if(stateChange_flag)
 494:Core/Src/main.c ****         {
 495:Core/Src/main.c ****           stateChange_flag = 0;
 496:Core/Src/main.c ****           P1LED_OFF; // The hill is yours
 497:Core/Src/main.c ****           ssd1306_Fill(0);
 498:Core/Src/main.c ****           ssd1306_SetCursor(0,0);
 499:Core/Src/main.c ****           ssd1306_WriteString("You are king",Font_7x10,1);
 500:Core/Src/main.c ****           ssd1306_SetCursor(0,10);
 501:Core/Src/main.c ****           ssd1306_WriteString("of the hill!",Font_7x10,1);
 502:Core/Src/main.c ****           ssd1306_UpdateScreen();
 503:Core/Src/main.c ****         }
 504:Core/Src/main.c ****       break;
 505:Core/Src/main.c **** 
 506:Core/Src/main.c ****       case p2King:
 507:Core/Src/main.c ****         if(stateChange_flag)
 508:Core/Src/main.c ****         {
 509:Core/Src/main.c ****           stateChange_flag = 0;
 510:Core/Src/main.c ****           P1LED_ON; // Better push the button!
 511:Core/Src/main.c ****           ssd1306_Fill(0);
 512:Core/Src/main.c ****           ssd1306_SetCursor(0,0);
 513:Core/Src/main.c ****           ssd1306_WriteString("Take the hill!!",Font_7x10,1);
 514:Core/Src/main.c ****           ssd1306_UpdateScreen();
 515:Core/Src/main.c ****         }
 516:Core/Src/main.c ****       break;
 517:Core/Src/main.c **** 
 518:Core/Src/main.c ****       case p1Winner:
 519:Core/Src/main.c ****         if(stateChange_flag)
 520:Core/Src/main.c ****         {
 521:Core/Src/main.c ****           stateChange_flag = 0;
 522:Core/Src/main.c ****           P1LED_OFF;
 523:Core/Src/main.c ****           ssd1306_Fill(0);
 524:Core/Src/main.c ****           ssd1306_SetCursor(0,0);
 525:Core/Src/main.c ****           ssd1306_WriteString("P1 wins!",Font_7x10,1);
 526:Core/Src/main.c ****           char score [16];
 527:Core/Src/main.c ****           uint16_t difference = p1King_counter - p2King_counter;
 528:Core/Src/main.c ****           sprintf(score, "Won by %ums", difference);
 529:Core/Src/main.c ****           lcd_put_cur(1,0);
 530:Core/Src/main.c ****           ssd1306_WriteString(score,Font_7x10,1);
 531:Core/Src/main.c ****           ssd1306_UpdateScreen();
 532:Core/Src/main.c **** 
 533:Core/Src/main.c ****         }
 534:Core/Src/main.c ****       break;
 535:Core/Src/main.c **** 
 536:Core/Src/main.c ****       case p2Winner:
 537:Core/Src/main.c ****         if(stateChange_flag)
 538:Core/Src/main.c ****         {
 539:Core/Src/main.c ****           stateChange_flag = 0;
 540:Core/Src/main.c ****           P1LED_OFF;
 541:Core/Src/main.c ****           ssd1306_Fill(0);
 542:Core/Src/main.c ****           ssd1306_SetCursor(0,0);
ARM GAS  C:\Users\jdcox\AppData\Local\Temp\cczPUCDJ.s 			page 11


 543:Core/Src/main.c ****           ssd1306_WriteString("P2 wins!",Font_7x10,1);
 544:Core/Src/main.c ****           char score [16];
 545:Core/Src/main.c ****           uint16_t difference = p2King_counter - p1King_counter;
 546:Core/Src/main.c ****           sprintf(score, "Won by %ums", difference);
 547:Core/Src/main.c ****           lcd_put_cur(1,0);
 548:Core/Src/main.c ****           ssd1306_WriteString(score,Font_7x10,1);
 549:Core/Src/main.c ****           ssd1306_UpdateScreen();
 550:Core/Src/main.c ****         }
 551:Core/Src/main.c ****       break;
 552:Core/Src/main.c **** 
 553:Core/Src/main.c ****         case penalty:
 554:Core/Src/main.c ****         if(stateChange_flag)
 555:Core/Src/main.c ****         {
 556:Core/Src/main.c ****           stateChange_flag = 0;
 557:Core/Src/main.c ****           P1LED_OFF;
 558:Core/Src/main.c ****           ssd1306_Fill(0); 
 559:Core/Src/main.c ****           ssd1306_SetCursor(0,0);
 560:Core/Src/main.c ****           ssd1306_WriteString("Penalty!",Font_7x10,1);
 561:Core/Src/main.c ****           ssd1306_UpdateScreen();
 562:Core/Src/main.c ****         }
 563:Core/Src/main.c **** 
 564:Core/Src/main.c ****       break;
 565:Core/Src/main.c ****       
 566:Core/Src/main.c ****     }
 567:Core/Src/main.c **** 
 568:Core/Src/main.c **** 
 569:Core/Src/main.c ****     osDelay(1);
 570:Core/Src/main.c ****    
 571:Core/Src/main.c **** 
 572:Core/Src/main.c **** 
 573:Core/Src/main.c ****   }
 574:Core/Src/main.c ****   /* USER CODE END 5 */
 575:Core/Src/main.c **** }
 576:Core/Src/main.c **** 
 577:Core/Src/main.c **** /* USER CODE BEGIN Header_StartLoraRXTask */
 578:Core/Src/main.c **** /**
 579:Core/Src/main.c **** * @brief Function implementing the loraRXTask thread.
 580:Core/Src/main.c **** * @param argument: Not used
 581:Core/Src/main.c **** * @retval None
 582:Core/Src/main.c **** */
 583:Core/Src/main.c **** /* USER CODE END Header_StartLoraRXTask */
 584:Core/Src/main.c **** void StartLoraRXTask(void const * argument)
 585:Core/Src/main.c **** {
 586:Core/Src/main.c ****   /* USER CODE BEGIN StartLoraRXTask */
 587:Core/Src/main.c ****   /* Infinite loop */
 588:Core/Src/main.c ****   for(;;)
 589:Core/Src/main.c ****   {
 590:Core/Src/main.c ****     //debug
 591:Core/Src/main.c ****     HAL_GPIO_TogglePin(LED2_GPIO_Port,LED2_Pin);
 592:Core/Src/main.c **** 
 593:Core/Src/main.c ****     // Get the data
 594:Core/Src/main.c ****     getKOTHPacket();
 595:Core/Src/main.c **** 
 596:Core/Src/main.c ****     
 597:Core/Src/main.c ****     osDelay(200);
 598:Core/Src/main.c **** 
 599:Core/Src/main.c ****   }
ARM GAS  C:\Users\jdcox\AppData\Local\Temp\cczPUCDJ.s 			page 12


 600:Core/Src/main.c ****   /* USER CODE END StartLoraRXTask */
 601:Core/Src/main.c **** }
 602:Core/Src/main.c **** 
 603:Core/Src/main.c **** /* USER CODE BEGIN Header_StartDisplayTask */
 604:Core/Src/main.c **** /**
 605:Core/Src/main.c **** * @brief Function implementing the displayTask thread.
 606:Core/Src/main.c **** * @param argument: Not used
 607:Core/Src/main.c **** * @retval None
 608:Core/Src/main.c **** */
 609:Core/Src/main.c **** /* USER CODE END Header_StartDisplayTask */
 610:Core/Src/main.c **** void StartDisplayTask(void const * argument)
 611:Core/Src/main.c **** {
 612:Core/Src/main.c ****   /* USER CODE BEGIN StartDisplayTask */
 613:Core/Src/main.c ****   /* Infinite loop */
 614:Core/Src/main.c ****   for(;;)
 615:Core/Src/main.c ****   {
 616:Core/Src/main.c **** 
 617:Core/Src/main.c ****     osDelay(100);
 618:Core/Src/main.c ****   }
 619:Core/Src/main.c ****   /* USER CODE END StartDisplayTask */
 620:Core/Src/main.c **** }
 621:Core/Src/main.c **** 
 622:Core/Src/main.c **** /* msTickCallback function */
 623:Core/Src/main.c **** void msTickCallback(void const * argument)
 624:Core/Src/main.c **** {
  30              		.loc 1 624 1 view -0
  31              		.cfi_startproc
  32              		@ args = 0, pretend = 0, frame = 0
  33              		@ frame_needed = 0, uses_anonymous_args = 0
  34              		@ link register save eliminated.
 625:Core/Src/main.c ****   /* USER CODE BEGIN msTickCallback */
 626:Core/Src/main.c ****     if(p1King_flag == 1)
  35              		.loc 1 626 5 view .LVU1
  36              		.loc 1 626 20 is_stmt 0 view .LVU2
  37 0000 134B     		ldr	r3, .L6
  38 0002 1B78     		ldrb	r3, [r3]	@ zero_extendqisi2
  39              		.loc 1 626 7 view .LVU3
  40 0004 012B     		cmp	r3, #1
  41 0006 04D0     		beq	.L4
  42              	.L2:
 627:Core/Src/main.c ****     {
 628:Core/Src/main.c ****       if(++p1King_counter >= 10000)
 629:Core/Src/main.c ****       {
 630:Core/Src/main.c ****         p1King_flag = 0;
 631:Core/Src/main.c ****         gameState = p1Winner;
 632:Core/Src/main.c ****       }
 633:Core/Src/main.c ****     }
 634:Core/Src/main.c **** 
 635:Core/Src/main.c ****     if(p2King_flag == 1)
  43              		.loc 1 635 5 is_stmt 1 view .LVU4
  44              		.loc 1 635 20 is_stmt 0 view .LVU5
  45 0008 124B     		ldr	r3, .L6+4
  46 000a 1B78     		ldrb	r3, [r3]	@ zero_extendqisi2
  47              		.loc 1 635 7 view .LVU6
  48 000c 012B     		cmp	r3, #1
  49 000e 0FD0     		beq	.L5
  50              	.L1:
ARM GAS  C:\Users\jdcox\AppData\Local\Temp\cczPUCDJ.s 			page 13


 636:Core/Src/main.c ****     {
 637:Core/Src/main.c ****       if(++p2King_counter >= 10000)
 638:Core/Src/main.c ****       { 
 639:Core/Src/main.c ****         p2King_flag = 0;
 640:Core/Src/main.c ****         gameState = p2Winner;
 641:Core/Src/main.c ****       }
 642:Core/Src/main.c ****     }
 643:Core/Src/main.c ****   /* USER CODE END msTickCallback */
 644:Core/Src/main.c **** }
  51              		.loc 1 644 1 view .LVU7
  52 0010 7047     		bx	lr
  53              	.L4:
 628:Core/Src/main.c ****       {
  54              		.loc 1 628 7 is_stmt 1 view .LVU8
 628:Core/Src/main.c ****       {
  55              		.loc 1 628 10 is_stmt 0 view .LVU9
  56 0012 114A     		ldr	r2, .L6+8
  57 0014 1368     		ldr	r3, [r2]
  58 0016 0133     		adds	r3, r3, #1
 628:Core/Src/main.c ****       {
  59              		.loc 1 628 9 view .LVU10
  60 0018 1360     		str	r3, [r2]
  61 001a 42F20F72 		movw	r2, #9999
  62 001e 9342     		cmp	r3, r2
  63 0020 F2D9     		bls	.L2
 630:Core/Src/main.c ****         gameState = p1Winner;
  64              		.loc 1 630 9 is_stmt 1 view .LVU11
 630:Core/Src/main.c ****         gameState = p1Winner;
  65              		.loc 1 630 21 is_stmt 0 view .LVU12
  66 0022 0B4B     		ldr	r3, .L6
  67 0024 0022     		movs	r2, #0
  68 0026 1A70     		strb	r2, [r3]
 631:Core/Src/main.c ****       }
  69              		.loc 1 631 9 is_stmt 1 view .LVU13
 631:Core/Src/main.c ****       }
  70              		.loc 1 631 19 is_stmt 0 view .LVU14
  71 0028 0C4B     		ldr	r3, .L6+12
  72 002a 0322     		movs	r2, #3
  73 002c 1A70     		strb	r2, [r3]
  74 002e EBE7     		b	.L2
  75              	.L5:
 637:Core/Src/main.c ****       { 
  76              		.loc 1 637 7 is_stmt 1 view .LVU15
 637:Core/Src/main.c ****       { 
  77              		.loc 1 637 10 is_stmt 0 view .LVU16
  78 0030 0B4A     		ldr	r2, .L6+16
  79 0032 1368     		ldr	r3, [r2]
  80 0034 0133     		adds	r3, r3, #1
 637:Core/Src/main.c ****       { 
  81              		.loc 1 637 9 view .LVU17
  82 0036 1360     		str	r3, [r2]
  83 0038 42F20F72 		movw	r2, #9999
  84 003c 9342     		cmp	r3, r2
  85 003e E7D9     		bls	.L1
 639:Core/Src/main.c ****         gameState = p2Winner;
  86              		.loc 1 639 9 is_stmt 1 view .LVU18
 639:Core/Src/main.c ****         gameState = p2Winner;
ARM GAS  C:\Users\jdcox\AppData\Local\Temp\cczPUCDJ.s 			page 14


  87              		.loc 1 639 21 is_stmt 0 view .LVU19
  88 0040 044B     		ldr	r3, .L6+4
  89 0042 0022     		movs	r2, #0
  90 0044 1A70     		strb	r2, [r3]
 640:Core/Src/main.c ****       }
  91              		.loc 1 640 9 is_stmt 1 view .LVU20
 640:Core/Src/main.c ****       }
  92              		.loc 1 640 19 is_stmt 0 view .LVU21
  93 0046 054B     		ldr	r3, .L6+12
  94 0048 0422     		movs	r2, #4
  95 004a 1A70     		strb	r2, [r3]
  96              		.loc 1 644 1 view .LVU22
  97 004c E0E7     		b	.L1
  98              	.L7:
  99 004e 00BF     		.align	2
 100              	.L6:
 101 0050 00000000 		.word	p1King_flag
 102 0054 00000000 		.word	p2King_flag
 103 0058 00000000 		.word	p1King_counter
 104 005c 00000000 		.word	gameState
 105 0060 00000000 		.word	p2King_counter
 106              		.cfi_endproc
 107              	.LFE147:
 109              		.section	.text.debounceCallback,"ax",%progbits
 110              		.align	1
 111              		.global	debounceCallback
 112              		.syntax unified
 113              		.thumb
 114              		.thumb_func
 116              	debounceCallback:
 117              	.LVL1:
 118              	.LFB148:
 645:Core/Src/main.c **** 
 646:Core/Src/main.c **** /* debounceCallback function */
 647:Core/Src/main.c **** 
 648:Core/Src/main.c **** 
 649:Core/Src/main.c **** void debounceCallback(void const * argument)
 650:Core/Src/main.c **** {
 119              		.loc 1 650 1 is_stmt 1 view -0
 120              		.cfi_startproc
 121              		@ args = 0, pretend = 0, frame = 0
 122              		@ frame_needed = 0, uses_anonymous_args = 0
 123              		@ link register save eliminated.
 651:Core/Src/main.c ****   /* USER CODE BEGIN debounceCallback */
 652:Core/Src/main.c ****   debouncing_Flag = 0;
 124              		.loc 1 652 3 view .LVU24
 125              		.loc 1 652 19 is_stmt 0 view .LVU25
 126 0000 014B     		ldr	r3, .L9
 127 0002 0022     		movs	r2, #0
 128 0004 1A70     		strb	r2, [r3]
 653:Core/Src/main.c ****   /* USER CODE END debounceCallback */
 654:Core/Src/main.c **** }
 129              		.loc 1 654 1 view .LVU26
 130 0006 7047     		bx	lr
 131              	.L10:
 132              		.align	2
 133              	.L9:
ARM GAS  C:\Users\jdcox\AppData\Local\Temp\cczPUCDJ.s 			page 15


 134 0008 00000000 		.word	debouncing_Flag
 135              		.cfi_endproc
 136              	.LFE148:
 138              		.section	.text.blinkTimerCallback,"ax",%progbits
 139              		.align	1
 140              		.global	blinkTimerCallback
 141              		.syntax unified
 142              		.thumb
 143              		.thumb_func
 145              	blinkTimerCallback:
 146              	.LVL2:
 147              	.LFB149:
 655:Core/Src/main.c **** 
 656:Core/Src/main.c **** /* blinkTimerCallback function */
 657:Core/Src/main.c **** void blinkTimerCallback(void const * argument)
 658:Core/Src/main.c **** {
 148              		.loc 1 658 1 is_stmt 1 view -0
 149              		.cfi_startproc
 150              		@ args = 0, pretend = 0, frame = 0
 151              		@ frame_needed = 0, uses_anonymous_args = 0
 152              		@ link register save eliminated.
 659:Core/Src/main.c ****   /* USER CODE BEGIN blinkTimerCallback */
 660:Core/Src/main.c **** 
 661:Core/Src/main.c ****   /* USER CODE END blinkTimerCallback */
 662:Core/Src/main.c **** }
 153              		.loc 1 662 1 view .LVU28
 154 0000 7047     		bx	lr
 155              		.cfi_endproc
 156              	.LFE149:
 158              		.section	.text.MX_GPIO_Init,"ax",%progbits
 159              		.align	1
 160              		.syntax unified
 161              		.thumb
 162              		.thumb_func
 164              	MX_GPIO_Init:
 165              	.LFB143:
 346:Core/Src/main.c ****   GPIO_InitTypeDef GPIO_InitStruct = {0};
 166              		.loc 1 346 1 view -0
 167              		.cfi_startproc
 168              		@ args = 0, pretend = 0, frame = 32
 169              		@ frame_needed = 0, uses_anonymous_args = 0
 170 0000 2DE9F041 		push	{r4, r5, r6, r7, r8, lr}
 171              	.LCFI0:
 172              		.cfi_def_cfa_offset 24
 173              		.cfi_offset 4, -24
 174              		.cfi_offset 5, -20
 175              		.cfi_offset 6, -16
 176              		.cfi_offset 7, -12
 177              		.cfi_offset 8, -8
 178              		.cfi_offset 14, -4
 179 0004 88B0     		sub	sp, sp, #32
 180              	.LCFI1:
 181              		.cfi_def_cfa_offset 56
 347:Core/Src/main.c **** 
 182              		.loc 1 347 3 view .LVU30
 347:Core/Src/main.c **** 
 183              		.loc 1 347 20 is_stmt 0 view .LVU31
ARM GAS  C:\Users\jdcox\AppData\Local\Temp\cczPUCDJ.s 			page 16


 184 0006 0024     		movs	r4, #0
 185 0008 0394     		str	r4, [sp, #12]
 186 000a 0494     		str	r4, [sp, #16]
 187 000c 0594     		str	r4, [sp, #20]
 188 000e 0694     		str	r4, [sp, #24]
 189 0010 0794     		str	r4, [sp, #28]
 350:Core/Src/main.c ****   __HAL_RCC_GPIOA_CLK_ENABLE();
 190              		.loc 1 350 3 is_stmt 1 view .LVU32
 191              	.LBB4:
 350:Core/Src/main.c ****   __HAL_RCC_GPIOA_CLK_ENABLE();
 192              		.loc 1 350 3 view .LVU33
 193 0012 0094     		str	r4, [sp]
 350:Core/Src/main.c ****   __HAL_RCC_GPIOA_CLK_ENABLE();
 194              		.loc 1 350 3 view .LVU34
 195 0014 324B     		ldr	r3, .L14
 196 0016 1A6B     		ldr	r2, [r3, #48]
 197 0018 42F08002 		orr	r2, r2, #128
 198 001c 1A63     		str	r2, [r3, #48]
 350:Core/Src/main.c ****   __HAL_RCC_GPIOA_CLK_ENABLE();
 199              		.loc 1 350 3 view .LVU35
 200 001e 1A6B     		ldr	r2, [r3, #48]
 201 0020 02F08002 		and	r2, r2, #128
 202 0024 0092     		str	r2, [sp]
 350:Core/Src/main.c ****   __HAL_RCC_GPIOA_CLK_ENABLE();
 203              		.loc 1 350 3 view .LVU36
 204 0026 009A     		ldr	r2, [sp]
 205              	.LBE4:
 350:Core/Src/main.c ****   __HAL_RCC_GPIOA_CLK_ENABLE();
 206              		.loc 1 350 3 view .LVU37
 351:Core/Src/main.c ****   __HAL_RCC_GPIOB_CLK_ENABLE();
 207              		.loc 1 351 3 view .LVU38
 208              	.LBB5:
 351:Core/Src/main.c ****   __HAL_RCC_GPIOB_CLK_ENABLE();
 209              		.loc 1 351 3 view .LVU39
 210 0028 0194     		str	r4, [sp, #4]
 351:Core/Src/main.c ****   __HAL_RCC_GPIOB_CLK_ENABLE();
 211              		.loc 1 351 3 view .LVU40
 212 002a 1A6B     		ldr	r2, [r3, #48]
 213 002c 42F00102 		orr	r2, r2, #1
 214 0030 1A63     		str	r2, [r3, #48]
 351:Core/Src/main.c ****   __HAL_RCC_GPIOB_CLK_ENABLE();
 215              		.loc 1 351 3 view .LVU41
 216 0032 1A6B     		ldr	r2, [r3, #48]
 217 0034 02F00102 		and	r2, r2, #1
 218 0038 0192     		str	r2, [sp, #4]
 351:Core/Src/main.c ****   __HAL_RCC_GPIOB_CLK_ENABLE();
 219              		.loc 1 351 3 view .LVU42
 220 003a 019A     		ldr	r2, [sp, #4]
 221              	.LBE5:
 351:Core/Src/main.c ****   __HAL_RCC_GPIOB_CLK_ENABLE();
 222              		.loc 1 351 3 view .LVU43
 352:Core/Src/main.c **** 
 223              		.loc 1 352 3 view .LVU44
 224              	.LBB6:
 352:Core/Src/main.c **** 
 225              		.loc 1 352 3 view .LVU45
 226 003c 0294     		str	r4, [sp, #8]
ARM GAS  C:\Users\jdcox\AppData\Local\Temp\cczPUCDJ.s 			page 17


 352:Core/Src/main.c **** 
 227              		.loc 1 352 3 view .LVU46
 228 003e 1A6B     		ldr	r2, [r3, #48]
 229 0040 42F00202 		orr	r2, r2, #2
 230 0044 1A63     		str	r2, [r3, #48]
 352:Core/Src/main.c **** 
 231              		.loc 1 352 3 view .LVU47
 232 0046 1B6B     		ldr	r3, [r3, #48]
 233 0048 03F00203 		and	r3, r3, #2
 234 004c 0293     		str	r3, [sp, #8]
 352:Core/Src/main.c **** 
 235              		.loc 1 352 3 view .LVU48
 236 004e 029B     		ldr	r3, [sp, #8]
 237              	.LBE6:
 352:Core/Src/main.c **** 
 238              		.loc 1 352 3 view .LVU49
 355:Core/Src/main.c **** 
 239              		.loc 1 355 3 view .LVU50
 240 0050 DFF89480 		ldr	r8, .L14+8
 241 0054 0122     		movs	r2, #1
 242 0056 0621     		movs	r1, #6
 243 0058 4046     		mov	r0, r8
 244 005a FFF7FEFF 		bl	HAL_GPIO_WritePin
 245              	.LVL3:
 358:Core/Src/main.c **** 
 246              		.loc 1 358 3 view .LVU51
 247 005e 214D     		ldr	r5, .L14+4
 248 0060 2246     		mov	r2, r4
 249 0062 4FF40071 		mov	r1, #512
 250 0066 2846     		mov	r0, r5
 251 0068 FFF7FEFF 		bl	HAL_GPIO_WritePin
 252              	.LVL4:
 361:Core/Src/main.c **** 
 253              		.loc 1 361 3 view .LVU52
 254 006c 0122     		movs	r2, #1
 255 006e 4FF48061 		mov	r1, #1024
 256 0072 2846     		mov	r0, r5
 257 0074 FFF7FEFF 		bl	HAL_GPIO_WritePin
 258              	.LVL5:
 364:Core/Src/main.c ****   GPIO_InitStruct.Mode = GPIO_MODE_IT_FALLING;
 259              		.loc 1 364 3 view .LVU53
 364:Core/Src/main.c ****   GPIO_InitStruct.Mode = GPIO_MODE_IT_FALLING;
 260              		.loc 1 364 23 is_stmt 0 view .LVU54
 261 0078 0126     		movs	r6, #1
 262 007a 0396     		str	r6, [sp, #12]
 365:Core/Src/main.c ****   GPIO_InitStruct.Pull = GPIO_PULLUP;
 263              		.loc 1 365 3 is_stmt 1 view .LVU55
 365:Core/Src/main.c ****   GPIO_InitStruct.Pull = GPIO_PULLUP;
 264              		.loc 1 365 24 is_stmt 0 view .LVU56
 265 007c 4FF40413 		mov	r3, #2162688
 266 0080 0493     		str	r3, [sp, #16]
 366:Core/Src/main.c ****   HAL_GPIO_Init(BTN_IN_GPIO_Port, &GPIO_InitStruct);
 267              		.loc 1 366 3 is_stmt 1 view .LVU57
 366:Core/Src/main.c ****   HAL_GPIO_Init(BTN_IN_GPIO_Port, &GPIO_InitStruct);
 268              		.loc 1 366 24 is_stmt 0 view .LVU58
 269 0082 0596     		str	r6, [sp, #20]
 367:Core/Src/main.c **** 
ARM GAS  C:\Users\jdcox\AppData\Local\Temp\cczPUCDJ.s 			page 18


 270              		.loc 1 367 3 is_stmt 1 view .LVU59
 271 0084 03A9     		add	r1, sp, #12
 272 0086 4046     		mov	r0, r8
 273 0088 FFF7FEFF 		bl	HAL_GPIO_Init
 274              	.LVL6:
 370:Core/Src/main.c ****   GPIO_InitStruct.Mode = GPIO_MODE_OUTPUT_PP;
 275              		.loc 1 370 3 view .LVU60
 370:Core/Src/main.c ****   GPIO_InitStruct.Mode = GPIO_MODE_OUTPUT_PP;
 276              		.loc 1 370 23 is_stmt 0 view .LVU61
 277 008c 0627     		movs	r7, #6
 278 008e 0397     		str	r7, [sp, #12]
 371:Core/Src/main.c ****   GPIO_InitStruct.Pull = GPIO_NOPULL;
 279              		.loc 1 371 3 is_stmt 1 view .LVU62
 371:Core/Src/main.c ****   GPIO_InitStruct.Pull = GPIO_NOPULL;
 280              		.loc 1 371 24 is_stmt 0 view .LVU63
 281 0090 0496     		str	r6, [sp, #16]
 372:Core/Src/main.c ****   GPIO_InitStruct.Speed = GPIO_SPEED_FREQ_LOW;
 282              		.loc 1 372 3 is_stmt 1 view .LVU64
 372:Core/Src/main.c ****   GPIO_InitStruct.Speed = GPIO_SPEED_FREQ_LOW;
 283              		.loc 1 372 24 is_stmt 0 view .LVU65
 284 0092 0594     		str	r4, [sp, #20]
 373:Core/Src/main.c ****   HAL_GPIO_Init(GPIOB, &GPIO_InitStruct);
 285              		.loc 1 373 3 is_stmt 1 view .LVU66
 373:Core/Src/main.c ****   HAL_GPIO_Init(GPIOB, &GPIO_InitStruct);
 286              		.loc 1 373 25 is_stmt 0 view .LVU67
 287 0094 0694     		str	r4, [sp, #24]
 374:Core/Src/main.c **** 
 288              		.loc 1 374 3 is_stmt 1 view .LVU68
 289 0096 03A9     		add	r1, sp, #12
 290 0098 4046     		mov	r0, r8
 291 009a FFF7FEFF 		bl	HAL_GPIO_Init
 292              	.LVL7:
 377:Core/Src/main.c ****   GPIO_InitStruct.Mode = GPIO_MODE_IT_RISING;
 293              		.loc 1 377 3 view .LVU69
 377:Core/Src/main.c ****   GPIO_InitStruct.Mode = GPIO_MODE_IT_RISING;
 294              		.loc 1 377 23 is_stmt 0 view .LVU70
 295 009e 4FF48073 		mov	r3, #256
 296 00a2 0393     		str	r3, [sp, #12]
 378:Core/Src/main.c ****   GPIO_InitStruct.Pull = GPIO_NOPULL;
 297              		.loc 1 378 3 is_stmt 1 view .LVU71
 378:Core/Src/main.c ****   GPIO_InitStruct.Pull = GPIO_NOPULL;
 298              		.loc 1 378 24 is_stmt 0 view .LVU72
 299 00a4 4FF48813 		mov	r3, #1114112
 300 00a8 0493     		str	r3, [sp, #16]
 379:Core/Src/main.c ****   HAL_GPIO_Init(LORA_EXTI_GPIO_Port, &GPIO_InitStruct);
 301              		.loc 1 379 3 is_stmt 1 view .LVU73
 379:Core/Src/main.c ****   HAL_GPIO_Init(LORA_EXTI_GPIO_Port, &GPIO_InitStruct);
 302              		.loc 1 379 24 is_stmt 0 view .LVU74
 303 00aa 0594     		str	r4, [sp, #20]
 380:Core/Src/main.c **** 
 304              		.loc 1 380 3 is_stmt 1 view .LVU75
 305 00ac 03A9     		add	r1, sp, #12
 306 00ae 2846     		mov	r0, r5
 307 00b0 FFF7FEFF 		bl	HAL_GPIO_Init
 308              	.LVL8:
 383:Core/Src/main.c ****   GPIO_InitStruct.Mode = GPIO_MODE_OUTPUT_PP;
 309              		.loc 1 383 3 view .LVU76
ARM GAS  C:\Users\jdcox\AppData\Local\Temp\cczPUCDJ.s 			page 19


 383:Core/Src/main.c ****   GPIO_InitStruct.Mode = GPIO_MODE_OUTPUT_PP;
 310              		.loc 1 383 23 is_stmt 0 view .LVU77
 311 00b4 4FF4C063 		mov	r3, #1536
 312 00b8 0393     		str	r3, [sp, #12]
 384:Core/Src/main.c ****   GPIO_InitStruct.Pull = GPIO_NOPULL;
 313              		.loc 1 384 3 is_stmt 1 view .LVU78
 384:Core/Src/main.c ****   GPIO_InitStruct.Pull = GPIO_NOPULL;
 314              		.loc 1 384 24 is_stmt 0 view .LVU79
 315 00ba 0496     		str	r6, [sp, #16]
 385:Core/Src/main.c ****   GPIO_InitStruct.Speed = GPIO_SPEED_FREQ_LOW;
 316              		.loc 1 385 3 is_stmt 1 view .LVU80
 385:Core/Src/main.c ****   GPIO_InitStruct.Speed = GPIO_SPEED_FREQ_LOW;
 317              		.loc 1 385 24 is_stmt 0 view .LVU81
 318 00bc 0594     		str	r4, [sp, #20]
 386:Core/Src/main.c ****   HAL_GPIO_Init(GPIOA, &GPIO_InitStruct);
 319              		.loc 1 386 3 is_stmt 1 view .LVU82
 386:Core/Src/main.c ****   HAL_GPIO_Init(GPIOA, &GPIO_InitStruct);
 320              		.loc 1 386 25 is_stmt 0 view .LVU83
 321 00be 0694     		str	r4, [sp, #24]
 387:Core/Src/main.c **** 
 322              		.loc 1 387 3 is_stmt 1 view .LVU84
 323 00c0 03A9     		add	r1, sp, #12
 324 00c2 2846     		mov	r0, r5
 325 00c4 FFF7FEFF 		bl	HAL_GPIO_Init
 326              	.LVL9:
 390:Core/Src/main.c ****   HAL_NVIC_EnableIRQ(EXTI0_IRQn);
 327              		.loc 1 390 3 view .LVU85
 328 00c8 2246     		mov	r2, r4
 329 00ca 0521     		movs	r1, #5
 330 00cc 3846     		mov	r0, r7
 331 00ce FFF7FEFF 		bl	HAL_NVIC_SetPriority
 332              	.LVL10:
 391:Core/Src/main.c **** 
 333              		.loc 1 391 3 view .LVU86
 334 00d2 3846     		mov	r0, r7
 335 00d4 FFF7FEFF 		bl	HAL_NVIC_EnableIRQ
 336              	.LVL11:
 393:Core/Src/main.c **** 
 337              		.loc 1 393 1 is_stmt 0 view .LVU87
 338 00d8 08B0     		add	sp, sp, #32
 339              	.LCFI2:
 340              		.cfi_def_cfa_offset 24
 341              		@ sp needed
 342 00da BDE8F081 		pop	{r4, r5, r6, r7, r8, pc}
 343              	.L15:
 344 00de 00BF     		.align	2
 345              	.L14:
 346 00e0 00380240 		.word	1073887232
 347 00e4 00000240 		.word	1073872896
 348 00e8 00040240 		.word	1073873920
 349              		.cfi_endproc
 350              	.LFE143:
 352              		.section	.text.MX_DMA_Init,"ax",%progbits
 353              		.align	1
 354              		.syntax unified
 355              		.thumb
 356              		.thumb_func
ARM GAS  C:\Users\jdcox\AppData\Local\Temp\cczPUCDJ.s 			page 20


 358              	MX_DMA_Init:
 359              	.LFB142:
 321:Core/Src/main.c **** 
 360              		.loc 1 321 1 is_stmt 1 view -0
 361              		.cfi_startproc
 362              		@ args = 0, pretend = 0, frame = 8
 363              		@ frame_needed = 0, uses_anonymous_args = 0
 364 0000 10B5     		push	{r4, lr}
 365              	.LCFI3:
 366              		.cfi_def_cfa_offset 8
 367              		.cfi_offset 4, -8
 368              		.cfi_offset 14, -4
 369 0002 82B0     		sub	sp, sp, #8
 370              	.LCFI4:
 371              		.cfi_def_cfa_offset 16
 324:Core/Src/main.c ****   __HAL_RCC_DMA2_CLK_ENABLE();
 372              		.loc 1 324 3 view .LVU89
 373              	.LBB7:
 324:Core/Src/main.c ****   __HAL_RCC_DMA2_CLK_ENABLE();
 374              		.loc 1 324 3 view .LVU90
 375 0004 0024     		movs	r4, #0
 376 0006 0094     		str	r4, [sp]
 324:Core/Src/main.c ****   __HAL_RCC_DMA2_CLK_ENABLE();
 377              		.loc 1 324 3 view .LVU91
 378 0008 164B     		ldr	r3, .L18
 379 000a 1A6B     		ldr	r2, [r3, #48]
 380 000c 42F40012 		orr	r2, r2, #2097152
 381 0010 1A63     		str	r2, [r3, #48]
 324:Core/Src/main.c ****   __HAL_RCC_DMA2_CLK_ENABLE();
 382              		.loc 1 324 3 view .LVU92
 383 0012 1A6B     		ldr	r2, [r3, #48]
 384 0014 02F40012 		and	r2, r2, #2097152
 385 0018 0092     		str	r2, [sp]
 324:Core/Src/main.c ****   __HAL_RCC_DMA2_CLK_ENABLE();
 386              		.loc 1 324 3 view .LVU93
 387 001a 009A     		ldr	r2, [sp]
 388              	.LBE7:
 324:Core/Src/main.c ****   __HAL_RCC_DMA2_CLK_ENABLE();
 389              		.loc 1 324 3 view .LVU94
 325:Core/Src/main.c **** 
 390              		.loc 1 325 3 view .LVU95
 391              	.LBB8:
 325:Core/Src/main.c **** 
 392              		.loc 1 325 3 view .LVU96
 393 001c 0194     		str	r4, [sp, #4]
 325:Core/Src/main.c **** 
 394              		.loc 1 325 3 view .LVU97
 395 001e 1A6B     		ldr	r2, [r3, #48]
 396 0020 42F48002 		orr	r2, r2, #4194304
 397 0024 1A63     		str	r2, [r3, #48]
 325:Core/Src/main.c **** 
 398              		.loc 1 325 3 view .LVU98
 399 0026 1B6B     		ldr	r3, [r3, #48]
 400 0028 03F48003 		and	r3, r3, #4194304
 401 002c 0193     		str	r3, [sp, #4]
 325:Core/Src/main.c **** 
 402              		.loc 1 325 3 view .LVU99
ARM GAS  C:\Users\jdcox\AppData\Local\Temp\cczPUCDJ.s 			page 21


 403 002e 019B     		ldr	r3, [sp, #4]
 404              	.LBE8:
 325:Core/Src/main.c **** 
 405              		.loc 1 325 3 view .LVU100
 329:Core/Src/main.c ****   HAL_NVIC_EnableIRQ(DMA1_Stream6_IRQn);
 406              		.loc 1 329 3 view .LVU101
 407 0030 2246     		mov	r2, r4
 408 0032 0521     		movs	r1, #5
 409 0034 1120     		movs	r0, #17
 410 0036 FFF7FEFF 		bl	HAL_NVIC_SetPriority
 411              	.LVL12:
 330:Core/Src/main.c ****   /* DMA2_Stream0_IRQn interrupt configuration */
 412              		.loc 1 330 3 view .LVU102
 413 003a 1120     		movs	r0, #17
 414 003c FFF7FEFF 		bl	HAL_NVIC_EnableIRQ
 415              	.LVL13:
 332:Core/Src/main.c ****   HAL_NVIC_EnableIRQ(DMA2_Stream0_IRQn);
 416              		.loc 1 332 3 view .LVU103
 417 0040 2246     		mov	r2, r4
 418 0042 0521     		movs	r1, #5
 419 0044 3820     		movs	r0, #56
 420 0046 FFF7FEFF 		bl	HAL_NVIC_SetPriority
 421              	.LVL14:
 333:Core/Src/main.c ****   /* DMA2_Stream3_IRQn interrupt configuration */
 422              		.loc 1 333 3 view .LVU104
 423 004a 3820     		movs	r0, #56
 424 004c FFF7FEFF 		bl	HAL_NVIC_EnableIRQ
 425              	.LVL15:
 335:Core/Src/main.c ****   HAL_NVIC_EnableIRQ(DMA2_Stream3_IRQn);
 426              		.loc 1 335 3 view .LVU105
 427 0050 2246     		mov	r2, r4
 428 0052 0521     		movs	r1, #5
 429 0054 3B20     		movs	r0, #59
 430 0056 FFF7FEFF 		bl	HAL_NVIC_SetPriority
 431              	.LVL16:
 336:Core/Src/main.c **** 
 432              		.loc 1 336 3 view .LVU106
 433 005a 3B20     		movs	r0, #59
 434 005c FFF7FEFF 		bl	HAL_NVIC_EnableIRQ
 435              	.LVL17:
 338:Core/Src/main.c **** 
 436              		.loc 1 338 1 is_stmt 0 view .LVU107
 437 0060 02B0     		add	sp, sp, #8
 438              	.LCFI5:
 439              		.cfi_def_cfa_offset 8
 440              		@ sp needed
 441 0062 10BD     		pop	{r4, pc}
 442              	.L19:
 443              		.align	2
 444              	.L18:
 445 0064 00380240 		.word	1073887232
 446              		.cfi_endproc
 447              	.LFE142:
 449              		.section	.text.StartDisplayTask,"ax",%progbits
 450              		.align	1
 451              		.global	StartDisplayTask
 452              		.syntax unified
ARM GAS  C:\Users\jdcox\AppData\Local\Temp\cczPUCDJ.s 			page 22


 453              		.thumb
 454              		.thumb_func
 456              	StartDisplayTask:
 457              	.LFB146:
 611:Core/Src/main.c ****   /* USER CODE BEGIN StartDisplayTask */
 458              		.loc 1 611 1 is_stmt 1 view -0
 459              		.cfi_startproc
 460              		@ Volatile: function does not return.
 461              		@ args = 0, pretend = 0, frame = 0
 462              		@ frame_needed = 0, uses_anonymous_args = 0
 463              	.LVL18:
 611:Core/Src/main.c ****   /* USER CODE BEGIN StartDisplayTask */
 464              		.loc 1 611 1 is_stmt 0 view .LVU109
 465 0000 08B5     		push	{r3, lr}
 466              	.LCFI6:
 467              		.cfi_def_cfa_offset 8
 468              		.cfi_offset 3, -8
 469              		.cfi_offset 14, -4
 470              	.LVL19:
 471              	.L21:
 614:Core/Src/main.c ****   {
 472              		.loc 1 614 3 is_stmt 1 discriminator 1 view .LVU110
 617:Core/Src/main.c ****   }
 473              		.loc 1 617 5 discriminator 1 view .LVU111
 474 0002 6420     		movs	r0, #100
 475 0004 FFF7FEFF 		bl	osDelay
 476              	.LVL20:
 614:Core/Src/main.c ****   {
 477              		.loc 1 614 3 discriminator 1 view .LVU112
 478 0008 FBE7     		b	.L21
 479              		.cfi_endproc
 480              	.LFE146:
 482              		.section	.rodata.StartDefaultTask.str1.4,"aMS",%progbits,1
 483              		.align	2
 484              	.LC6:
 485 0000 4A6F7368 		.ascii	"Josh wins\000"
 485      2077696E 
 485      7300
 486 000a 0000     		.align	2
 487              	.LC8:
 488 000c 4B494E47 		.ascii	"KING\000"
 488      00
 489 0011 000000   		.align	2
 490              	.LC9:
 491 0014 4F4600   		.ascii	"OF\000"
 492 0017 00       		.align	2
 493              	.LC10:
 494 0018 54484500 		.ascii	"THE\000"
 495              		.align	2
 496              	.LC11:
 497 001c 48494C4C 		.ascii	"HILL\000"
 497      00
 498 0021 000000   		.align	2
 499              	.LC12:
 500 0024 50757368 		.ascii	"Push to play\000"
 500      20746F20 
 500      706C6179 
ARM GAS  C:\Users\jdcox\AppData\Local\Temp\cczPUCDJ.s 			page 23


 500      00
 501 0031 000000   		.align	2
 502              	.LC13:
 503 0034 596F7520 		.ascii	"You are king\000"
 503      61726520 
 503      6B696E67 
 503      00
 504 0041 000000   		.align	2
 505              	.LC14:
 506 0044 6F662074 		.ascii	"of the hill!\000"
 506      68652068 
 506      696C6C21 
 506      00
 507 0051 000000   		.align	2
 508              	.LC15:
 509 0054 54616B65 		.ascii	"Take the hill!!\000"
 509      20746865 
 509      2068696C 
 509      6C212100 
 510              		.align	2
 511              	.LC16:
 512 0064 50312077 		.ascii	"P1 wins!\000"
 512      696E7321 
 512      00
 513 006d 000000   		.align	2
 514              	.LC17:
 515 0070 576F6E20 		.ascii	"Won by %ums\000"
 515      62792025 
 515      756D7300 
 516              		.align	2
 517              	.LC18:
 518 007c 50322077 		.ascii	"P2 wins!\000"
 518      696E7321 
 518      00
 519 0085 000000   		.align	2
 520              	.LC19:
 521 0088 50656E61 		.ascii	"Penalty!\000"
 521      6C747921 
 521      00
 522              		.section	.text.StartDefaultTask,"ax",%progbits
 523              		.align	1
 524              		.global	StartDefaultTask
 525              		.syntax unified
 526              		.thumb
 527              		.thumb_func
 529              	StartDefaultTask:
 530              	.LVL21:
 531              	.LFB144:
 407:Core/Src/main.c ****   /* USER CODE BEGIN 5 */
 532              		.loc 1 407 1 view -0
 533              		.cfi_startproc
 534              		@ args = 0, pretend = 0, frame = 96
 535              		@ frame_needed = 0, uses_anonymous_args = 0
 407:Core/Src/main.c ****   /* USER CODE BEGIN 5 */
 536              		.loc 1 407 1 is_stmt 0 view .LVU114
 537 0000 70B5     		push	{r4, r5, r6, lr}
 538              	.LCFI7:
ARM GAS  C:\Users\jdcox\AppData\Local\Temp\cczPUCDJ.s 			page 24


 539              		.cfi_def_cfa_offset 16
 540              		.cfi_offset 4, -16
 541              		.cfi_offset 5, -12
 542              		.cfi_offset 6, -8
 543              		.cfi_offset 14, -4
 544 0002 98B0     		sub	sp, sp, #96
 545              	.LCFI8:
 546              		.cfi_def_cfa_offset 112
 409:Core/Src/main.c ****   //xSemaphoreTake(xloraMutex, portMAX_DELAY);
 547              		.loc 1 409 3 is_stmt 1 view .LVU115
 409:Core/Src/main.c ****   //xSemaphoreTake(xloraMutex, portMAX_DELAY);
 548              		.loc 1 409 16 is_stmt 0 view .LVU116
 549 0004 0120     		movs	r0, #1
 550              	.LVL22:
 409:Core/Src/main.c ****   //xSemaphoreTake(xloraMutex, portMAX_DELAY);
 551              		.loc 1 409 16 view .LVU117
 552 0006 FFF7FEFF 		bl	xQueueCreateMutex
 553              	.LVL23:
 409:Core/Src/main.c ****   //xSemaphoreTake(xloraMutex, portMAX_DELAY);
 554              		.loc 1 409 14 view .LVU118
 555 000a BA4B     		ldr	r3, .L39
 556 000c 1860     		str	r0, [r3]
 413:Core/Src/main.c **** 
 557              		.loc 1 413 3 is_stmt 1 view .LVU119
 413:Core/Src/main.c **** 
 558              		.loc 1 413 12 is_stmt 0 view .LVU120
 559 000e BA4E     		ldr	r6, .L39+4
 560 0010 6846     		mov	r0, sp
 561 0012 FFF7FEFF 		bl	newLoRa
 562              	.LVL24:
 563 0016 3546     		mov	r5, r6
 564 0018 6C46     		mov	r4, sp
 565 001a 0FCC     		ldmia	r4!, {r0, r1, r2, r3}
 566 001c 0FC5     		stmia	r5!, {r0, r1, r2, r3}
 567 001e 0FCC     		ldmia	r4!, {r0, r1, r2, r3}
 568 0020 0FC5     		stmia	r5!, {r0, r1, r2, r3}
 569 0022 94E80700 		ldm	r4, {r0, r1, r2}
 570 0026 85E80700 		stm	r5, {r0, r1, r2}
 416:Core/Src/main.c ****     myLoRa.CS_pin          = LORA_CS_Pin;
 571              		.loc 1 416 5 is_stmt 1 view .LVU121
 416:Core/Src/main.c ****     myLoRa.CS_pin          = LORA_CS_Pin;
 572              		.loc 1 416 28 is_stmt 0 view .LVU122
 573 002a B44B     		ldr	r3, .L39+8
 574 002c 3360     		str	r3, [r6]
 417:Core/Src/main.c ****     myLoRa.reset_port      = LORA_RST_GPIO_Port;
 575              		.loc 1 417 5 is_stmt 1 view .LVU123
 417:Core/Src/main.c ****     myLoRa.reset_port      = LORA_RST_GPIO_Port;
 576              		.loc 1 417 28 is_stmt 0 view .LVU124
 577 002e 4FF48062 		mov	r2, #1024
 578 0032 B280     		strh	r2, [r6, #4]	@ movhi
 418:Core/Src/main.c ****     myLoRa.reset_pin       = LORA_RST_Pin;
 579              		.loc 1 418 5 is_stmt 1 view .LVU125
 418:Core/Src/main.c ****     myLoRa.reset_pin       = LORA_RST_Pin;
 580              		.loc 1 418 28 is_stmt 0 view .LVU126
 581 0034 B360     		str	r3, [r6, #8]
 419:Core/Src/main.c ****     myLoRa.DIO0_port       = LORA_EXTI_GPIO_Port;
 582              		.loc 1 419 5 is_stmt 1 view .LVU127
ARM GAS  C:\Users\jdcox\AppData\Local\Temp\cczPUCDJ.s 			page 25


 419:Core/Src/main.c ****     myLoRa.DIO0_port       = LORA_EXTI_GPIO_Port;
 583              		.loc 1 419 28 is_stmt 0 view .LVU128
 584 0036 4FF40072 		mov	r2, #512
 585 003a B281     		strh	r2, [r6, #12]	@ movhi
 420:Core/Src/main.c ****     myLoRa.DIO0_pin        = LORA_EXTI_Pin;
 586              		.loc 1 420 5 is_stmt 1 view .LVU129
 420:Core/Src/main.c ****     myLoRa.DIO0_pin        = LORA_EXTI_Pin;
 587              		.loc 1 420 28 is_stmt 0 view .LVU130
 588 003c 3361     		str	r3, [r6, #16]
 421:Core/Src/main.c ****     myLoRa.hSPIx           = &hspi1;
 589              		.loc 1 421 5 is_stmt 1 view .LVU131
 421:Core/Src/main.c ****     myLoRa.hSPIx           = &hspi1;
 590              		.loc 1 421 28 is_stmt 0 view .LVU132
 591 003e 4FF48073 		mov	r3, #256
 592 0042 B382     		strh	r3, [r6, #20]	@ movhi
 422:Core/Src/main.c **** 
 593              		.loc 1 422 5 is_stmt 1 view .LVU133
 422:Core/Src/main.c **** 
 594              		.loc 1 422 28 is_stmt 0 view .LVU134
 595 0044 AE4B     		ldr	r3, .L39+12
 596 0046 B361     		str	r3, [r6, #24]
 425:Core/Src/main.c ****   sprintf(opcodeString,"Josh wins", 10);
 597              		.loc 1 425 3 is_stmt 1 view .LVU135
 425:Core/Src/main.c ****   sprintf(opcodeString,"Josh wins", 10);
 598              		.loc 1 425 26 is_stmt 0 view .LVU136
 599 0048 3046     		mov	r0, r6
 600 004a FFF7FEFF 		bl	LoRa_init
 601              	.LVL25:
 602 004e 0446     		mov	r4, r0
 603              	.LVL26:
 426:Core/Src/main.c ****   if(LoRa_Status == LORA_OK)
 604              		.loc 1 426 3 is_stmt 1 view .LVU137
 605 0050 0A22     		movs	r2, #10
 606 0052 AC49     		ldr	r1, .L39+16
 607 0054 AC48     		ldr	r0, .L39+20
 608 0056 FFF7FEFF 		bl	sprintf
 609              	.LVL27:
 427:Core/Src/main.c ****   {
 610              		.loc 1 427 3 view .LVU138
 427:Core/Src/main.c ****   {
 611              		.loc 1 427 5 is_stmt 0 view .LVU139
 612 005a C82C     		cmp	r4, #200
 613 005c 6BD0     		beq	.L37
 433:Core/Src/main.c ****   }
 614              		.loc 1 433 5 is_stmt 1 view .LVU140
 433:Core/Src/main.c ****   }
 615              		.loc 1 433 16 is_stmt 0 view .LVU141
 616 005e AB4B     		ldr	r3, .L39+24
 617 0060 0922     		movs	r2, #9
 618 0062 1A80     		strh	r2, [r3]	@ movhi
 619              	.L25:
 436:Core/Src/main.c ****   
 620              		.loc 1 436 3 is_stmt 1 view .LVU142
 621 0064 A448     		ldr	r0, .L39+4
 622 0066 FFF7FEFF 		bl	LoRa_startReceiving
 623              	.LVL28:
 441:Core/Src/main.c ****   loraRXTaskHandle = osThreadCreate(osThread(loraRXTask), NULL);
ARM GAS  C:\Users\jdcox\AppData\Local\Temp\cczPUCDJ.s 			page 26


 624              		.loc 1 441 3 view .LVU143
 625 006a 11AC     		add	r4, sp, #68
 626              	.LVL29:
 441:Core/Src/main.c ****   loraRXTaskHandle = osThreadCreate(osThread(loraRXTask), NULL);
 627              		.loc 1 441 3 is_stmt 0 view .LVU144
 628 006c A84D     		ldr	r5, .L39+28
 629 006e 0FCD     		ldmia	r5!, {r0, r1, r2, r3}
 630 0070 0FC4     		stmia	r4!, {r0, r1, r2, r3}
 631 0072 95E80700 		ldm	r5, {r0, r1, r2}
 632 0076 84E80700 		stm	r4, {r0, r1, r2}
 442:Core/Src/main.c **** 
 633              		.loc 1 442 3 is_stmt 1 view .LVU145
 442:Core/Src/main.c **** 
 634              		.loc 1 442 22 is_stmt 0 view .LVU146
 635 007a 0021     		movs	r1, #0
 636 007c 11A8     		add	r0, sp, #68
 637 007e FFF7FEFF 		bl	osThreadCreate
 638              	.LVL30:
 442:Core/Src/main.c **** 
 639              		.loc 1 442 20 view .LVU147
 640 0082 A44B     		ldr	r3, .L39+32
 641 0084 1860     		str	r0, [r3]
 444:Core/Src/main.c ****   ssd1306_Init();
 642              		.loc 1 444 3 is_stmt 1 view .LVU148
 643 0086 0122     		movs	r2, #1
 644 0088 0221     		movs	r1, #2
 645 008a A348     		ldr	r0, .L39+36
 646 008c FFF7FEFF 		bl	HAL_GPIO_WritePin
 647              	.LVL31:
 445:Core/Src/main.c ****   ssd1306_SetCursor(0,0);
 648              		.loc 1 445 3 view .LVU149
 649 0090 FFF7FEFF 		bl	ssd1306_Init
 650              	.LVL32:
 446:Core/Src/main.c ****   ssd1306_WriteString("KING",Font_16x24,1);
 651              		.loc 1 446 3 view .LVU150
 652 0094 0021     		movs	r1, #0
 653 0096 0846     		mov	r0, r1
 654 0098 FFF7FEFF 		bl	ssd1306_SetCursor
 655              	.LVL33:
 447:Core/Src/main.c ****   ssd1306_UpdateScreen();
 656              		.loc 1 447 3 view .LVU151
 657 009c 9F4C     		ldr	r4, .L39+40
 658 009e 0123     		movs	r3, #1
 659 00a0 94E80600 		ldm	r4, {r1, r2}
 660 00a4 9E48     		ldr	r0, .L39+44
 661 00a6 FFF7FEFF 		bl	ssd1306_WriteString
 662              	.LVL34:
 448:Core/Src/main.c ****   osDelay(500);
 663              		.loc 1 448 3 view .LVU152
 664 00aa FFF7FEFF 		bl	ssd1306_UpdateScreen
 665              	.LVL35:
 449:Core/Src/main.c ****   ssd1306_Fill(0);
 666              		.loc 1 449 3 view .LVU153
 667 00ae 4FF4FA70 		mov	r0, #500
 668 00b2 FFF7FEFF 		bl	osDelay
 669              	.LVL36:
 450:Core/Src/main.c ****   ssd1306_SetCursor(64,0);
ARM GAS  C:\Users\jdcox\AppData\Local\Temp\cczPUCDJ.s 			page 27


 670              		.loc 1 450 3 view .LVU154
 671 00b6 0020     		movs	r0, #0
 672 00b8 FFF7FEFF 		bl	ssd1306_Fill
 673              	.LVL37:
 451:Core/Src/main.c ****   ssd1306_WriteString("OF",Font_16x24,1);
 674              		.loc 1 451 3 view .LVU155
 675 00bc 0021     		movs	r1, #0
 676 00be 4020     		movs	r0, #64
 677 00c0 FFF7FEFF 		bl	ssd1306_SetCursor
 678              	.LVL38:
 452:Core/Src/main.c ****   ssd1306_UpdateScreen();
 679              		.loc 1 452 3 view .LVU156
 680 00c4 0123     		movs	r3, #1
 681 00c6 94E80600 		ldm	r4, {r1, r2}
 682 00ca 9648     		ldr	r0, .L39+48
 683 00cc FFF7FEFF 		bl	ssd1306_WriteString
 684              	.LVL39:
 453:Core/Src/main.c ****   osDelay(500);
 685              		.loc 1 453 3 view .LVU157
 686 00d0 FFF7FEFF 		bl	ssd1306_UpdateScreen
 687              	.LVL40:
 454:Core/Src/main.c ****   ssd1306_Fill(0);
 688              		.loc 1 454 3 view .LVU158
 689 00d4 4FF4FA70 		mov	r0, #500
 690 00d8 FFF7FEFF 		bl	osDelay
 691              	.LVL41:
 455:Core/Src/main.c ****   ssd1306_SetCursor(0,8);
 692              		.loc 1 455 3 view .LVU159
 693 00dc 0020     		movs	r0, #0
 694 00de FFF7FEFF 		bl	ssd1306_Fill
 695              	.LVL42:
 456:Core/Src/main.c ****   ssd1306_WriteString("THE",Font_16x24,1);
 696              		.loc 1 456 3 view .LVU160
 697 00e2 0821     		movs	r1, #8
 698 00e4 0020     		movs	r0, #0
 699 00e6 FFF7FEFF 		bl	ssd1306_SetCursor
 700              	.LVL43:
 457:Core/Src/main.c ****   ssd1306_UpdateScreen();
 701              		.loc 1 457 3 view .LVU161
 702 00ea 0123     		movs	r3, #1
 703 00ec 94E80600 		ldm	r4, {r1, r2}
 704 00f0 8D48     		ldr	r0, .L39+52
 705 00f2 FFF7FEFF 		bl	ssd1306_WriteString
 706              	.LVL44:
 458:Core/Src/main.c ****   osDelay(500);
 707              		.loc 1 458 3 view .LVU162
 708 00f6 FFF7FEFF 		bl	ssd1306_UpdateScreen
 709              	.LVL45:
 459:Core/Src/main.c ****   ssd1306_Fill(0);
 710              		.loc 1 459 3 view .LVU163
 711 00fa 4FF4FA70 		mov	r0, #500
 712 00fe FFF7FEFF 		bl	osDelay
 713              	.LVL46:
 460:Core/Src/main.c ****   ssd1306_SetCursor(64,8);
 714              		.loc 1 460 3 view .LVU164
 715 0102 0020     		movs	r0, #0
 716 0104 FFF7FEFF 		bl	ssd1306_Fill
ARM GAS  C:\Users\jdcox\AppData\Local\Temp\cczPUCDJ.s 			page 28


 717              	.LVL47:
 461:Core/Src/main.c ****   ssd1306_WriteString("HILL",Font_16x24,1);
 718              		.loc 1 461 3 view .LVU165
 719 0108 0821     		movs	r1, #8
 720 010a 4020     		movs	r0, #64
 721 010c FFF7FEFF 		bl	ssd1306_SetCursor
 722              	.LVL48:
 462:Core/Src/main.c ****   ssd1306_UpdateScreen();
 723              		.loc 1 462 3 view .LVU166
 724 0110 0123     		movs	r3, #1
 725 0112 94E80600 		ldm	r4, {r1, r2}
 726 0116 8548     		ldr	r0, .L39+56
 727 0118 FFF7FEFF 		bl	ssd1306_WriteString
 728              	.LVL49:
 463:Core/Src/main.c **** 
 729              		.loc 1 463 3 view .LVU167
 730 011c FFF7FEFF 		bl	ssd1306_UpdateScreen
 731              	.LVL50:
 467:Core/Src/main.c **** 
 732              		.loc 1 467 3 view .LVU168
 733 0120 4FF47A70 		mov	r0, #1000
 734 0124 FFF7FEFF 		bl	osDelay
 735              	.LVL51:
 469:Core/Src/main.c ****   stateChange_flag = 1;
 736              		.loc 1 469 3 view .LVU169
 469:Core/Src/main.c ****   stateChange_flag = 1;
 737              		.loc 1 469 13 is_stmt 0 view .LVU170
 738 0128 814B     		ldr	r3, .L39+60
 739 012a 0022     		movs	r2, #0
 740 012c 1A70     		strb	r2, [r3]
 470:Core/Src/main.c ****   
 741              		.loc 1 470 3 is_stmt 1 view .LVU171
 470:Core/Src/main.c ****   
 742              		.loc 1 470 20 is_stmt 0 view .LVU172
 743 012e 814B     		ldr	r3, .L39+64
 744 0130 0122     		movs	r2, #1
 745 0132 1A70     		strb	r2, [r3]
 746 0134 0CE0     		b	.L34
 747              	.LVL52:
 748              	.L37:
 429:Core/Src/main.c ****   }
 749              		.loc 1 429 5 is_stmt 1 view .LVU173
 750 0136 6423     		movs	r3, #100
 751 0138 0C22     		movs	r2, #12
 752 013a 7349     		ldr	r1, .L39+20
 753 013c 3046     		mov	r0, r6
 754 013e FFF7FEFF 		bl	LoRa_transmit
 755              	.LVL53:
 756 0142 8FE7     		b	.L25
 757              	.LVL54:
 758              	.L33:
 482:Core/Src/main.c ****         {
 759              		.loc 1 482 9 view .LVU174
 482:Core/Src/main.c ****         {
 760              		.loc 1 482 12 is_stmt 0 view .LVU175
 761 0144 7B4B     		ldr	r3, .L39+64
 762 0146 1B78     		ldrb	r3, [r3]	@ zero_extendqisi2
ARM GAS  C:\Users\jdcox\AppData\Local\Temp\cczPUCDJ.s 			page 29


 482:Core/Src/main.c ****         {
 763              		.loc 1 482 11 view .LVU176
 764 0148 D3B9     		cbnz	r3, .L38
 765              	.L26:
 569:Core/Src/main.c ****    
 766              		.loc 1 569 5 is_stmt 1 view .LVU177
 767 014a 0120     		movs	r0, #1
 768 014c FFF7FEFF 		bl	osDelay
 769              	.LVL55:
 474:Core/Src/main.c ****   {
 770              		.loc 1 474 3 view .LVU178
 771              	.L34:
 474:Core/Src/main.c ****   {
 772              		.loc 1 474 3 view .LVU179
 477:Core/Src/main.c ****     
 773              		.loc 1 477 5 view .LVU180
 774 0150 0221     		movs	r1, #2
 775 0152 7148     		ldr	r0, .L39+36
 776 0154 FFF7FEFF 		bl	HAL_GPIO_TogglePin
 777              	.LVL56:
 479:Core/Src/main.c ****     {
 778              		.loc 1 479 5 view .LVU181
 779 0158 754B     		ldr	r3, .L39+60
 780 015a 1B78     		ldrb	r3, [r3]	@ zero_extendqisi2
 781 015c 052B     		cmp	r3, #5
 782 015e F4D8     		bhi	.L26
 783 0160 01A2     		adr	r2, .L28
 784 0162 52F823F0 		ldr	pc, [r2, r3, lsl #2]
 785 0166 00BF     		.p2align 2
 786              	.L28:
 787 0168 45010000 		.word	.L33+1
 788 016c A7010000 		.word	.L32+1
 789 0170 F5010000 		.word	.L31+1
 790 0174 2D020000 		.word	.L30+1
 791 0178 8F020000 		.word	.L29+1
 792 017c 61030000 		.word	.L27+1
 793              		.p2align 1
 794              	.L38:
 484:Core/Src/main.c ****           ssd1306_Fill(0); 
 795              		.loc 1 484 11 view .LVU182
 484:Core/Src/main.c ****           ssd1306_Fill(0); 
 796              		.loc 1 484 28 is_stmt 0 view .LVU183
 797 0180 0024     		movs	r4, #0
 798 0182 6C4B     		ldr	r3, .L39+64
 799 0184 1C70     		strb	r4, [r3]
 485:Core/Src/main.c ****           ssd1306_SetCursor(0,0);
 800              		.loc 1 485 11 is_stmt 1 view .LVU184
 801 0186 2046     		mov	r0, r4
 802 0188 FFF7FEFF 		bl	ssd1306_Fill
 803              	.LVL57:
 486:Core/Src/main.c ****           ssd1306_WriteString("Push to play",Font_7x10,1);
 804              		.loc 1 486 11 view .LVU185
 805 018c 2146     		mov	r1, r4
 806 018e 2046     		mov	r0, r4
 807 0190 FFF7FEFF 		bl	ssd1306_SetCursor
 808              	.LVL58:
 487:Core/Src/main.c ****           ssd1306_UpdateScreen();
ARM GAS  C:\Users\jdcox\AppData\Local\Temp\cczPUCDJ.s 			page 30


 809              		.loc 1 487 11 view .LVU186
 810 0194 684A     		ldr	r2, .L39+68
 811 0196 0123     		movs	r3, #1
 812 0198 06CA     		ldm	r2, {r1, r2}
 813 019a 6848     		ldr	r0, .L39+72
 814 019c FFF7FEFF 		bl	ssd1306_WriteString
 815              	.LVL59:
 488:Core/Src/main.c ****         }
 816              		.loc 1 488 11 view .LVU187
 817 01a0 FFF7FEFF 		bl	ssd1306_UpdateScreen
 818              	.LVL60:
 819 01a4 D1E7     		b	.L26
 820              	.L32:
 493:Core/Src/main.c ****         {
 821              		.loc 1 493 9 view .LVU188
 493:Core/Src/main.c ****         {
 822              		.loc 1 493 12 is_stmt 0 view .LVU189
 823 01a6 634B     		ldr	r3, .L39+64
 824 01a8 1B78     		ldrb	r3, [r3]	@ zero_extendqisi2
 493:Core/Src/main.c ****         {
 825              		.loc 1 493 11 view .LVU190
 826 01aa 002B     		cmp	r3, #0
 827 01ac CDD0     		beq	.L26
 495:Core/Src/main.c ****           P1LED_OFF; // The hill is yours
 828              		.loc 1 495 11 is_stmt 1 view .LVU191
 495:Core/Src/main.c ****           P1LED_OFF; // The hill is yours
 829              		.loc 1 495 28 is_stmt 0 view .LVU192
 830 01ae 0024     		movs	r4, #0
 831 01b0 604B     		ldr	r3, .L39+64
 832 01b2 1C70     		strb	r4, [r3]
 496:Core/Src/main.c ****           ssd1306_Fill(0);
 833              		.loc 1 496 11 is_stmt 1 view .LVU193
 834 01b4 0122     		movs	r2, #1
 835 01b6 0221     		movs	r1, #2
 836 01b8 5748     		ldr	r0, .L39+36
 837 01ba FFF7FEFF 		bl	HAL_GPIO_WritePin
 838              	.LVL61:
 497:Core/Src/main.c ****           ssd1306_SetCursor(0,0);
 839              		.loc 1 497 11 view .LVU194
 840 01be 2046     		mov	r0, r4
 841 01c0 FFF7FEFF 		bl	ssd1306_Fill
 842              	.LVL62:
 498:Core/Src/main.c ****           ssd1306_WriteString("You are king",Font_7x10,1);
 843              		.loc 1 498 11 view .LVU195
 844 01c4 2146     		mov	r1, r4
 845 01c6 2046     		mov	r0, r4
 846 01c8 FFF7FEFF 		bl	ssd1306_SetCursor
 847              	.LVL63:
 499:Core/Src/main.c ****           ssd1306_SetCursor(0,10);
 848              		.loc 1 499 11 view .LVU196
 849 01cc 5A4D     		ldr	r5, .L39+68
 850 01ce 0123     		movs	r3, #1
 851 01d0 95E80600 		ldm	r5, {r1, r2}
 852 01d4 5A48     		ldr	r0, .L39+76
 853 01d6 FFF7FEFF 		bl	ssd1306_WriteString
 854              	.LVL64:
 500:Core/Src/main.c ****           ssd1306_WriteString("of the hill!",Font_7x10,1);
ARM GAS  C:\Users\jdcox\AppData\Local\Temp\cczPUCDJ.s 			page 31


 855              		.loc 1 500 11 view .LVU197
 856 01da 0A21     		movs	r1, #10
 857 01dc 2046     		mov	r0, r4
 858 01de FFF7FEFF 		bl	ssd1306_SetCursor
 859              	.LVL65:
 501:Core/Src/main.c ****           ssd1306_UpdateScreen();
 860              		.loc 1 501 11 view .LVU198
 861 01e2 0123     		movs	r3, #1
 862 01e4 95E80600 		ldm	r5, {r1, r2}
 863 01e8 5648     		ldr	r0, .L39+80
 864 01ea FFF7FEFF 		bl	ssd1306_WriteString
 865              	.LVL66:
 502:Core/Src/main.c ****         }
 866              		.loc 1 502 11 view .LVU199
 867 01ee FFF7FEFF 		bl	ssd1306_UpdateScreen
 868              	.LVL67:
 869 01f2 AAE7     		b	.L26
 870              	.L31:
 507:Core/Src/main.c ****         {
 871              		.loc 1 507 9 view .LVU200
 507:Core/Src/main.c ****         {
 872              		.loc 1 507 12 is_stmt 0 view .LVU201
 873 01f4 4F4B     		ldr	r3, .L39+64
 874 01f6 1B78     		ldrb	r3, [r3]	@ zero_extendqisi2
 507:Core/Src/main.c ****         {
 875              		.loc 1 507 11 view .LVU202
 876 01f8 002B     		cmp	r3, #0
 877 01fa A6D0     		beq	.L26
 509:Core/Src/main.c ****           P1LED_ON; // Better push the button!
 878              		.loc 1 509 11 is_stmt 1 view .LVU203
 509:Core/Src/main.c ****           P1LED_ON; // Better push the button!
 879              		.loc 1 509 28 is_stmt 0 view .LVU204
 880 01fc 0024     		movs	r4, #0
 881 01fe 4D4B     		ldr	r3, .L39+64
 882 0200 1C70     		strb	r4, [r3]
 510:Core/Src/main.c ****           ssd1306_Fill(0);
 883              		.loc 1 510 11 is_stmt 1 view .LVU205
 884 0202 2246     		mov	r2, r4
 885 0204 0221     		movs	r1, #2
 886 0206 4448     		ldr	r0, .L39+36
 887 0208 FFF7FEFF 		bl	HAL_GPIO_WritePin
 888              	.LVL68:
 511:Core/Src/main.c ****           ssd1306_SetCursor(0,0);
 889              		.loc 1 511 11 view .LVU206
 890 020c 2046     		mov	r0, r4
 891 020e FFF7FEFF 		bl	ssd1306_Fill
 892              	.LVL69:
 512:Core/Src/main.c ****           ssd1306_WriteString("Take the hill!!",Font_7x10,1);
 893              		.loc 1 512 11 view .LVU207
 894 0212 2146     		mov	r1, r4
 895 0214 2046     		mov	r0, r4
 896 0216 FFF7FEFF 		bl	ssd1306_SetCursor
 897              	.LVL70:
 513:Core/Src/main.c ****           ssd1306_UpdateScreen();
 898              		.loc 1 513 11 view .LVU208
 899 021a 474A     		ldr	r2, .L39+68
 900 021c 0123     		movs	r3, #1
ARM GAS  C:\Users\jdcox\AppData\Local\Temp\cczPUCDJ.s 			page 32


 901 021e 06CA     		ldm	r2, {r1, r2}
 902 0220 4948     		ldr	r0, .L39+84
 903 0222 FFF7FEFF 		bl	ssd1306_WriteString
 904              	.LVL71:
 514:Core/Src/main.c ****         }
 905              		.loc 1 514 11 view .LVU209
 906 0226 FFF7FEFF 		bl	ssd1306_UpdateScreen
 907              	.LVL72:
 908 022a 8EE7     		b	.L26
 909              	.L30:
 519:Core/Src/main.c ****         {
 910              		.loc 1 519 9 view .LVU210
 519:Core/Src/main.c ****         {
 911              		.loc 1 519 12 is_stmt 0 view .LVU211
 912 022c 414B     		ldr	r3, .L39+64
 913 022e 1B78     		ldrb	r3, [r3]	@ zero_extendqisi2
 519:Core/Src/main.c ****         {
 914              		.loc 1 519 11 view .LVU212
 915 0230 002B     		cmp	r3, #0
 916 0232 8AD0     		beq	.L26
 917              	.LBB9:
 521:Core/Src/main.c ****           P1LED_OFF;
 918              		.loc 1 521 11 is_stmt 1 view .LVU213
 521:Core/Src/main.c ****           P1LED_OFF;
 919              		.loc 1 521 28 is_stmt 0 view .LVU214
 920 0234 0024     		movs	r4, #0
 921 0236 3F4B     		ldr	r3, .L39+64
 922 0238 1C70     		strb	r4, [r3]
 522:Core/Src/main.c ****           ssd1306_Fill(0);
 923              		.loc 1 522 11 is_stmt 1 view .LVU215
 924 023a 0122     		movs	r2, #1
 925 023c 0221     		movs	r1, #2
 926 023e 3648     		ldr	r0, .L39+36
 927 0240 FFF7FEFF 		bl	HAL_GPIO_WritePin
 928              	.LVL73:
 523:Core/Src/main.c ****           ssd1306_SetCursor(0,0);
 929              		.loc 1 523 11 view .LVU216
 930 0244 2046     		mov	r0, r4
 931 0246 FFF7FEFF 		bl	ssd1306_Fill
 932              	.LVL74:
 524:Core/Src/main.c ****           ssd1306_WriteString("P1 wins!",Font_7x10,1);
 933              		.loc 1 524 11 view .LVU217
 934 024a 2146     		mov	r1, r4
 935 024c 2046     		mov	r0, r4
 936 024e FFF7FEFF 		bl	ssd1306_SetCursor
 937              	.LVL75:
 525:Core/Src/main.c ****           char score [16];
 938              		.loc 1 525 11 view .LVU218
 939 0252 394D     		ldr	r5, .L39+68
 940 0254 0123     		movs	r3, #1
 941 0256 95E80600 		ldm	r5, {r1, r2}
 942 025a 3C48     		ldr	r0, .L39+88
 943 025c FFF7FEFF 		bl	ssd1306_WriteString
 944              	.LVL76:
 526:Core/Src/main.c ****           uint16_t difference = p1King_counter - p2King_counter;
 945              		.loc 1 526 11 view .LVU219
 527:Core/Src/main.c ****           sprintf(score, "Won by %ums", difference);
ARM GAS  C:\Users\jdcox\AppData\Local\Temp\cczPUCDJ.s 			page 33


 946              		.loc 1 527 11 view .LVU220
 527:Core/Src/main.c ****           sprintf(score, "Won by %ums", difference);
 947              		.loc 1 527 48 is_stmt 0 view .LVU221
 948 0260 3B4B     		ldr	r3, .L39+92
 949 0262 1A88     		ldrh	r2, [r3]
 950 0264 3B4B     		ldr	r3, .L39+96
 951 0266 1B88     		ldrh	r3, [r3]
 527:Core/Src/main.c ****           sprintf(score, "Won by %ums", difference);
 952              		.loc 1 527 20 view .LVU222
 953 0268 D21A     		subs	r2, r2, r3
 954              	.LVL77:
 528:Core/Src/main.c ****           lcd_put_cur(1,0);
 955              		.loc 1 528 11 is_stmt 1 view .LVU223
 956 026a 92B2     		uxth	r2, r2
 528:Core/Src/main.c ****           lcd_put_cur(1,0);
 957              		.loc 1 528 11 is_stmt 0 view .LVU224
 958 026c 3A49     		ldr	r1, .L39+100
 959 026e 0DA8     		add	r0, sp, #52
 960 0270 FFF7FEFF 		bl	sprintf
 961              	.LVL78:
 529:Core/Src/main.c ****           ssd1306_WriteString(score,Font_7x10,1);
 962              		.loc 1 529 11 is_stmt 1 view .LVU225
 963 0274 2146     		mov	r1, r4
 964 0276 0120     		movs	r0, #1
 965 0278 FFF7FEFF 		bl	lcd_put_cur
 966              	.LVL79:
 530:Core/Src/main.c ****           ssd1306_UpdateScreen();
 967              		.loc 1 530 11 view .LVU226
 968 027c 0123     		movs	r3, #1
 969 027e 95E80600 		ldm	r5, {r1, r2}
 970 0282 0DA8     		add	r0, sp, #52
 971 0284 FFF7FEFF 		bl	ssd1306_WriteString
 972              	.LVL80:
 531:Core/Src/main.c **** 
 973              		.loc 1 531 11 view .LVU227
 974 0288 FFF7FEFF 		bl	ssd1306_UpdateScreen
 975              	.LVL81:
 976 028c 5DE7     		b	.L26
 977              	.L29:
 531:Core/Src/main.c **** 
 978              		.loc 1 531 11 is_stmt 0 view .LVU228
 979              	.LBE9:
 537:Core/Src/main.c ****         {
 980              		.loc 1 537 9 is_stmt 1 view .LVU229
 537:Core/Src/main.c ****         {
 981              		.loc 1 537 12 is_stmt 0 view .LVU230
 982 028e 294B     		ldr	r3, .L39+64
 983 0290 1B78     		ldrb	r3, [r3]	@ zero_extendqisi2
 537:Core/Src/main.c ****         {
 984              		.loc 1 537 11 view .LVU231
 985 0292 002B     		cmp	r3, #0
 986 0294 3FF459AF 		beq	.L26
 987              	.LBB10:
 539:Core/Src/main.c ****           P1LED_OFF;
 988              		.loc 1 539 11 is_stmt 1 view .LVU232
 539:Core/Src/main.c ****           P1LED_OFF;
 989              		.loc 1 539 28 is_stmt 0 view .LVU233
ARM GAS  C:\Users\jdcox\AppData\Local\Temp\cczPUCDJ.s 			page 34


 990 0298 0024     		movs	r4, #0
 991 029a 264B     		ldr	r3, .L39+64
 992 029c 1C70     		strb	r4, [r3]
 540:Core/Src/main.c ****           ssd1306_Fill(0);
 993              		.loc 1 540 11 is_stmt 1 view .LVU234
 994 029e 0122     		movs	r2, #1
 995 02a0 0221     		movs	r1, #2
 996 02a2 1D48     		ldr	r0, .L39+36
 997 02a4 FFF7FEFF 		bl	HAL_GPIO_WritePin
 998              	.LVL82:
 541:Core/Src/main.c ****           ssd1306_SetCursor(0,0);
 999              		.loc 1 541 11 view .LVU235
 1000 02a8 2046     		mov	r0, r4
 1001 02aa FFF7FEFF 		bl	ssd1306_Fill
 1002              	.LVL83:
 542:Core/Src/main.c ****           ssd1306_WriteString("P2 wins!",Font_7x10,1);
 1003              		.loc 1 542 11 view .LVU236
 1004 02ae 2146     		mov	r1, r4
 1005 02b0 2046     		mov	r0, r4
 1006 02b2 FFF7FEFF 		bl	ssd1306_SetCursor
 1007              	.LVL84:
 543:Core/Src/main.c ****           char score [16];
 1008              		.loc 1 543 11 view .LVU237
 1009 02b6 204D     		ldr	r5, .L39+68
 1010 02b8 0123     		movs	r3, #1
 1011 02ba 95E80600 		ldm	r5, {r1, r2}
 1012 02be 2748     		ldr	r0, .L39+104
 1013 02c0 FFF7FEFF 		bl	ssd1306_WriteString
 1014              	.LVL85:
 544:Core/Src/main.c ****           uint16_t difference = p2King_counter - p1King_counter;
 1015              		.loc 1 544 11 view .LVU238
 545:Core/Src/main.c ****           sprintf(score, "Won by %ums", difference);
 1016              		.loc 1 545 11 view .LVU239
 545:Core/Src/main.c ****           sprintf(score, "Won by %ums", difference);
 1017              		.loc 1 545 48 is_stmt 0 view .LVU240
 1018 02c4 234B     		ldr	r3, .L39+96
 1019 02c6 1A88     		ldrh	r2, [r3]
 1020 02c8 214B     		ldr	r3, .L39+92
 1021 02ca 1B88     		ldrh	r3, [r3]
 545:Core/Src/main.c ****           sprintf(score, "Won by %ums", difference);
 1022              		.loc 1 545 20 view .LVU241
 1023 02cc D21A     		subs	r2, r2, r3
 1024              	.LVL86:
 546:Core/Src/main.c ****           lcd_put_cur(1,0);
 1025              		.loc 1 546 11 is_stmt 1 view .LVU242
 1026 02ce 92B2     		uxth	r2, r2
 546:Core/Src/main.c ****           lcd_put_cur(1,0);
 1027              		.loc 1 546 11 is_stmt 0 view .LVU243
 1028 02d0 2149     		ldr	r1, .L39+100
 1029 02d2 0DA8     		add	r0, sp, #52
 1030 02d4 FFF7FEFF 		bl	sprintf
 1031              	.LVL87:
 547:Core/Src/main.c ****           ssd1306_WriteString(score,Font_7x10,1);
 1032              		.loc 1 547 11 is_stmt 1 view .LVU244
 1033 02d8 2146     		mov	r1, r4
 1034 02da 0120     		movs	r0, #1
 1035 02dc FFF7FEFF 		bl	lcd_put_cur
ARM GAS  C:\Users\jdcox\AppData\Local\Temp\cczPUCDJ.s 			page 35


 1036              	.LVL88:
 548:Core/Src/main.c ****           ssd1306_UpdateScreen();
 1037              		.loc 1 548 11 view .LVU245
 1038 02e0 0123     		movs	r3, #1
 1039 02e2 95E80600 		ldm	r5, {r1, r2}
 1040 02e6 0DA8     		add	r0, sp, #52
 1041 02e8 FFF7FEFF 		bl	ssd1306_WriteString
 1042              	.LVL89:
 549:Core/Src/main.c ****         }
 1043              		.loc 1 549 11 view .LVU246
 1044 02ec FFF7FEFF 		bl	ssd1306_UpdateScreen
 1045              	.LVL90:
 1046 02f0 2BE7     		b	.L26
 1047              	.L40:
 1048 02f2 00BF     		.align	2
 1049              	.L39:
 1050 02f4 00000000 		.word	.LANCHOR0
 1051 02f8 00000000 		.word	.LANCHOR1
 1052 02fc 00000240 		.word	1073872896
 1053 0300 00000000 		.word	.LANCHOR2
 1054 0304 00000000 		.word	.LC6
 1055 0308 00000000 		.word	opcodeString
 1056 030c 00000000 		.word	debugBuddy
 1057 0310 00000000 		.word	.LANCHOR3
 1058 0314 00000000 		.word	.LANCHOR4
 1059 0318 00040240 		.word	1073873920
 1060 031c 00000000 		.word	Font_16x24
 1061 0320 0C000000 		.word	.LC8
 1062 0324 14000000 		.word	.LC9
 1063 0328 18000000 		.word	.LC10
 1064 032c 1C000000 		.word	.LC11
 1065 0330 00000000 		.word	gameState
 1066 0334 00000000 		.word	stateChange_flag
 1067 0338 00000000 		.word	Font_7x10
 1068 033c 24000000 		.word	.LC12
 1069 0340 34000000 		.word	.LC13
 1070 0344 44000000 		.word	.LC14
 1071 0348 54000000 		.word	.LC15
 1072 034c 64000000 		.word	.LC16
 1073 0350 00000000 		.word	p1King_counter
 1074 0354 00000000 		.word	p2King_counter
 1075 0358 70000000 		.word	.LC17
 1076 035c 7C000000 		.word	.LC18
 1077              	.L27:
 549:Core/Src/main.c ****         }
 1078              		.loc 1 549 11 is_stmt 0 view .LVU247
 1079              	.LBE10:
 554:Core/Src/main.c ****         {
 1080              		.loc 1 554 9 is_stmt 1 view .LVU248
 554:Core/Src/main.c ****         {
 1081              		.loc 1 554 12 is_stmt 0 view .LVU249
 1082 0360 0E4B     		ldr	r3, .L41
 1083 0362 1B78     		ldrb	r3, [r3]	@ zero_extendqisi2
 554:Core/Src/main.c ****         {
 1084              		.loc 1 554 11 view .LVU250
 1085 0364 002B     		cmp	r3, #0
 1086 0366 3FF4F0AE 		beq	.L26
ARM GAS  C:\Users\jdcox\AppData\Local\Temp\cczPUCDJ.s 			page 36


 556:Core/Src/main.c ****           P1LED_OFF;
 1087              		.loc 1 556 11 is_stmt 1 view .LVU251
 556:Core/Src/main.c ****           P1LED_OFF;
 1088              		.loc 1 556 28 is_stmt 0 view .LVU252
 1089 036a 0024     		movs	r4, #0
 1090 036c 0B4B     		ldr	r3, .L41
 1091 036e 1C70     		strb	r4, [r3]
 557:Core/Src/main.c ****           ssd1306_Fill(0); 
 1092              		.loc 1 557 11 is_stmt 1 view .LVU253
 1093 0370 0122     		movs	r2, #1
 1094 0372 0221     		movs	r1, #2
 1095 0374 0A48     		ldr	r0, .L41+4
 1096 0376 FFF7FEFF 		bl	HAL_GPIO_WritePin
 1097              	.LVL91:
 558:Core/Src/main.c ****           ssd1306_SetCursor(0,0);
 1098              		.loc 1 558 11 view .LVU254
 1099 037a 2046     		mov	r0, r4
 1100 037c FFF7FEFF 		bl	ssd1306_Fill
 1101              	.LVL92:
 559:Core/Src/main.c ****           ssd1306_WriteString("Penalty!",Font_7x10,1);
 1102              		.loc 1 559 11 view .LVU255
 1103 0380 2146     		mov	r1, r4
 1104 0382 2046     		mov	r0, r4
 1105 0384 FFF7FEFF 		bl	ssd1306_SetCursor
 1106              	.LVL93:
 560:Core/Src/main.c ****           ssd1306_UpdateScreen();
 1107              		.loc 1 560 11 view .LVU256
 1108 0388 064A     		ldr	r2, .L41+8
 1109 038a 0123     		movs	r3, #1
 1110 038c 06CA     		ldm	r2, {r1, r2}
 1111 038e 0648     		ldr	r0, .L41+12
 1112 0390 FFF7FEFF 		bl	ssd1306_WriteString
 1113              	.LVL94:
 561:Core/Src/main.c ****         }
 1114              		.loc 1 561 11 view .LVU257
 1115 0394 FFF7FEFF 		bl	ssd1306_UpdateScreen
 1116              	.LVL95:
 1117 0398 D7E6     		b	.L26
 1118              	.L42:
 1119 039a 00BF     		.align	2
 1120              	.L41:
 1121 039c 00000000 		.word	stateChange_flag
 1122 03a0 00040240 		.word	1073873920
 1123 03a4 00000000 		.word	Font_7x10
 1124 03a8 88000000 		.word	.LC19
 1125              		.cfi_endproc
 1126              	.LFE144:
 1128              		.section	.text.StartLoraRXTask,"ax",%progbits
 1129              		.align	1
 1130              		.global	StartLoraRXTask
 1131              		.syntax unified
 1132              		.thumb
 1133              		.thumb_func
 1135              	StartLoraRXTask:
 1136              	.LFB145:
 585:Core/Src/main.c ****   /* USER CODE BEGIN StartLoraRXTask */
 1137              		.loc 1 585 1 view -0
ARM GAS  C:\Users\jdcox\AppData\Local\Temp\cczPUCDJ.s 			page 37


 1138              		.cfi_startproc
 1139              		@ Volatile: function does not return.
 1140              		@ args = 0, pretend = 0, frame = 0
 1141              		@ frame_needed = 0, uses_anonymous_args = 0
 1142              	.LVL96:
 585:Core/Src/main.c ****   /* USER CODE BEGIN StartLoraRXTask */
 1143              		.loc 1 585 1 is_stmt 0 view .LVU259
 1144 0000 08B5     		push	{r3, lr}
 1145              	.LCFI9:
 1146              		.cfi_def_cfa_offset 8
 1147              		.cfi_offset 3, -8
 1148              		.cfi_offset 14, -4
 1149              	.LVL97:
 1150              	.L44:
 588:Core/Src/main.c ****   {
 1151              		.loc 1 588 3 is_stmt 1 discriminator 1 view .LVU260
 591:Core/Src/main.c **** 
 1152              		.loc 1 591 5 discriminator 1 view .LVU261
 1153 0002 0421     		movs	r1, #4
 1154 0004 0448     		ldr	r0, .L46
 1155 0006 FFF7FEFF 		bl	HAL_GPIO_TogglePin
 1156              	.LVL98:
 594:Core/Src/main.c **** 
 1157              		.loc 1 594 5 discriminator 1 view .LVU262
 1158 000a FFF7FEFF 		bl	getKOTHPacket
 1159              	.LVL99:
 597:Core/Src/main.c **** 
 1160              		.loc 1 597 5 discriminator 1 view .LVU263
 1161 000e C820     		movs	r0, #200
 1162 0010 FFF7FEFF 		bl	osDelay
 1163              	.LVL100:
 588:Core/Src/main.c ****   {
 1164              		.loc 1 588 3 discriminator 1 view .LVU264
 1165 0014 F5E7     		b	.L44
 1166              	.L47:
 1167 0016 00BF     		.align	2
 1168              	.L46:
 1169 0018 00040240 		.word	1073873920
 1170              		.cfi_endproc
 1171              	.LFE145:
 1173              		.section	.text.HAL_TIM_PeriodElapsedCallback,"ax",%progbits
 1174              		.align	1
 1175              		.global	HAL_TIM_PeriodElapsedCallback
 1176              		.syntax unified
 1177              		.thumb
 1178              		.thumb_func
 1180              	HAL_TIM_PeriodElapsedCallback:
 1181              	.LVL101:
 1182              	.LFB150:
 663:Core/Src/main.c **** 
 664:Core/Src/main.c **** /**
 665:Core/Src/main.c ****   * @brief  Period elapsed callback in non blocking mode
 666:Core/Src/main.c ****   * @note   This function is called  when TIM1 interrupt took place, inside
 667:Core/Src/main.c ****   * HAL_TIM_IRQHandler(). It makes a direct call to HAL_IncTick() to increment
 668:Core/Src/main.c ****   * a global variable "uwTick" used as application time base.
 669:Core/Src/main.c ****   * @param  htim : TIM handle
 670:Core/Src/main.c ****   * @retval None
ARM GAS  C:\Users\jdcox\AppData\Local\Temp\cczPUCDJ.s 			page 38


 671:Core/Src/main.c ****   */
 672:Core/Src/main.c **** void HAL_TIM_PeriodElapsedCallback(TIM_HandleTypeDef *htim)
 673:Core/Src/main.c **** {
 1183              		.loc 1 673 1 view -0
 1184              		.cfi_startproc
 1185              		@ args = 0, pretend = 0, frame = 0
 1186              		@ frame_needed = 0, uses_anonymous_args = 0
 1187              		.loc 1 673 1 is_stmt 0 view .LVU266
 1188 0000 08B5     		push	{r3, lr}
 1189              	.LCFI10:
 1190              		.cfi_def_cfa_offset 8
 1191              		.cfi_offset 3, -8
 1192              		.cfi_offset 14, -4
 674:Core/Src/main.c ****   /* USER CODE BEGIN Callback 0 */
 675:Core/Src/main.c **** 
 676:Core/Src/main.c ****   /* USER CODE END Callback 0 */
 677:Core/Src/main.c ****   if (htim->Instance == TIM1) {
 1193              		.loc 1 677 3 is_stmt 1 view .LVU267
 1194              		.loc 1 677 11 is_stmt 0 view .LVU268
 1195 0002 0268     		ldr	r2, [r0]
 1196              		.loc 1 677 6 view .LVU269
 1197 0004 034B     		ldr	r3, .L52
 1198 0006 9A42     		cmp	r2, r3
 1199 0008 00D0     		beq	.L51
 1200              	.LVL102:
 1201              	.L48:
 678:Core/Src/main.c ****     HAL_IncTick();
 679:Core/Src/main.c ****   }
 680:Core/Src/main.c ****   /* USER CODE BEGIN Callback 1 */
 681:Core/Src/main.c **** 
 682:Core/Src/main.c ****   /* USER CODE END Callback 1 */
 683:Core/Src/main.c **** }
 1202              		.loc 1 683 1 view .LVU270
 1203 000a 08BD     		pop	{r3, pc}
 1204              	.LVL103:
 1205              	.L51:
 678:Core/Src/main.c ****     HAL_IncTick();
 1206              		.loc 1 678 5 is_stmt 1 view .LVU271
 1207 000c FFF7FEFF 		bl	HAL_IncTick
 1208              	.LVL104:
 1209              		.loc 1 683 1 is_stmt 0 view .LVU272
 1210 0010 FBE7     		b	.L48
 1211              	.L53:
 1212 0012 00BF     		.align	2
 1213              	.L52:
 1214 0014 00000140 		.word	1073807360
 1215              		.cfi_endproc
 1216              	.LFE150:
 1218              		.section	.text.Error_Handler,"ax",%progbits
 1219              		.align	1
 1220              		.global	Error_Handler
 1221              		.syntax unified
 1222              		.thumb
 1223              		.thumb_func
 1225              	Error_Handler:
 1226              	.LFB151:
 684:Core/Src/main.c **** 
ARM GAS  C:\Users\jdcox\AppData\Local\Temp\cczPUCDJ.s 			page 39


 685:Core/Src/main.c **** /**
 686:Core/Src/main.c ****   * @brief  This function is executed in case of error occurrence.
 687:Core/Src/main.c ****   * @retval None
 688:Core/Src/main.c ****   */
 689:Core/Src/main.c **** void Error_Handler(void)
 690:Core/Src/main.c **** {
 1227              		.loc 1 690 1 is_stmt 1 view -0
 1228              		.cfi_startproc
 1229              		@ Volatile: function does not return.
 1230              		@ args = 0, pretend = 0, frame = 0
 1231              		@ frame_needed = 0, uses_anonymous_args = 0
 1232              		@ link register save eliminated.
 691:Core/Src/main.c ****   /* USER CODE BEGIN Error_Handler_Debug */
 692:Core/Src/main.c ****   /* User can add his own implementation to report the HAL error return state */
 693:Core/Src/main.c ****   __disable_irq();
 1233              		.loc 1 693 3 view .LVU274
 1234              	.LBB11:
 1235              	.LBI11:
 1236              		.file 2 "Drivers/CMSIS/Include/cmsis_gcc.h"
   1:Drivers/CMSIS/Include/cmsis_gcc.h **** /**************************************************************************//**
   2:Drivers/CMSIS/Include/cmsis_gcc.h ****  * @file     cmsis_gcc.h
   3:Drivers/CMSIS/Include/cmsis_gcc.h ****  * @brief    CMSIS compiler GCC header file
   4:Drivers/CMSIS/Include/cmsis_gcc.h ****  * @version  V5.0.4
   5:Drivers/CMSIS/Include/cmsis_gcc.h ****  * @date     09. April 2018
   6:Drivers/CMSIS/Include/cmsis_gcc.h ****  ******************************************************************************/
   7:Drivers/CMSIS/Include/cmsis_gcc.h **** /*
   8:Drivers/CMSIS/Include/cmsis_gcc.h ****  * Copyright (c) 2009-2018 Arm Limited. All rights reserved.
   9:Drivers/CMSIS/Include/cmsis_gcc.h ****  *
  10:Drivers/CMSIS/Include/cmsis_gcc.h ****  * SPDX-License-Identifier: Apache-2.0
  11:Drivers/CMSIS/Include/cmsis_gcc.h ****  *
  12:Drivers/CMSIS/Include/cmsis_gcc.h ****  * Licensed under the Apache License, Version 2.0 (the License); you may
  13:Drivers/CMSIS/Include/cmsis_gcc.h ****  * not use this file except in compliance with the License.
  14:Drivers/CMSIS/Include/cmsis_gcc.h ****  * You may obtain a copy of the License at
  15:Drivers/CMSIS/Include/cmsis_gcc.h ****  *
  16:Drivers/CMSIS/Include/cmsis_gcc.h ****  * www.apache.org/licenses/LICENSE-2.0
  17:Drivers/CMSIS/Include/cmsis_gcc.h ****  *
  18:Drivers/CMSIS/Include/cmsis_gcc.h ****  * Unless required by applicable law or agreed to in writing, software
  19:Drivers/CMSIS/Include/cmsis_gcc.h ****  * distributed under the License is distributed on an AS IS BASIS, WITHOUT
  20:Drivers/CMSIS/Include/cmsis_gcc.h ****  * WARRANTIES OR CONDITIONS OF ANY KIND, either express or implied.
  21:Drivers/CMSIS/Include/cmsis_gcc.h ****  * See the License for the specific language governing permissions and
  22:Drivers/CMSIS/Include/cmsis_gcc.h ****  * limitations under the License.
  23:Drivers/CMSIS/Include/cmsis_gcc.h ****  */
  24:Drivers/CMSIS/Include/cmsis_gcc.h **** 
  25:Drivers/CMSIS/Include/cmsis_gcc.h **** #ifndef __CMSIS_GCC_H
  26:Drivers/CMSIS/Include/cmsis_gcc.h **** #define __CMSIS_GCC_H
  27:Drivers/CMSIS/Include/cmsis_gcc.h **** 
  28:Drivers/CMSIS/Include/cmsis_gcc.h **** /* ignore some GCC warnings */
  29:Drivers/CMSIS/Include/cmsis_gcc.h **** #pragma GCC diagnostic push
  30:Drivers/CMSIS/Include/cmsis_gcc.h **** #pragma GCC diagnostic ignored "-Wsign-conversion"
  31:Drivers/CMSIS/Include/cmsis_gcc.h **** #pragma GCC diagnostic ignored "-Wconversion"
  32:Drivers/CMSIS/Include/cmsis_gcc.h **** #pragma GCC diagnostic ignored "-Wunused-parameter"
  33:Drivers/CMSIS/Include/cmsis_gcc.h **** 
  34:Drivers/CMSIS/Include/cmsis_gcc.h **** /* Fallback for __has_builtin */
  35:Drivers/CMSIS/Include/cmsis_gcc.h **** #ifndef __has_builtin
  36:Drivers/CMSIS/Include/cmsis_gcc.h ****   #define __has_builtin(x) (0)
  37:Drivers/CMSIS/Include/cmsis_gcc.h **** #endif
  38:Drivers/CMSIS/Include/cmsis_gcc.h **** 
ARM GAS  C:\Users\jdcox\AppData\Local\Temp\cczPUCDJ.s 			page 40


  39:Drivers/CMSIS/Include/cmsis_gcc.h **** /* CMSIS compiler specific defines */
  40:Drivers/CMSIS/Include/cmsis_gcc.h **** #ifndef   __ASM
  41:Drivers/CMSIS/Include/cmsis_gcc.h ****   #define __ASM                                  __asm
  42:Drivers/CMSIS/Include/cmsis_gcc.h **** #endif
  43:Drivers/CMSIS/Include/cmsis_gcc.h **** #ifndef   __INLINE
  44:Drivers/CMSIS/Include/cmsis_gcc.h ****   #define __INLINE                               inline
  45:Drivers/CMSIS/Include/cmsis_gcc.h **** #endif
  46:Drivers/CMSIS/Include/cmsis_gcc.h **** #ifndef   __STATIC_INLINE
  47:Drivers/CMSIS/Include/cmsis_gcc.h ****   #define __STATIC_INLINE                        static inline
  48:Drivers/CMSIS/Include/cmsis_gcc.h **** #endif
  49:Drivers/CMSIS/Include/cmsis_gcc.h **** #ifndef   __STATIC_FORCEINLINE                 
  50:Drivers/CMSIS/Include/cmsis_gcc.h ****   #define __STATIC_FORCEINLINE                   __attribute__((always_inline)) static inline
  51:Drivers/CMSIS/Include/cmsis_gcc.h **** #endif                                           
  52:Drivers/CMSIS/Include/cmsis_gcc.h **** #ifndef   __NO_RETURN
  53:Drivers/CMSIS/Include/cmsis_gcc.h ****   #define __NO_RETURN                            __attribute__((__noreturn__))
  54:Drivers/CMSIS/Include/cmsis_gcc.h **** #endif
  55:Drivers/CMSIS/Include/cmsis_gcc.h **** #ifndef   __USED
  56:Drivers/CMSIS/Include/cmsis_gcc.h ****   #define __USED                                 __attribute__((used))
  57:Drivers/CMSIS/Include/cmsis_gcc.h **** #endif
  58:Drivers/CMSIS/Include/cmsis_gcc.h **** #ifndef   __WEAK
  59:Drivers/CMSIS/Include/cmsis_gcc.h ****   #define __WEAK                                 __attribute__((weak))
  60:Drivers/CMSIS/Include/cmsis_gcc.h **** #endif
  61:Drivers/CMSIS/Include/cmsis_gcc.h **** #ifndef   __PACKED
  62:Drivers/CMSIS/Include/cmsis_gcc.h ****   #define __PACKED                               __attribute__((packed, aligned(1)))
  63:Drivers/CMSIS/Include/cmsis_gcc.h **** #endif
  64:Drivers/CMSIS/Include/cmsis_gcc.h **** #ifndef   __PACKED_STRUCT
  65:Drivers/CMSIS/Include/cmsis_gcc.h ****   #define __PACKED_STRUCT                        struct __attribute__((packed, aligned(1)))
  66:Drivers/CMSIS/Include/cmsis_gcc.h **** #endif
  67:Drivers/CMSIS/Include/cmsis_gcc.h **** #ifndef   __PACKED_UNION
  68:Drivers/CMSIS/Include/cmsis_gcc.h ****   #define __PACKED_UNION                         union __attribute__((packed, aligned(1)))
  69:Drivers/CMSIS/Include/cmsis_gcc.h **** #endif
  70:Drivers/CMSIS/Include/cmsis_gcc.h **** #ifndef   __UNALIGNED_UINT32        /* deprecated */
  71:Drivers/CMSIS/Include/cmsis_gcc.h ****   #pragma GCC diagnostic push
  72:Drivers/CMSIS/Include/cmsis_gcc.h ****   #pragma GCC diagnostic ignored "-Wpacked"
  73:Drivers/CMSIS/Include/cmsis_gcc.h ****   #pragma GCC diagnostic ignored "-Wattributes"
  74:Drivers/CMSIS/Include/cmsis_gcc.h ****   struct __attribute__((packed)) T_UINT32 { uint32_t v; };
  75:Drivers/CMSIS/Include/cmsis_gcc.h ****   #pragma GCC diagnostic pop
  76:Drivers/CMSIS/Include/cmsis_gcc.h ****   #define __UNALIGNED_UINT32(x)                  (((struct T_UINT32 *)(x))->v)
  77:Drivers/CMSIS/Include/cmsis_gcc.h **** #endif
  78:Drivers/CMSIS/Include/cmsis_gcc.h **** #ifndef   __UNALIGNED_UINT16_WRITE
  79:Drivers/CMSIS/Include/cmsis_gcc.h ****   #pragma GCC diagnostic push
  80:Drivers/CMSIS/Include/cmsis_gcc.h ****   #pragma GCC diagnostic ignored "-Wpacked"
  81:Drivers/CMSIS/Include/cmsis_gcc.h ****   #pragma GCC diagnostic ignored "-Wattributes"
  82:Drivers/CMSIS/Include/cmsis_gcc.h ****   __PACKED_STRUCT T_UINT16_WRITE { uint16_t v; };
  83:Drivers/CMSIS/Include/cmsis_gcc.h ****   #pragma GCC diagnostic pop
  84:Drivers/CMSIS/Include/cmsis_gcc.h ****   #define __UNALIGNED_UINT16_WRITE(addr, val)    (void)((((struct T_UINT16_WRITE *)(void *)(addr))-
  85:Drivers/CMSIS/Include/cmsis_gcc.h **** #endif
  86:Drivers/CMSIS/Include/cmsis_gcc.h **** #ifndef   __UNALIGNED_UINT16_READ
  87:Drivers/CMSIS/Include/cmsis_gcc.h ****   #pragma GCC diagnostic push
  88:Drivers/CMSIS/Include/cmsis_gcc.h ****   #pragma GCC diagnostic ignored "-Wpacked"
  89:Drivers/CMSIS/Include/cmsis_gcc.h ****   #pragma GCC diagnostic ignored "-Wattributes"
  90:Drivers/CMSIS/Include/cmsis_gcc.h ****   __PACKED_STRUCT T_UINT16_READ { uint16_t v; };
  91:Drivers/CMSIS/Include/cmsis_gcc.h ****   #pragma GCC diagnostic pop
  92:Drivers/CMSIS/Include/cmsis_gcc.h ****   #define __UNALIGNED_UINT16_READ(addr)          (((const struct T_UINT16_READ *)(const void *)(add
  93:Drivers/CMSIS/Include/cmsis_gcc.h **** #endif
  94:Drivers/CMSIS/Include/cmsis_gcc.h **** #ifndef   __UNALIGNED_UINT32_WRITE
  95:Drivers/CMSIS/Include/cmsis_gcc.h ****   #pragma GCC diagnostic push
ARM GAS  C:\Users\jdcox\AppData\Local\Temp\cczPUCDJ.s 			page 41


  96:Drivers/CMSIS/Include/cmsis_gcc.h ****   #pragma GCC diagnostic ignored "-Wpacked"
  97:Drivers/CMSIS/Include/cmsis_gcc.h ****   #pragma GCC diagnostic ignored "-Wattributes"
  98:Drivers/CMSIS/Include/cmsis_gcc.h ****   __PACKED_STRUCT T_UINT32_WRITE { uint32_t v; };
  99:Drivers/CMSIS/Include/cmsis_gcc.h ****   #pragma GCC diagnostic pop
 100:Drivers/CMSIS/Include/cmsis_gcc.h ****   #define __UNALIGNED_UINT32_WRITE(addr, val)    (void)((((struct T_UINT32_WRITE *)(void *)(addr))-
 101:Drivers/CMSIS/Include/cmsis_gcc.h **** #endif
 102:Drivers/CMSIS/Include/cmsis_gcc.h **** #ifndef   __UNALIGNED_UINT32_READ
 103:Drivers/CMSIS/Include/cmsis_gcc.h ****   #pragma GCC diagnostic push
 104:Drivers/CMSIS/Include/cmsis_gcc.h ****   #pragma GCC diagnostic ignored "-Wpacked"
 105:Drivers/CMSIS/Include/cmsis_gcc.h ****   #pragma GCC diagnostic ignored "-Wattributes"
 106:Drivers/CMSIS/Include/cmsis_gcc.h ****   __PACKED_STRUCT T_UINT32_READ { uint32_t v; };
 107:Drivers/CMSIS/Include/cmsis_gcc.h ****   #pragma GCC diagnostic pop
 108:Drivers/CMSIS/Include/cmsis_gcc.h ****   #define __UNALIGNED_UINT32_READ(addr)          (((const struct T_UINT32_READ *)(const void *)(add
 109:Drivers/CMSIS/Include/cmsis_gcc.h **** #endif
 110:Drivers/CMSIS/Include/cmsis_gcc.h **** #ifndef   __ALIGNED
 111:Drivers/CMSIS/Include/cmsis_gcc.h ****   #define __ALIGNED(x)                           __attribute__((aligned(x)))
 112:Drivers/CMSIS/Include/cmsis_gcc.h **** #endif
 113:Drivers/CMSIS/Include/cmsis_gcc.h **** #ifndef   __RESTRICT
 114:Drivers/CMSIS/Include/cmsis_gcc.h ****   #define __RESTRICT                             __restrict
 115:Drivers/CMSIS/Include/cmsis_gcc.h **** #endif
 116:Drivers/CMSIS/Include/cmsis_gcc.h **** 
 117:Drivers/CMSIS/Include/cmsis_gcc.h **** 
 118:Drivers/CMSIS/Include/cmsis_gcc.h **** /* ###########################  Core Function Access  ########################### */
 119:Drivers/CMSIS/Include/cmsis_gcc.h **** /** \ingroup  CMSIS_Core_FunctionInterface
 120:Drivers/CMSIS/Include/cmsis_gcc.h ****     \defgroup CMSIS_Core_RegAccFunctions CMSIS Core Register Access Functions
 121:Drivers/CMSIS/Include/cmsis_gcc.h ****   @{
 122:Drivers/CMSIS/Include/cmsis_gcc.h ****  */
 123:Drivers/CMSIS/Include/cmsis_gcc.h **** 
 124:Drivers/CMSIS/Include/cmsis_gcc.h **** /**
 125:Drivers/CMSIS/Include/cmsis_gcc.h ****   \brief   Enable IRQ Interrupts
 126:Drivers/CMSIS/Include/cmsis_gcc.h ****   \details Enables IRQ interrupts by clearing the I-bit in the CPSR.
 127:Drivers/CMSIS/Include/cmsis_gcc.h ****            Can only be executed in Privileged modes.
 128:Drivers/CMSIS/Include/cmsis_gcc.h ****  */
 129:Drivers/CMSIS/Include/cmsis_gcc.h **** __STATIC_FORCEINLINE void __enable_irq(void)
 130:Drivers/CMSIS/Include/cmsis_gcc.h **** {
 131:Drivers/CMSIS/Include/cmsis_gcc.h ****   __ASM volatile ("cpsie i" : : : "memory");
 132:Drivers/CMSIS/Include/cmsis_gcc.h **** }
 133:Drivers/CMSIS/Include/cmsis_gcc.h **** 
 134:Drivers/CMSIS/Include/cmsis_gcc.h **** 
 135:Drivers/CMSIS/Include/cmsis_gcc.h **** /**
 136:Drivers/CMSIS/Include/cmsis_gcc.h ****   \brief   Disable IRQ Interrupts
 137:Drivers/CMSIS/Include/cmsis_gcc.h ****   \details Disables IRQ interrupts by setting the I-bit in the CPSR.
 138:Drivers/CMSIS/Include/cmsis_gcc.h ****            Can only be executed in Privileged modes.
 139:Drivers/CMSIS/Include/cmsis_gcc.h ****  */
 140:Drivers/CMSIS/Include/cmsis_gcc.h **** __STATIC_FORCEINLINE void __disable_irq(void)
 1237              		.loc 2 140 27 view .LVU275
 1238              	.LBB12:
 141:Drivers/CMSIS/Include/cmsis_gcc.h **** {
 142:Drivers/CMSIS/Include/cmsis_gcc.h ****   __ASM volatile ("cpsid i" : : : "memory");
 1239              		.loc 2 142 3 view .LVU276
 1240              		.syntax unified
 1241              	@ 142 "Drivers/CMSIS/Include/cmsis_gcc.h" 1
 1242 0000 72B6     		cpsid i
 1243              	@ 0 "" 2
 1244              		.thumb
 1245              		.syntax unified
 1246              	.L55:
ARM GAS  C:\Users\jdcox\AppData\Local\Temp\cczPUCDJ.s 			page 42


 1247              	.LBE12:
 1248              	.LBE11:
 694:Core/Src/main.c ****   while (1)
 1249              		.loc 1 694 3 discriminator 1 view .LVU277
 695:Core/Src/main.c ****   {
 696:Core/Src/main.c ****   }
 1250              		.loc 1 696 3 discriminator 1 view .LVU278
 694:Core/Src/main.c ****   while (1)
 1251              		.loc 1 694 9 discriminator 1 view .LVU279
 1252 0002 FEE7     		b	.L55
 1253              		.cfi_endproc
 1254              	.LFE151:
 1256              		.section	.text.MX_SPI1_Init,"ax",%progbits
 1257              		.align	1
 1258              		.syntax unified
 1259              		.thumb
 1260              		.thumb_func
 1262              	MX_SPI1_Init:
 1263              	.LFB141:
 285:Core/Src/main.c **** 
 1264              		.loc 1 285 1 view -0
 1265              		.cfi_startproc
 1266              		@ args = 0, pretend = 0, frame = 0
 1267              		@ frame_needed = 0, uses_anonymous_args = 0
 1268 0000 08B5     		push	{r3, lr}
 1269              	.LCFI11:
 1270              		.cfi_def_cfa_offset 8
 1271              		.cfi_offset 3, -8
 1272              		.cfi_offset 14, -4
 295:Core/Src/main.c ****   hspi1.Init.Mode = SPI_MODE_MASTER;
 1273              		.loc 1 295 3 view .LVU281
 295:Core/Src/main.c ****   hspi1.Init.Mode = SPI_MODE_MASTER;
 1274              		.loc 1 295 18 is_stmt 0 view .LVU282
 1275 0002 0D48     		ldr	r0, .L60
 1276 0004 0D4B     		ldr	r3, .L60+4
 1277 0006 0360     		str	r3, [r0]
 296:Core/Src/main.c ****   hspi1.Init.Direction = SPI_DIRECTION_2LINES;
 1278              		.loc 1 296 3 is_stmt 1 view .LVU283
 296:Core/Src/main.c ****   hspi1.Init.Direction = SPI_DIRECTION_2LINES;
 1279              		.loc 1 296 19 is_stmt 0 view .LVU284
 1280 0008 4FF48273 		mov	r3, #260
 1281 000c 4360     		str	r3, [r0, #4]
 297:Core/Src/main.c ****   hspi1.Init.DataSize = SPI_DATASIZE_8BIT;
 1282              		.loc 1 297 3 is_stmt 1 view .LVU285
 297:Core/Src/main.c ****   hspi1.Init.DataSize = SPI_DATASIZE_8BIT;
 1283              		.loc 1 297 24 is_stmt 0 view .LVU286
 1284 000e 0023     		movs	r3, #0
 1285 0010 8360     		str	r3, [r0, #8]
 298:Core/Src/main.c ****   hspi1.Init.CLKPolarity = SPI_POLARITY_LOW;
 1286              		.loc 1 298 3 is_stmt 1 view .LVU287
 298:Core/Src/main.c ****   hspi1.Init.CLKPolarity = SPI_POLARITY_LOW;
 1287              		.loc 1 298 23 is_stmt 0 view .LVU288
 1288 0012 C360     		str	r3, [r0, #12]
 299:Core/Src/main.c ****   hspi1.Init.CLKPhase = SPI_PHASE_1EDGE;
 1289              		.loc 1 299 3 is_stmt 1 view .LVU289
 299:Core/Src/main.c ****   hspi1.Init.CLKPhase = SPI_PHASE_1EDGE;
 1290              		.loc 1 299 26 is_stmt 0 view .LVU290
ARM GAS  C:\Users\jdcox\AppData\Local\Temp\cczPUCDJ.s 			page 43


 1291 0014 0361     		str	r3, [r0, #16]
 300:Core/Src/main.c ****   hspi1.Init.NSS = SPI_NSS_SOFT;
 1292              		.loc 1 300 3 is_stmt 1 view .LVU291
 300:Core/Src/main.c ****   hspi1.Init.NSS = SPI_NSS_SOFT;
 1293              		.loc 1 300 23 is_stmt 0 view .LVU292
 1294 0016 4361     		str	r3, [r0, #20]
 301:Core/Src/main.c ****   hspi1.Init.BaudRatePrescaler = SPI_BAUDRATEPRESCALER_16;
 1295              		.loc 1 301 3 is_stmt 1 view .LVU293
 301:Core/Src/main.c ****   hspi1.Init.BaudRatePrescaler = SPI_BAUDRATEPRESCALER_16;
 1296              		.loc 1 301 18 is_stmt 0 view .LVU294
 1297 0018 4FF40072 		mov	r2, #512
 1298 001c 8261     		str	r2, [r0, #24]
 302:Core/Src/main.c ****   hspi1.Init.FirstBit = SPI_FIRSTBIT_MSB;
 1299              		.loc 1 302 3 is_stmt 1 view .LVU295
 302:Core/Src/main.c ****   hspi1.Init.FirstBit = SPI_FIRSTBIT_MSB;
 1300              		.loc 1 302 32 is_stmt 0 view .LVU296
 1301 001e 1822     		movs	r2, #24
 1302 0020 C261     		str	r2, [r0, #28]
 303:Core/Src/main.c ****   hspi1.Init.TIMode = SPI_TIMODE_DISABLE;
 1303              		.loc 1 303 3 is_stmt 1 view .LVU297
 303:Core/Src/main.c ****   hspi1.Init.TIMode = SPI_TIMODE_DISABLE;
 1304              		.loc 1 303 23 is_stmt 0 view .LVU298
 1305 0022 0362     		str	r3, [r0, #32]
 304:Core/Src/main.c ****   hspi1.Init.CRCCalculation = SPI_CRCCALCULATION_DISABLE;
 1306              		.loc 1 304 3 is_stmt 1 view .LVU299
 304:Core/Src/main.c ****   hspi1.Init.CRCCalculation = SPI_CRCCALCULATION_DISABLE;
 1307              		.loc 1 304 21 is_stmt 0 view .LVU300
 1308 0024 4362     		str	r3, [r0, #36]
 305:Core/Src/main.c ****   hspi1.Init.CRCPolynomial = 10;
 1309              		.loc 1 305 3 is_stmt 1 view .LVU301
 305:Core/Src/main.c ****   hspi1.Init.CRCPolynomial = 10;
 1310              		.loc 1 305 29 is_stmt 0 view .LVU302
 1311 0026 8362     		str	r3, [r0, #40]
 306:Core/Src/main.c ****   if (HAL_SPI_Init(&hspi1) != HAL_OK)
 1312              		.loc 1 306 3 is_stmt 1 view .LVU303
 306:Core/Src/main.c ****   if (HAL_SPI_Init(&hspi1) != HAL_OK)
 1313              		.loc 1 306 28 is_stmt 0 view .LVU304
 1314 0028 0A23     		movs	r3, #10
 1315 002a C362     		str	r3, [r0, #44]
 307:Core/Src/main.c ****   {
 1316              		.loc 1 307 3 is_stmt 1 view .LVU305
 307:Core/Src/main.c ****   {
 1317              		.loc 1 307 7 is_stmt 0 view .LVU306
 1318 002c FFF7FEFF 		bl	HAL_SPI_Init
 1319              	.LVL105:
 307:Core/Src/main.c ****   {
 1320              		.loc 1 307 6 view .LVU307
 1321 0030 00B9     		cbnz	r0, .L59
 315:Core/Src/main.c **** 
 1322              		.loc 1 315 1 view .LVU308
 1323 0032 08BD     		pop	{r3, pc}
 1324              	.L59:
 309:Core/Src/main.c ****   }
 1325              		.loc 1 309 5 is_stmt 1 view .LVU309
 1326 0034 FFF7FEFF 		bl	Error_Handler
 1327              	.LVL106:
 1328              	.L61:
ARM GAS  C:\Users\jdcox\AppData\Local\Temp\cczPUCDJ.s 			page 44


 1329              		.align	2
 1330              	.L60:
 1331 0038 00000000 		.word	.LANCHOR2
 1332 003c 00300140 		.word	1073819648
 1333              		.cfi_endproc
 1334              	.LFE141:
 1336              		.section	.text.MX_I2C1_Init,"ax",%progbits
 1337              		.align	1
 1338              		.syntax unified
 1339              		.thumb
 1340              		.thumb_func
 1342              	MX_I2C1_Init:
 1343              	.LFB140:
 251:Core/Src/main.c **** 
 1344              		.loc 1 251 1 view -0
 1345              		.cfi_startproc
 1346              		@ args = 0, pretend = 0, frame = 0
 1347              		@ frame_needed = 0, uses_anonymous_args = 0
 1348 0000 08B5     		push	{r3, lr}
 1349              	.LCFI12:
 1350              		.cfi_def_cfa_offset 8
 1351              		.cfi_offset 3, -8
 1352              		.cfi_offset 14, -4
 260:Core/Src/main.c ****   hi2c1.Init.ClockSpeed = 100000;
 1353              		.loc 1 260 3 view .LVU311
 260:Core/Src/main.c ****   hi2c1.Init.ClockSpeed = 100000;
 1354              		.loc 1 260 18 is_stmt 0 view .LVU312
 1355 0002 0B48     		ldr	r0, .L66
 1356 0004 0B4B     		ldr	r3, .L66+4
 1357 0006 0360     		str	r3, [r0]
 261:Core/Src/main.c ****   hi2c1.Init.DutyCycle = I2C_DUTYCYCLE_2;
 1358              		.loc 1 261 3 is_stmt 1 view .LVU313
 261:Core/Src/main.c ****   hi2c1.Init.DutyCycle = I2C_DUTYCYCLE_2;
 1359              		.loc 1 261 25 is_stmt 0 view .LVU314
 1360 0008 0B4B     		ldr	r3, .L66+8
 1361 000a 4360     		str	r3, [r0, #4]
 262:Core/Src/main.c ****   hi2c1.Init.OwnAddress1 = 78;
 1362              		.loc 1 262 3 is_stmt 1 view .LVU315
 262:Core/Src/main.c ****   hi2c1.Init.OwnAddress1 = 78;
 1363              		.loc 1 262 24 is_stmt 0 view .LVU316
 1364 000c 0023     		movs	r3, #0
 1365 000e 8360     		str	r3, [r0, #8]
 263:Core/Src/main.c ****   hi2c1.Init.AddressingMode = I2C_ADDRESSINGMODE_7BIT;
 1366              		.loc 1 263 3 is_stmt 1 view .LVU317
 263:Core/Src/main.c ****   hi2c1.Init.AddressingMode = I2C_ADDRESSINGMODE_7BIT;
 1367              		.loc 1 263 26 is_stmt 0 view .LVU318
 1368 0010 4E22     		movs	r2, #78
 1369 0012 C260     		str	r2, [r0, #12]
 264:Core/Src/main.c ****   hi2c1.Init.DualAddressMode = I2C_DUALADDRESS_DISABLE;
 1370              		.loc 1 264 3 is_stmt 1 view .LVU319
 264:Core/Src/main.c ****   hi2c1.Init.DualAddressMode = I2C_DUALADDRESS_DISABLE;
 1371              		.loc 1 264 29 is_stmt 0 view .LVU320
 1372 0014 4FF48042 		mov	r2, #16384
 1373 0018 0261     		str	r2, [r0, #16]
 265:Core/Src/main.c ****   hi2c1.Init.OwnAddress2 = 0;
 1374              		.loc 1 265 3 is_stmt 1 view .LVU321
 265:Core/Src/main.c ****   hi2c1.Init.OwnAddress2 = 0;
ARM GAS  C:\Users\jdcox\AppData\Local\Temp\cczPUCDJ.s 			page 45


 1375              		.loc 1 265 30 is_stmt 0 view .LVU322
 1376 001a 4361     		str	r3, [r0, #20]
 266:Core/Src/main.c ****   hi2c1.Init.GeneralCallMode = I2C_GENERALCALL_DISABLE;
 1377              		.loc 1 266 3 is_stmt 1 view .LVU323
 266:Core/Src/main.c ****   hi2c1.Init.GeneralCallMode = I2C_GENERALCALL_DISABLE;
 1378              		.loc 1 266 26 is_stmt 0 view .LVU324
 1379 001c 8361     		str	r3, [r0, #24]
 267:Core/Src/main.c ****   hi2c1.Init.NoStretchMode = I2C_NOSTRETCH_DISABLE;
 1380              		.loc 1 267 3 is_stmt 1 view .LVU325
 267:Core/Src/main.c ****   hi2c1.Init.NoStretchMode = I2C_NOSTRETCH_DISABLE;
 1381              		.loc 1 267 30 is_stmt 0 view .LVU326
 1382 001e C361     		str	r3, [r0, #28]
 268:Core/Src/main.c ****   if (HAL_I2C_Init(&hi2c1) != HAL_OK)
 1383              		.loc 1 268 3 is_stmt 1 view .LVU327
 268:Core/Src/main.c ****   if (HAL_I2C_Init(&hi2c1) != HAL_OK)
 1384              		.loc 1 268 28 is_stmt 0 view .LVU328
 1385 0020 0362     		str	r3, [r0, #32]
 269:Core/Src/main.c ****   {
 1386              		.loc 1 269 3 is_stmt 1 view .LVU329
 269:Core/Src/main.c ****   {
 1387              		.loc 1 269 7 is_stmt 0 view .LVU330
 1388 0022 FFF7FEFF 		bl	HAL_I2C_Init
 1389              	.LVL107:
 269:Core/Src/main.c ****   {
 1390              		.loc 1 269 6 view .LVU331
 1391 0026 00B9     		cbnz	r0, .L65
 277:Core/Src/main.c **** 
 1392              		.loc 1 277 1 view .LVU332
 1393 0028 08BD     		pop	{r3, pc}
 1394              	.L65:
 271:Core/Src/main.c ****   }
 1395              		.loc 1 271 5 is_stmt 1 view .LVU333
 1396 002a FFF7FEFF 		bl	Error_Handler
 1397              	.LVL108:
 1398              	.L67:
 1399 002e 00BF     		.align	2
 1400              	.L66:
 1401 0030 00000000 		.word	.LANCHOR5
 1402 0034 00540040 		.word	1073763328
 1403 0038 A0860100 		.word	100000
 1404              		.cfi_endproc
 1405              	.LFE140:
 1407              		.section	.text.SystemClock_Config,"ax",%progbits
 1408              		.align	1
 1409              		.global	SystemClock_Config
 1410              		.syntax unified
 1411              		.thumb
 1412              		.thumb_func
 1414              	SystemClock_Config:
 1415              	.LFB139:
 205:Core/Src/main.c ****   RCC_OscInitTypeDef RCC_OscInitStruct = {0};
 1416              		.loc 1 205 1 view -0
 1417              		.cfi_startproc
 1418              		@ args = 0, pretend = 0, frame = 80
 1419              		@ frame_needed = 0, uses_anonymous_args = 0
 1420 0000 00B5     		push	{lr}
 1421              	.LCFI13:
ARM GAS  C:\Users\jdcox\AppData\Local\Temp\cczPUCDJ.s 			page 46


 1422              		.cfi_def_cfa_offset 4
 1423              		.cfi_offset 14, -4
 1424 0002 95B0     		sub	sp, sp, #84
 1425              	.LCFI14:
 1426              		.cfi_def_cfa_offset 88
 206:Core/Src/main.c ****   RCC_ClkInitTypeDef RCC_ClkInitStruct = {0};
 1427              		.loc 1 206 3 view .LVU335
 206:Core/Src/main.c ****   RCC_ClkInitTypeDef RCC_ClkInitStruct = {0};
 1428              		.loc 1 206 22 is_stmt 0 view .LVU336
 1429 0004 3022     		movs	r2, #48
 1430 0006 0021     		movs	r1, #0
 1431 0008 08A8     		add	r0, sp, #32
 1432 000a FFF7FEFF 		bl	memset
 1433              	.LVL109:
 207:Core/Src/main.c **** 
 1434              		.loc 1 207 3 is_stmt 1 view .LVU337
 207:Core/Src/main.c **** 
 1435              		.loc 1 207 22 is_stmt 0 view .LVU338
 1436 000e 0023     		movs	r3, #0
 1437 0010 0393     		str	r3, [sp, #12]
 1438 0012 0493     		str	r3, [sp, #16]
 1439 0014 0593     		str	r3, [sp, #20]
 1440 0016 0693     		str	r3, [sp, #24]
 1441 0018 0793     		str	r3, [sp, #28]
 211:Core/Src/main.c ****   __HAL_PWR_VOLTAGESCALING_CONFIG(PWR_REGULATOR_VOLTAGE_SCALE2);
 1442              		.loc 1 211 3 is_stmt 1 view .LVU339
 1443              	.LBB13:
 211:Core/Src/main.c ****   __HAL_PWR_VOLTAGESCALING_CONFIG(PWR_REGULATOR_VOLTAGE_SCALE2);
 1444              		.loc 1 211 3 view .LVU340
 1445 001a 0193     		str	r3, [sp, #4]
 211:Core/Src/main.c ****   __HAL_PWR_VOLTAGESCALING_CONFIG(PWR_REGULATOR_VOLTAGE_SCALE2);
 1446              		.loc 1 211 3 view .LVU341
 1447 001c 214A     		ldr	r2, .L74
 1448 001e 116C     		ldr	r1, [r2, #64]
 1449 0020 41F08051 		orr	r1, r1, #268435456
 1450 0024 1164     		str	r1, [r2, #64]
 211:Core/Src/main.c ****   __HAL_PWR_VOLTAGESCALING_CONFIG(PWR_REGULATOR_VOLTAGE_SCALE2);
 1451              		.loc 1 211 3 view .LVU342
 1452 0026 126C     		ldr	r2, [r2, #64]
 1453 0028 02F08052 		and	r2, r2, #268435456
 1454 002c 0192     		str	r2, [sp, #4]
 211:Core/Src/main.c ****   __HAL_PWR_VOLTAGESCALING_CONFIG(PWR_REGULATOR_VOLTAGE_SCALE2);
 1455              		.loc 1 211 3 view .LVU343
 1456 002e 019A     		ldr	r2, [sp, #4]
 1457              	.LBE13:
 211:Core/Src/main.c ****   __HAL_PWR_VOLTAGESCALING_CONFIG(PWR_REGULATOR_VOLTAGE_SCALE2);
 1458              		.loc 1 211 3 view .LVU344
 212:Core/Src/main.c **** 
 1459              		.loc 1 212 3 view .LVU345
 1460              	.LBB14:
 212:Core/Src/main.c **** 
 1461              		.loc 1 212 3 view .LVU346
 1462 0030 0293     		str	r3, [sp, #8]
 212:Core/Src/main.c **** 
 1463              		.loc 1 212 3 view .LVU347
 1464 0032 1D4A     		ldr	r2, .L74+4
 1465 0034 1368     		ldr	r3, [r2]
ARM GAS  C:\Users\jdcox\AppData\Local\Temp\cczPUCDJ.s 			page 47


 1466 0036 23F44043 		bic	r3, r3, #49152
 1467 003a 43F40043 		orr	r3, r3, #32768
 1468 003e 1360     		str	r3, [r2]
 212:Core/Src/main.c **** 
 1469              		.loc 1 212 3 view .LVU348
 1470 0040 1368     		ldr	r3, [r2]
 1471 0042 03F44043 		and	r3, r3, #49152
 1472 0046 0293     		str	r3, [sp, #8]
 212:Core/Src/main.c **** 
 1473              		.loc 1 212 3 view .LVU349
 1474 0048 029B     		ldr	r3, [sp, #8]
 1475              	.LBE14:
 212:Core/Src/main.c **** 
 1476              		.loc 1 212 3 view .LVU350
 217:Core/Src/main.c ****   RCC_OscInitStruct.HSEState = RCC_HSE_ON;
 1477              		.loc 1 217 3 view .LVU351
 217:Core/Src/main.c ****   RCC_OscInitStruct.HSEState = RCC_HSE_ON;
 1478              		.loc 1 217 36 is_stmt 0 view .LVU352
 1479 004a 0123     		movs	r3, #1
 1480 004c 0893     		str	r3, [sp, #32]
 218:Core/Src/main.c ****   RCC_OscInitStruct.PLL.PLLState = RCC_PLL_ON;
 1481              		.loc 1 218 3 is_stmt 1 view .LVU353
 218:Core/Src/main.c ****   RCC_OscInitStruct.PLL.PLLState = RCC_PLL_ON;
 1482              		.loc 1 218 30 is_stmt 0 view .LVU354
 1483 004e 4FF48033 		mov	r3, #65536
 1484 0052 0993     		str	r3, [sp, #36]
 219:Core/Src/main.c ****   RCC_OscInitStruct.PLL.PLLSource = RCC_PLLSOURCE_HSE;
 1485              		.loc 1 219 3 is_stmt 1 view .LVU355
 219:Core/Src/main.c ****   RCC_OscInitStruct.PLL.PLLSource = RCC_PLLSOURCE_HSE;
 1486              		.loc 1 219 34 is_stmt 0 view .LVU356
 1487 0054 0223     		movs	r3, #2
 1488 0056 0E93     		str	r3, [sp, #56]
 220:Core/Src/main.c ****   RCC_OscInitStruct.PLL.PLLM = 25;
 1489              		.loc 1 220 3 is_stmt 1 view .LVU357
 220:Core/Src/main.c ****   RCC_OscInitStruct.PLL.PLLM = 25;
 1490              		.loc 1 220 35 is_stmt 0 view .LVU358
 1491 0058 4FF48003 		mov	r3, #4194304
 1492 005c 0F93     		str	r3, [sp, #60]
 221:Core/Src/main.c ****   RCC_OscInitStruct.PLL.PLLN = 336;
 1493              		.loc 1 221 3 is_stmt 1 view .LVU359
 221:Core/Src/main.c ****   RCC_OscInitStruct.PLL.PLLN = 336;
 1494              		.loc 1 221 30 is_stmt 0 view .LVU360
 1495 005e 1923     		movs	r3, #25
 1496 0060 1093     		str	r3, [sp, #64]
 222:Core/Src/main.c ****   RCC_OscInitStruct.PLL.PLLP = RCC_PLLP_DIV4;
 1497              		.loc 1 222 3 is_stmt 1 view .LVU361
 222:Core/Src/main.c ****   RCC_OscInitStruct.PLL.PLLP = RCC_PLLP_DIV4;
 1498              		.loc 1 222 30 is_stmt 0 view .LVU362
 1499 0062 4FF4A873 		mov	r3, #336
 1500 0066 1193     		str	r3, [sp, #68]
 223:Core/Src/main.c ****   RCC_OscInitStruct.PLL.PLLQ = 7;
 1501              		.loc 1 223 3 is_stmt 1 view .LVU363
 223:Core/Src/main.c ****   RCC_OscInitStruct.PLL.PLLQ = 7;
 1502              		.loc 1 223 30 is_stmt 0 view .LVU364
 1503 0068 0423     		movs	r3, #4
 1504 006a 1293     		str	r3, [sp, #72]
 224:Core/Src/main.c ****   if (HAL_RCC_OscConfig(&RCC_OscInitStruct) != HAL_OK)
ARM GAS  C:\Users\jdcox\AppData\Local\Temp\cczPUCDJ.s 			page 48


 1505              		.loc 1 224 3 is_stmt 1 view .LVU365
 224:Core/Src/main.c ****   if (HAL_RCC_OscConfig(&RCC_OscInitStruct) != HAL_OK)
 1506              		.loc 1 224 30 is_stmt 0 view .LVU366
 1507 006c 0723     		movs	r3, #7
 1508 006e 1393     		str	r3, [sp, #76]
 225:Core/Src/main.c ****   {
 1509              		.loc 1 225 3 is_stmt 1 view .LVU367
 225:Core/Src/main.c ****   {
 1510              		.loc 1 225 7 is_stmt 0 view .LVU368
 1511 0070 08A8     		add	r0, sp, #32
 1512 0072 FFF7FEFF 		bl	HAL_RCC_OscConfig
 1513              	.LVL110:
 225:Core/Src/main.c ****   {
 1514              		.loc 1 225 6 view .LVU369
 1515 0076 80B9     		cbnz	r0, .L72
 232:Core/Src/main.c ****                               |RCC_CLOCKTYPE_PCLK1|RCC_CLOCKTYPE_PCLK2;
 1516              		.loc 1 232 3 is_stmt 1 view .LVU370
 232:Core/Src/main.c ****                               |RCC_CLOCKTYPE_PCLK1|RCC_CLOCKTYPE_PCLK2;
 1517              		.loc 1 232 31 is_stmt 0 view .LVU371
 1518 0078 0F23     		movs	r3, #15
 1519 007a 0393     		str	r3, [sp, #12]
 234:Core/Src/main.c ****   RCC_ClkInitStruct.AHBCLKDivider = RCC_SYSCLK_DIV1;
 1520              		.loc 1 234 3 is_stmt 1 view .LVU372
 234:Core/Src/main.c ****   RCC_ClkInitStruct.AHBCLKDivider = RCC_SYSCLK_DIV1;
 1521              		.loc 1 234 34 is_stmt 0 view .LVU373
 1522 007c 0221     		movs	r1, #2
 1523 007e 0491     		str	r1, [sp, #16]
 235:Core/Src/main.c ****   RCC_ClkInitStruct.APB1CLKDivider = RCC_HCLK_DIV2;
 1524              		.loc 1 235 3 is_stmt 1 view .LVU374
 235:Core/Src/main.c ****   RCC_ClkInitStruct.APB1CLKDivider = RCC_HCLK_DIV2;
 1525              		.loc 1 235 35 is_stmt 0 view .LVU375
 1526 0080 0023     		movs	r3, #0
 1527 0082 0593     		str	r3, [sp, #20]
 236:Core/Src/main.c ****   RCC_ClkInitStruct.APB2CLKDivider = RCC_HCLK_DIV1;
 1528              		.loc 1 236 3 is_stmt 1 view .LVU376
 236:Core/Src/main.c ****   RCC_ClkInitStruct.APB2CLKDivider = RCC_HCLK_DIV1;
 1529              		.loc 1 236 36 is_stmt 0 view .LVU377
 1530 0084 4FF48052 		mov	r2, #4096
 1531 0088 0692     		str	r2, [sp, #24]
 237:Core/Src/main.c **** 
 1532              		.loc 1 237 3 is_stmt 1 view .LVU378
 237:Core/Src/main.c **** 
 1533              		.loc 1 237 36 is_stmt 0 view .LVU379
 1534 008a 0793     		str	r3, [sp, #28]
 239:Core/Src/main.c ****   {
 1535              		.loc 1 239 3 is_stmt 1 view .LVU380
 239:Core/Src/main.c ****   {
 1536              		.loc 1 239 7 is_stmt 0 view .LVU381
 1537 008c 03A8     		add	r0, sp, #12
 1538 008e FFF7FEFF 		bl	HAL_RCC_ClockConfig
 1539              	.LVL111:
 239:Core/Src/main.c ****   {
 1540              		.loc 1 239 6 view .LVU382
 1541 0092 20B9     		cbnz	r0, .L73
 243:Core/Src/main.c **** 
 1542              		.loc 1 243 1 view .LVU383
 1543 0094 15B0     		add	sp, sp, #84
ARM GAS  C:\Users\jdcox\AppData\Local\Temp\cczPUCDJ.s 			page 49


 1544              	.LCFI15:
 1545              		.cfi_remember_state
 1546              		.cfi_def_cfa_offset 4
 1547              		@ sp needed
 1548 0096 5DF804FB 		ldr	pc, [sp], #4
 1549              	.L72:
 1550              	.LCFI16:
 1551              		.cfi_restore_state
 227:Core/Src/main.c ****   }
 1552              		.loc 1 227 5 is_stmt 1 view .LVU384
 1553 009a FFF7FEFF 		bl	Error_Handler
 1554              	.LVL112:
 1555              	.L73:
 241:Core/Src/main.c ****   }
 1556              		.loc 1 241 5 view .LVU385
 1557 009e FFF7FEFF 		bl	Error_Handler
 1558              	.LVL113:
 1559              	.L75:
 1560 00a2 00BF     		.align	2
 1561              	.L74:
 1562 00a4 00380240 		.word	1073887232
 1563 00a8 00700040 		.word	1073770496
 1564              		.cfi_endproc
 1565              	.LFE139:
 1567              		.section	.text.main,"ax",%progbits
 1568              		.align	1
 1569              		.global	main
 1570              		.syntax unified
 1571              		.thumb
 1572              		.thumb_func
 1574              	main:
 1575              	.LFB138:
  99:Core/Src/main.c ****   /* USER CODE BEGIN 1 */
 1576              		.loc 1 99 1 view -0
 1577              		.cfi_startproc
 1578              		@ Volatile: function does not return.
 1579              		@ args = 0, pretend = 0, frame = 80
 1580              		@ frame_needed = 0, uses_anonymous_args = 0
 1581 0000 00B5     		push	{lr}
 1582              	.LCFI17:
 1583              		.cfi_def_cfa_offset 4
 1584              		.cfi_offset 14, -4
 1585 0002 95B0     		sub	sp, sp, #84
 1586              	.LCFI18:
 1587              		.cfi_def_cfa_offset 88
 107:Core/Src/main.c **** 
 1588              		.loc 1 107 3 view .LVU387
 1589 0004 FFF7FEFF 		bl	HAL_Init
 1590              	.LVL114:
 114:Core/Src/main.c **** 
 1591              		.loc 1 114 3 view .LVU388
 1592 0008 FFF7FEFF 		bl	SystemClock_Config
 1593              	.LVL115:
 121:Core/Src/main.c ****   MX_DMA_Init();
 1594              		.loc 1 121 3 view .LVU389
 1595 000c FFF7FEFF 		bl	MX_GPIO_Init
 1596              	.LVL116:
ARM GAS  C:\Users\jdcox\AppData\Local\Temp\cczPUCDJ.s 			page 50


 122:Core/Src/main.c ****   MX_SPI1_Init();
 1597              		.loc 1 122 3 view .LVU390
 1598 0010 FFF7FEFF 		bl	MX_DMA_Init
 1599              	.LVL117:
 123:Core/Src/main.c ****   MX_I2C1_Init();
 1600              		.loc 1 123 3 view .LVU391
 1601 0014 FFF7FEFF 		bl	MX_SPI1_Init
 1602              	.LVL118:
 124:Core/Src/main.c ****   /* USER CODE BEGIN 2 */
 1603              		.loc 1 124 3 view .LVU392
 1604 0018 FFF7FEFF 		bl	MX_I2C1_Init
 1605              	.LVL119:
 139:Core/Src/main.c **** 
 1606              		.loc 1 139 3 view .LVU393
 139:Core/Src/main.c **** 
 1607              		.loc 1 139 16 is_stmt 0 view .LVU394
 1608 001c 0120     		movs	r0, #1
 1609 001e FFF7FEFF 		bl	xQueueCreateMutex
 1610              	.LVL120:
 139:Core/Src/main.c **** 
 1611              		.loc 1 139 14 view .LVU395
 1612 0022 244B     		ldr	r3, .L79
 1613 0024 1860     		str	r0, [r3]
 149:Core/Src/main.c ****   msTickHandle = osTimerCreate(osTimer(msTick), osTimerPeriodic, NULL);
 1614              		.loc 1 149 3 is_stmt 1 view .LVU396
 1615 0026 244B     		ldr	r3, .L79+4
 1616 0028 1293     		str	r3, [sp, #72]
 1617 002a 0025     		movs	r5, #0
 1618 002c 1395     		str	r5, [sp, #76]
 150:Core/Src/main.c **** 
 1619              		.loc 1 150 3 view .LVU397
 150:Core/Src/main.c **** 
 1620              		.loc 1 150 18 is_stmt 0 view .LVU398
 1621 002e 2A46     		mov	r2, r5
 1622 0030 0121     		movs	r1, #1
 1623 0032 12A8     		add	r0, sp, #72
 1624 0034 FFF7FEFF 		bl	osTimerCreate
 1625              	.LVL121:
 150:Core/Src/main.c **** 
 1626              		.loc 1 150 16 view .LVU399
 1627 0038 204B     		ldr	r3, .L79+8
 1628 003a 1860     		str	r0, [r3]
 153:Core/Src/main.c ****   debounceTimerHandle = osTimerCreate(osTimer(debounceTimer), osTimerOnce, NULL);
 1629              		.loc 1 153 3 is_stmt 1 view .LVU400
 1630 003c 204B     		ldr	r3, .L79+12
 1631 003e 1093     		str	r3, [sp, #64]
 1632 0040 1195     		str	r5, [sp, #68]
 154:Core/Src/main.c **** 
 1633              		.loc 1 154 3 view .LVU401
 154:Core/Src/main.c **** 
 1634              		.loc 1 154 25 is_stmt 0 view .LVU402
 1635 0042 2A46     		mov	r2, r5
 1636 0044 2946     		mov	r1, r5
 1637 0046 10A8     		add	r0, sp, #64
 1638 0048 FFF7FEFF 		bl	osTimerCreate
 1639              	.LVL122:
 154:Core/Src/main.c **** 
ARM GAS  C:\Users\jdcox\AppData\Local\Temp\cczPUCDJ.s 			page 51


 1640              		.loc 1 154 23 view .LVU403
 1641 004c 1D4B     		ldr	r3, .L79+16
 1642 004e 1860     		str	r0, [r3]
 157:Core/Src/main.c ****   blinkTimerHandle = osTimerCreate(osTimer(blinkTimer), osTimerOnce, NULL);
 1643              		.loc 1 157 3 is_stmt 1 view .LVU404
 1644 0050 1D4B     		ldr	r3, .L79+20
 1645 0052 0E93     		str	r3, [sp, #56]
 1646 0054 0F95     		str	r5, [sp, #60]
 158:Core/Src/main.c **** 
 1647              		.loc 1 158 3 view .LVU405
 158:Core/Src/main.c **** 
 1648              		.loc 1 158 22 is_stmt 0 view .LVU406
 1649 0056 2A46     		mov	r2, r5
 1650 0058 2946     		mov	r1, r5
 1651 005a 0EA8     		add	r0, sp, #56
 1652 005c FFF7FEFF 		bl	osTimerCreate
 1653              	.LVL123:
 158:Core/Src/main.c **** 
 1654              		.loc 1 158 20 view .LVU407
 1655 0060 1A4B     		ldr	r3, .L79+24
 1656 0062 1860     		str	r0, [r3]
 171:Core/Src/main.c ****   defaultTaskHandle = osThreadCreate(osThread(defaultTask), NULL);
 1657              		.loc 1 171 3 is_stmt 1 view .LVU408
 1658 0064 1A4C     		ldr	r4, .L79+28
 1659 0066 0DF11C0C 		add	ip, sp, #28
 1660 006a 04F11C0E 		add	lr, r4, #28
 1661 006e BEE80F00 		ldmia	lr!, {r0, r1, r2, r3}
 1662 0072 ACE80F00 		stmia	ip!, {r0, r1, r2, r3}
 1663 0076 9EE80700 		ldm	lr, {r0, r1, r2}
 1664 007a 8CE80700 		stm	ip, {r0, r1, r2}
 172:Core/Src/main.c **** 
 1665              		.loc 1 172 3 view .LVU409
 172:Core/Src/main.c **** 
 1666              		.loc 1 172 23 is_stmt 0 view .LVU410
 1667 007e 2946     		mov	r1, r5
 1668 0080 07A8     		add	r0, sp, #28
 1669 0082 FFF7FEFF 		bl	osThreadCreate
 1670              	.LVL124:
 172:Core/Src/main.c **** 
 1671              		.loc 1 172 21 view .LVU411
 1672 0086 134B     		ldr	r3, .L79+32
 1673 0088 1860     		str	r0, [r3]
 178:Core/Src/main.c ****   displayTaskHandle = osThreadCreate(osThread(displayTask), NULL);
 1674              		.loc 1 178 3 is_stmt 1 view .LVU412
 1675 008a EE46     		mov	lr, sp
 1676 008c 04F1380C 		add	ip, r4, #56
 1677 0090 BCE80F00 		ldmia	ip!, {r0, r1, r2, r3}
 1678 0094 AEE80F00 		stmia	lr!, {r0, r1, r2, r3}
 1679 0098 9CE80700 		ldm	ip, {r0, r1, r2}
 1680 009c 8EE80700 		stm	lr, {r0, r1, r2}
 179:Core/Src/main.c **** 
 1681              		.loc 1 179 3 view .LVU413
 179:Core/Src/main.c **** 
 1682              		.loc 1 179 23 is_stmt 0 view .LVU414
 1683 00a0 2946     		mov	r1, r5
 1684 00a2 6846     		mov	r0, sp
 1685 00a4 FFF7FEFF 		bl	osThreadCreate
ARM GAS  C:\Users\jdcox\AppData\Local\Temp\cczPUCDJ.s 			page 52


 1686              	.LVL125:
 179:Core/Src/main.c **** 
 1687              		.loc 1 179 21 view .LVU415
 1688 00a8 0B4B     		ldr	r3, .L79+36
 1689 00aa 1860     		str	r0, [r3]
 186:Core/Src/main.c **** 
 1690              		.loc 1 186 3 is_stmt 1 view .LVU416
 1691 00ac FFF7FEFF 		bl	osKernelStart
 1692              	.LVL126:
 1693              	.L77:
 191:Core/Src/main.c ****   {
 1694              		.loc 1 191 3 discriminator 1 view .LVU417
 196:Core/Src/main.c ****   /* USER CODE END 3 */
 1695              		.loc 1 196 3 discriminator 1 view .LVU418
 191:Core/Src/main.c ****   {
 1696              		.loc 1 191 9 discriminator 1 view .LVU419
 1697 00b0 FEE7     		b	.L77
 1698              	.L80:
 1699 00b2 00BF     		.align	2
 1700              	.L79:
 1701 00b4 00000000 		.word	.LANCHOR0
 1702 00b8 00000000 		.word	msTickCallback
 1703 00bc 00000000 		.word	.LANCHOR6
 1704 00c0 00000000 		.word	debounceCallback
 1705 00c4 00000000 		.word	.LANCHOR7
 1706 00c8 00000000 		.word	blinkTimerCallback
 1707 00cc 00000000 		.word	.LANCHOR8
 1708 00d0 00000000 		.word	.LANCHOR3
 1709 00d4 00000000 		.word	.LANCHOR9
 1710 00d8 00000000 		.word	.LANCHOR10
 1711              		.cfi_endproc
 1712              	.LFE138:
 1714              		.section	.rodata.str1.4,"aMS",%progbits,1
 1715              		.align	2
 1716              	.LC4:
 1717 0000 6C6F7261 		.ascii	"loraRXTask\000"
 1717      52585461 
 1717      736B00
 1718 000b 00       		.align	2
 1719              	.LC2:
 1720 000c 64697370 		.ascii	"displayTask\000"
 1720      6C617954 
 1720      61736B00 
 1721              		.align	2
 1722              	.LC0:
 1723 0018 64656661 		.ascii	"defaultTask\000"
 1723      756C7454 
 1723      61736B00 
 1724              		.global	myLoRa
 1725              		.global	xloraMutex
 1726              		.global	lora_mutexHandle
 1727              		.global	blinkTimerHandle
 1728              		.global	debounceTimerHandle
 1729              		.global	msTickHandle
 1730              		.global	displayTaskHandle
 1731              		.global	loraRXTaskHandle
 1732              		.global	defaultTaskHandle
ARM GAS  C:\Users\jdcox\AppData\Local\Temp\cczPUCDJ.s 			page 53


 1733              		.global	hdma_spi1_rx
 1734              		.global	hdma_spi1_tx
 1735              		.global	hspi1
 1736              		.global	hdma_i2c1_tx
 1737              		.global	hi2c1
 1738              		.section	.rodata
 1739              		.align	2
 1740              		.set	.LANCHOR3,. + 0
 1741              	.LC7:
 1742 0000 00000000 		.word	.LC4
 1743 0004 00000000 		.word	StartLoraRXTask
 1744 0008 0100     		.short	1
 1745 000a 0000     		.space	2
 1746 000c 00000000 		.word	0
 1747 0010 80000000 		.word	128
 1748 0014 00000000 		.word	0
 1749 0018 00000000 		.word	0
 1750              	.LC20:
 1751 001c 18000000 		.word	.LC0
 1752 0020 00000000 		.word	StartDefaultTask
 1753 0024 0000     		.short	0
 1754 0026 0000     		.space	2
 1755 0028 00000000 		.word	0
 1756 002c 80000000 		.word	128
 1757 0030 00000000 		.word	0
 1758 0034 00000000 		.word	0
 1759              	.LC21:
 1760 0038 0C000000 		.word	.LC2
 1761 003c 00000000 		.word	StartDisplayTask
 1762 0040 0000     		.short	0
 1763 0042 0000     		.space	2
 1764 0044 00000000 		.word	0
 1765 0048 80000000 		.word	128
 1766 004c 00000000 		.word	0
 1767 0050 00000000 		.word	0
 1768              		.section	.bss.blinkTimerHandle,"aw",%nobits
 1769              		.align	2
 1770              		.set	.LANCHOR8,. + 0
 1773              	blinkTimerHandle:
 1774 0000 00000000 		.space	4
 1775              		.section	.bss.debounceTimerHandle,"aw",%nobits
 1776              		.align	2
 1777              		.set	.LANCHOR7,. + 0
 1780              	debounceTimerHandle:
 1781 0000 00000000 		.space	4
 1782              		.section	.bss.defaultTaskHandle,"aw",%nobits
 1783              		.align	2
 1784              		.set	.LANCHOR9,. + 0
 1787              	defaultTaskHandle:
 1788 0000 00000000 		.space	4
 1789              		.section	.bss.displayTaskHandle,"aw",%nobits
 1790              		.align	2
 1791              		.set	.LANCHOR10,. + 0
 1794              	displayTaskHandle:
 1795 0000 00000000 		.space	4
 1796              		.section	.bss.hdma_i2c1_tx,"aw",%nobits
 1797              		.align	2
ARM GAS  C:\Users\jdcox\AppData\Local\Temp\cczPUCDJ.s 			page 54


 1800              	hdma_i2c1_tx:
 1801 0000 00000000 		.space	96
 1801      00000000 
 1801      00000000 
 1801      00000000 
 1801      00000000 
 1802              		.section	.bss.hdma_spi1_rx,"aw",%nobits
 1803              		.align	2
 1806              	hdma_spi1_rx:
 1807 0000 00000000 		.space	96
 1807      00000000 
 1807      00000000 
 1807      00000000 
 1807      00000000 
 1808              		.section	.bss.hdma_spi1_tx,"aw",%nobits
 1809              		.align	2
 1812              	hdma_spi1_tx:
 1813 0000 00000000 		.space	96
 1813      00000000 
 1813      00000000 
 1813      00000000 
 1813      00000000 
 1814              		.section	.bss.hi2c1,"aw",%nobits
 1815              		.align	2
 1816              		.set	.LANCHOR5,. + 0
 1819              	hi2c1:
 1820 0000 00000000 		.space	84
 1820      00000000 
 1820      00000000 
 1820      00000000 
 1820      00000000 
 1821              		.section	.bss.hspi1,"aw",%nobits
 1822              		.align	2
 1823              		.set	.LANCHOR2,. + 0
 1826              	hspi1:
 1827 0000 00000000 		.space	88
 1827      00000000 
 1827      00000000 
 1827      00000000 
 1827      00000000 
 1828              		.section	.bss.loraRXTaskHandle,"aw",%nobits
 1829              		.align	2
 1830              		.set	.LANCHOR4,. + 0
 1833              	loraRXTaskHandle:
 1834 0000 00000000 		.space	4
 1835              		.section	.bss.lora_mutexHandle,"aw",%nobits
 1836              		.align	2
 1839              	lora_mutexHandle:
 1840 0000 00000000 		.space	4
 1841              		.section	.bss.msTickHandle,"aw",%nobits
 1842              		.align	2
 1843              		.set	.LANCHOR6,. + 0
 1846              	msTickHandle:
 1847 0000 00000000 		.space	4
 1848              		.section	.bss.myLoRa,"aw",%nobits
 1849              		.align	2
 1850              		.set	.LANCHOR1,. + 0
ARM GAS  C:\Users\jdcox\AppData\Local\Temp\cczPUCDJ.s 			page 55


 1853              	myLoRa:
 1854 0000 00000000 		.space	44
 1854      00000000 
 1854      00000000 
 1854      00000000 
 1854      00000000 
 1855              		.section	.bss.xloraMutex,"aw",%nobits
 1856              		.align	2
 1857              		.set	.LANCHOR0,. + 0
 1860              	xloraMutex:
 1861 0000 00000000 		.space	4
 1862              		.text
 1863              	.Letext0:
 1864              		.file 3 "Drivers/CMSIS/Device/ST/STM32F4xx/Include/stm32f401xc.h"
 1865              		.file 4 "c:\\libraries\\gcc\\11.2 2022.02\\arm-none-eabi\\include\\machine\\_default_types.h"
 1866              		.file 5 "c:\\libraries\\gcc\\11.2 2022.02\\arm-none-eabi\\include\\sys\\_stdint.h"
 1867              		.file 6 "Drivers/CMSIS/Device/ST/STM32F4xx/Include/stm32f4xx.h"
 1868              		.file 7 "Drivers/STM32F4xx_HAL_Driver/Inc/stm32f4xx_hal_def.h"
 1869              		.file 8 "Drivers/STM32F4xx_HAL_Driver/Inc/stm32f4xx_hal_rcc_ex.h"
 1870              		.file 9 "Drivers/STM32F4xx_HAL_Driver/Inc/stm32f4xx_hal_rcc.h"
 1871              		.file 10 "Drivers/STM32F4xx_HAL_Driver/Inc/stm32f4xx_hal_gpio.h"
 1872              		.file 11 "Drivers/STM32F4xx_HAL_Driver/Inc/stm32f4xx_hal_dma.h"
 1873              		.file 12 "Drivers/STM32F4xx_HAL_Driver/Inc/stm32f4xx_hal_i2c.h"
 1874              		.file 13 "Drivers/STM32F4xx_HAL_Driver/Inc/stm32f4xx_hal_spi.h"
 1875              		.file 14 "Drivers/STM32F4xx_HAL_Driver/Inc/stm32f4xx_hal_tim.h"
 1876              		.file 15 "Middlewares/Third_Party/FreeRTOS/Source/include/projdefs.h"
 1877              		.file 16 "Middlewares/Third_Party/FreeRTOS/Source/portable/GCC/ARM_CM4F/portmacro.h"
 1878              		.file 17 "Middlewares/Third_Party/FreeRTOS/Source/include/FreeRTOS.h"
 1879              		.file 18 "Middlewares/Third_Party/FreeRTOS/Source/include/task.h"
 1880              		.file 19 "Middlewares/Third_Party/FreeRTOS/Source/include/timers.h"
 1881              		.file 20 "Middlewares/Third_Party/FreeRTOS/Source/include/queue.h"
 1882              		.file 21 "Middlewares/Third_Party/FreeRTOS/Source/include/semphr.h"
 1883              		.file 22 "Middlewares/Third_Party/FreeRTOS/Source/CMSIS_RTOS/cmsis_os.h"
 1884              		.file 23 "Core/Inc/lora.h"
 1885              		.file 24 "Core/Inc/extern.h"
 1886              		.file 25 "Core/Inc/ssd1306_fonts.h"
 1887              		.file 26 "Core/Inc/ssd1306.h"
 1888              		.file 27 "Core/Inc/i2c-lcd.h"
 1889              		.file 28 "Drivers/STM32F4xx_HAL_Driver/Inc/stm32f4xx_hal.h"
 1890              		.file 29 "c:\\libraries\\gcc\\11.2 2022.02\\arm-none-eabi\\include\\stdio.h"
 1891              		.file 30 "Drivers/STM32F4xx_HAL_Driver/Inc/stm32f4xx_hal_cortex.h"
 1892              		.file 31 "<built-in>"
ARM GAS  C:\Users\jdcox\AppData\Local\Temp\cczPUCDJ.s 			page 56


DEFINED SYMBOLS
                            *ABS*:00000000 main.c
C:\Users\jdcox\AppData\Local\Temp\cczPUCDJ.s:20     .text.msTickCallback:00000000 $t
C:\Users\jdcox\AppData\Local\Temp\cczPUCDJ.s:26     .text.msTickCallback:00000000 msTickCallback
C:\Users\jdcox\AppData\Local\Temp\cczPUCDJ.s:101    .text.msTickCallback:00000050 $d
C:\Users\jdcox\AppData\Local\Temp\cczPUCDJ.s:110    .text.debounceCallback:00000000 $t
C:\Users\jdcox\AppData\Local\Temp\cczPUCDJ.s:116    .text.debounceCallback:00000000 debounceCallback
C:\Users\jdcox\AppData\Local\Temp\cczPUCDJ.s:134    .text.debounceCallback:00000008 $d
C:\Users\jdcox\AppData\Local\Temp\cczPUCDJ.s:139    .text.blinkTimerCallback:00000000 $t
C:\Users\jdcox\AppData\Local\Temp\cczPUCDJ.s:145    .text.blinkTimerCallback:00000000 blinkTimerCallback
C:\Users\jdcox\AppData\Local\Temp\cczPUCDJ.s:159    .text.MX_GPIO_Init:00000000 $t
C:\Users\jdcox\AppData\Local\Temp\cczPUCDJ.s:164    .text.MX_GPIO_Init:00000000 MX_GPIO_Init
C:\Users\jdcox\AppData\Local\Temp\cczPUCDJ.s:346    .text.MX_GPIO_Init:000000e0 $d
C:\Users\jdcox\AppData\Local\Temp\cczPUCDJ.s:353    .text.MX_DMA_Init:00000000 $t
C:\Users\jdcox\AppData\Local\Temp\cczPUCDJ.s:358    .text.MX_DMA_Init:00000000 MX_DMA_Init
C:\Users\jdcox\AppData\Local\Temp\cczPUCDJ.s:445    .text.MX_DMA_Init:00000064 $d
C:\Users\jdcox\AppData\Local\Temp\cczPUCDJ.s:450    .text.StartDisplayTask:00000000 $t
C:\Users\jdcox\AppData\Local\Temp\cczPUCDJ.s:456    .text.StartDisplayTask:00000000 StartDisplayTask
C:\Users\jdcox\AppData\Local\Temp\cczPUCDJ.s:483    .rodata.StartDefaultTask.str1.4:00000000 $d
C:\Users\jdcox\AppData\Local\Temp\cczPUCDJ.s:523    .text.StartDefaultTask:00000000 $t
C:\Users\jdcox\AppData\Local\Temp\cczPUCDJ.s:529    .text.StartDefaultTask:00000000 StartDefaultTask
C:\Users\jdcox\AppData\Local\Temp\cczPUCDJ.s:787    .text.StartDefaultTask:00000168 $d
C:\Users\jdcox\AppData\Local\Temp\cczPUCDJ.s:793    .text.StartDefaultTask:00000180 $t
C:\Users\jdcox\AppData\Local\Temp\cczPUCDJ.s:1050   .text.StartDefaultTask:000002f4 $d
C:\Users\jdcox\AppData\Local\Temp\cczPUCDJ.s:1082   .text.StartDefaultTask:00000360 $t
C:\Users\jdcox\AppData\Local\Temp\cczPUCDJ.s:1121   .text.StartDefaultTask:0000039c $d
C:\Users\jdcox\AppData\Local\Temp\cczPUCDJ.s:1129   .text.StartLoraRXTask:00000000 $t
C:\Users\jdcox\AppData\Local\Temp\cczPUCDJ.s:1135   .text.StartLoraRXTask:00000000 StartLoraRXTask
C:\Users\jdcox\AppData\Local\Temp\cczPUCDJ.s:1169   .text.StartLoraRXTask:00000018 $d
C:\Users\jdcox\AppData\Local\Temp\cczPUCDJ.s:1174   .text.HAL_TIM_PeriodElapsedCallback:00000000 $t
C:\Users\jdcox\AppData\Local\Temp\cczPUCDJ.s:1180   .text.HAL_TIM_PeriodElapsedCallback:00000000 HAL_TIM_PeriodElapsedCallback
C:\Users\jdcox\AppData\Local\Temp\cczPUCDJ.s:1214   .text.HAL_TIM_PeriodElapsedCallback:00000014 $d
C:\Users\jdcox\AppData\Local\Temp\cczPUCDJ.s:1219   .text.Error_Handler:00000000 $t
C:\Users\jdcox\AppData\Local\Temp\cczPUCDJ.s:1225   .text.Error_Handler:00000000 Error_Handler
C:\Users\jdcox\AppData\Local\Temp\cczPUCDJ.s:1257   .text.MX_SPI1_Init:00000000 $t
C:\Users\jdcox\AppData\Local\Temp\cczPUCDJ.s:1262   .text.MX_SPI1_Init:00000000 MX_SPI1_Init
C:\Users\jdcox\AppData\Local\Temp\cczPUCDJ.s:1331   .text.MX_SPI1_Init:00000038 $d
C:\Users\jdcox\AppData\Local\Temp\cczPUCDJ.s:1337   .text.MX_I2C1_Init:00000000 $t
C:\Users\jdcox\AppData\Local\Temp\cczPUCDJ.s:1342   .text.MX_I2C1_Init:00000000 MX_I2C1_Init
C:\Users\jdcox\AppData\Local\Temp\cczPUCDJ.s:1401   .text.MX_I2C1_Init:00000030 $d
C:\Users\jdcox\AppData\Local\Temp\cczPUCDJ.s:1408   .text.SystemClock_Config:00000000 $t
C:\Users\jdcox\AppData\Local\Temp\cczPUCDJ.s:1414   .text.SystemClock_Config:00000000 SystemClock_Config
C:\Users\jdcox\AppData\Local\Temp\cczPUCDJ.s:1562   .text.SystemClock_Config:000000a4 $d
C:\Users\jdcox\AppData\Local\Temp\cczPUCDJ.s:1568   .text.main:00000000 $t
C:\Users\jdcox\AppData\Local\Temp\cczPUCDJ.s:1574   .text.main:00000000 main
C:\Users\jdcox\AppData\Local\Temp\cczPUCDJ.s:1701   .text.main:000000b4 $d
C:\Users\jdcox\AppData\Local\Temp\cczPUCDJ.s:1715   .rodata.str1.4:00000000 $d
C:\Users\jdcox\AppData\Local\Temp\cczPUCDJ.s:1853   .bss.myLoRa:00000000 myLoRa
C:\Users\jdcox\AppData\Local\Temp\cczPUCDJ.s:1860   .bss.xloraMutex:00000000 xloraMutex
C:\Users\jdcox\AppData\Local\Temp\cczPUCDJ.s:1839   .bss.lora_mutexHandle:00000000 lora_mutexHandle
C:\Users\jdcox\AppData\Local\Temp\cczPUCDJ.s:1773   .bss.blinkTimerHandle:00000000 blinkTimerHandle
C:\Users\jdcox\AppData\Local\Temp\cczPUCDJ.s:1780   .bss.debounceTimerHandle:00000000 debounceTimerHandle
C:\Users\jdcox\AppData\Local\Temp\cczPUCDJ.s:1846   .bss.msTickHandle:00000000 msTickHandle
C:\Users\jdcox\AppData\Local\Temp\cczPUCDJ.s:1794   .bss.displayTaskHandle:00000000 displayTaskHandle
C:\Users\jdcox\AppData\Local\Temp\cczPUCDJ.s:1833   .bss.loraRXTaskHandle:00000000 loraRXTaskHandle
C:\Users\jdcox\AppData\Local\Temp\cczPUCDJ.s:1787   .bss.defaultTaskHandle:00000000 defaultTaskHandle
C:\Users\jdcox\AppData\Local\Temp\cczPUCDJ.s:1806   .bss.hdma_spi1_rx:00000000 hdma_spi1_rx
ARM GAS  C:\Users\jdcox\AppData\Local\Temp\cczPUCDJ.s 			page 57


C:\Users\jdcox\AppData\Local\Temp\cczPUCDJ.s:1812   .bss.hdma_spi1_tx:00000000 hdma_spi1_tx
C:\Users\jdcox\AppData\Local\Temp\cczPUCDJ.s:1826   .bss.hspi1:00000000 hspi1
C:\Users\jdcox\AppData\Local\Temp\cczPUCDJ.s:1800   .bss.hdma_i2c1_tx:00000000 hdma_i2c1_tx
C:\Users\jdcox\AppData\Local\Temp\cczPUCDJ.s:1819   .bss.hi2c1:00000000 hi2c1
C:\Users\jdcox\AppData\Local\Temp\cczPUCDJ.s:1739   .rodata:00000000 $d
C:\Users\jdcox\AppData\Local\Temp\cczPUCDJ.s:1769   .bss.blinkTimerHandle:00000000 $d
C:\Users\jdcox\AppData\Local\Temp\cczPUCDJ.s:1776   .bss.debounceTimerHandle:00000000 $d
C:\Users\jdcox\AppData\Local\Temp\cczPUCDJ.s:1783   .bss.defaultTaskHandle:00000000 $d
C:\Users\jdcox\AppData\Local\Temp\cczPUCDJ.s:1790   .bss.displayTaskHandle:00000000 $d
C:\Users\jdcox\AppData\Local\Temp\cczPUCDJ.s:1797   .bss.hdma_i2c1_tx:00000000 $d
C:\Users\jdcox\AppData\Local\Temp\cczPUCDJ.s:1803   .bss.hdma_spi1_rx:00000000 $d
C:\Users\jdcox\AppData\Local\Temp\cczPUCDJ.s:1809   .bss.hdma_spi1_tx:00000000 $d
C:\Users\jdcox\AppData\Local\Temp\cczPUCDJ.s:1815   .bss.hi2c1:00000000 $d
C:\Users\jdcox\AppData\Local\Temp\cczPUCDJ.s:1822   .bss.hspi1:00000000 $d
C:\Users\jdcox\AppData\Local\Temp\cczPUCDJ.s:1829   .bss.loraRXTaskHandle:00000000 $d
C:\Users\jdcox\AppData\Local\Temp\cczPUCDJ.s:1836   .bss.lora_mutexHandle:00000000 $d
C:\Users\jdcox\AppData\Local\Temp\cczPUCDJ.s:1842   .bss.msTickHandle:00000000 $d
C:\Users\jdcox\AppData\Local\Temp\cczPUCDJ.s:1849   .bss.myLoRa:00000000 $d
C:\Users\jdcox\AppData\Local\Temp\cczPUCDJ.s:1856   .bss.xloraMutex:00000000 $d

UNDEFINED SYMBOLS
p1King_flag
p2King_flag
p1King_counter
gameState
p2King_counter
debouncing_Flag
HAL_GPIO_WritePin
HAL_GPIO_Init
HAL_NVIC_SetPriority
HAL_NVIC_EnableIRQ
osDelay
xQueueCreateMutex
newLoRa
LoRa_init
sprintf
LoRa_startReceiving
osThreadCreate
ssd1306_Init
ssd1306_SetCursor
ssd1306_WriteString
ssd1306_UpdateScreen
ssd1306_Fill
LoRa_transmit
HAL_GPIO_TogglePin
lcd_put_cur
opcodeString
debugBuddy
Font_16x24
stateChange_flag
Font_7x10
getKOTHPacket
HAL_IncTick
HAL_SPI_Init
HAL_I2C_Init
memset
HAL_RCC_OscConfig
ARM GAS  C:\Users\jdcox\AppData\Local\Temp\cczPUCDJ.s 			page 58


HAL_RCC_ClockConfig
HAL_Init
osTimerCreate
osKernelStart
