ARM GAS  C:\Users\jdcox\AppData\Local\Temp\ccQ7sHkq.s 			page 1


   1              		.cpu cortex-m4
   2              		.arch armv7e-m
   3              		.fpu fpv4-sp-d16
   4              		.eabi_attribute 27, 1
   5              		.eabi_attribute 28, 1
   6              		.eabi_attribute 20, 1
   7              		.eabi_attribute 21, 1
   8              		.eabi_attribute 23, 3
   9              		.eabi_attribute 24, 1
  10              		.eabi_attribute 25, 1
  11              		.eabi_attribute 26, 1
  12              		.eabi_attribute 30, 1
  13              		.eabi_attribute 34, 1
  14              		.eabi_attribute 18, 4
  15              		.file	"main.c"
  16              		.text
  17              	.Ltext0:
  18              		.cfi_sections	.debug_frame
  19              		.section	.text.msTickCallback,"ax",%progbits
  20              		.align	1
  21              		.global	msTickCallback
  22              		.syntax unified
  23              		.thumb
  24              		.thumb_func
  26              	msTickCallback:
  27              	.LVL0:
  28              	.LFB147:
  29              		.file 1 "Core/Src/main.c"
   1:Core/Src/main.c **** /* USER CODE BEGIN Header */
   2:Core/Src/main.c **** /**
   3:Core/Src/main.c ****   ******************************************************************************
   4:Core/Src/main.c ****   * @file           : main.c
   5:Core/Src/main.c ****   * @brief          : Main program body
   6:Core/Src/main.c ****   ******************************************************************************
   7:Core/Src/main.c ****   * @attention
   8:Core/Src/main.c ****   *
   9:Core/Src/main.c ****   * Copyright (c) 2024 STMicroelectronics.
  10:Core/Src/main.c ****   * All rights reserved.
  11:Core/Src/main.c ****   *
  12:Core/Src/main.c ****   * This software is licensed under terms that can be found in the LICENSE file
  13:Core/Src/main.c ****   * in the root directory of this software component.
  14:Core/Src/main.c ****   * If no LICENSE file comes with this software, it is provided AS-IS.
  15:Core/Src/main.c ****   *
  16:Core/Src/main.c ****   ******************************************************************************
  17:Core/Src/main.c ****   */
  18:Core/Src/main.c **** /* USER CODE END Header */
  19:Core/Src/main.c **** /* Includes ------------------------------------------------------------------*/
  20:Core/Src/main.c **** #include "main.h"
  21:Core/Src/main.c **** #include "cmsis_os.h"
  22:Core/Src/main.c **** 
  23:Core/Src/main.c **** /* Private includes ----------------------------------------------------------*/
  24:Core/Src/main.c **** /* USER CODE BEGIN Includes */
  25:Core/Src/main.c **** #include "extern.h"
  26:Core/Src/main.c **** #include "i2c-lcd.h"
  27:Core/Src/main.c **** #include "lora.h"
  28:Core/Src/main.c **** #include <string.h>
  29:Core/Src/main.c **** #include <stdio.h>
ARM GAS  C:\Users\jdcox\AppData\Local\Temp\ccQ7sHkq.s 			page 2


  30:Core/Src/main.c **** #include "ssd1306.h"
  31:Core/Src/main.c **** #include "semphr.h"
  32:Core/Src/main.c **** 
  33:Core/Src/main.c **** 
  34:Core/Src/main.c **** /* USER CODE END Includes */
  35:Core/Src/main.c **** 
  36:Core/Src/main.c **** /* Private typedef -----------------------------------------------------------*/
  37:Core/Src/main.c **** /* USER CODE BEGIN PTD */
  38:Core/Src/main.c **** 
  39:Core/Src/main.c **** /* USER CODE END PTD */
  40:Core/Src/main.c **** 
  41:Core/Src/main.c **** /* Private define ------------------------------------------------------------*/
  42:Core/Src/main.c **** /* USER CODE BEGIN PD */
  43:Core/Src/main.c **** /* USER CODE END PD */
  44:Core/Src/main.c **** 
  45:Core/Src/main.c **** /* Private macro -------------------------------------------------------------*/
  46:Core/Src/main.c **** /* USER CODE BEGIN PM */
  47:Core/Src/main.c **** 
  48:Core/Src/main.c **** /* USER CODE END PM */
  49:Core/Src/main.c **** 
  50:Core/Src/main.c **** /* Private variables ---------------------------------------------------------*/
  51:Core/Src/main.c **** I2C_HandleTypeDef hi2c1;
  52:Core/Src/main.c **** DMA_HandleTypeDef hdma_i2c1_tx;
  53:Core/Src/main.c **** 
  54:Core/Src/main.c **** SPI_HandleTypeDef hspi1;
  55:Core/Src/main.c **** DMA_HandleTypeDef hdma_spi1_tx;
  56:Core/Src/main.c **** DMA_HandleTypeDef hdma_spi1_rx;
  57:Core/Src/main.c **** 
  58:Core/Src/main.c **** osThreadId defaultTaskHandle;
  59:Core/Src/main.c **** osThreadId loraRXTaskHandle;
  60:Core/Src/main.c **** osThreadId displayTaskHandle;
  61:Core/Src/main.c **** osTimerId msTickHandle;
  62:Core/Src/main.c **** osTimerId debounceTimerHandle;
  63:Core/Src/main.c **** osTimerId blinkTimerHandle;
  64:Core/Src/main.c **** osMutexId lora_mutexHandle;
  65:Core/Src/main.c **** /* USER CODE BEGIN PV */
  66:Core/Src/main.c **** SemaphoreHandle_t xloraMutex;
  67:Core/Src/main.c **** LoRa myLoRa;
  68:Core/Src/main.c **** 
  69:Core/Src/main.c **** 
  70:Core/Src/main.c **** /* USER CODE END PV */
  71:Core/Src/main.c **** 
  72:Core/Src/main.c **** /* Private function prototypes -----------------------------------------------*/
  73:Core/Src/main.c **** void SystemClock_Config(void);
  74:Core/Src/main.c **** static void MX_GPIO_Init(void);
  75:Core/Src/main.c **** static void MX_DMA_Init(void);
  76:Core/Src/main.c **** static void MX_SPI1_Init(void);
  77:Core/Src/main.c **** static void MX_I2C1_Init(void);
  78:Core/Src/main.c **** void StartDefaultTask(void const * argument);
  79:Core/Src/main.c **** void StartLoraRXTask(void const * argument);
  80:Core/Src/main.c **** void StartDisplayTask(void const * argument);
  81:Core/Src/main.c **** void msTickCallback(void const * argument);
  82:Core/Src/main.c **** void debounceCallback(void const * argument);
  83:Core/Src/main.c **** void blinkTimerCallback(void const * argument);
  84:Core/Src/main.c **** 
  85:Core/Src/main.c **** /* USER CODE BEGIN PFP */
  86:Core/Src/main.c **** 
ARM GAS  C:\Users\jdcox\AppData\Local\Temp\ccQ7sHkq.s 			page 3


  87:Core/Src/main.c **** /* USER CODE END PFP */
  88:Core/Src/main.c **** 
  89:Core/Src/main.c **** /* Private user code ---------------------------------------------------------*/
  90:Core/Src/main.c **** /* USER CODE BEGIN 0 */
  91:Core/Src/main.c **** 
  92:Core/Src/main.c **** /* USER CODE END 0 */
  93:Core/Src/main.c **** 
  94:Core/Src/main.c **** /**
  95:Core/Src/main.c ****   * @brief  The application entry point.
  96:Core/Src/main.c ****   * @retval int
  97:Core/Src/main.c ****   */
  98:Core/Src/main.c **** int main(void)
  99:Core/Src/main.c **** {
 100:Core/Src/main.c ****   /* USER CODE BEGIN 1 */
 101:Core/Src/main.c **** 
 102:Core/Src/main.c ****   /* USER CODE END 1 */
 103:Core/Src/main.c **** 
 104:Core/Src/main.c ****   /* MCU Configuration--------------------------------------------------------*/
 105:Core/Src/main.c **** 
 106:Core/Src/main.c ****   /* Reset of all peripherals, Initializes the Flash interface and the Systick. */
 107:Core/Src/main.c ****   HAL_Init();
 108:Core/Src/main.c **** 
 109:Core/Src/main.c ****   /* USER CODE BEGIN Init */
 110:Core/Src/main.c **** 
 111:Core/Src/main.c ****   /* USER CODE END Init */
 112:Core/Src/main.c **** 
 113:Core/Src/main.c ****   /* Configure the system clock */
 114:Core/Src/main.c ****   SystemClock_Config();
 115:Core/Src/main.c **** 
 116:Core/Src/main.c ****   /* USER CODE BEGIN SysInit */
 117:Core/Src/main.c **** 
 118:Core/Src/main.c ****   /* USER CODE END SysInit */
 119:Core/Src/main.c **** 
 120:Core/Src/main.c ****   /* Initialize all configured peripherals */
 121:Core/Src/main.c ****   MX_GPIO_Init();
 122:Core/Src/main.c ****   MX_DMA_Init();
 123:Core/Src/main.c ****   MX_SPI1_Init();
 124:Core/Src/main.c ****   MX_I2C1_Init();
 125:Core/Src/main.c ****   /* USER CODE BEGIN 2 */
 126:Core/Src/main.c **** 
 127:Core/Src/main.c **** 
 128:Core/Src/main.c **** 
 129:Core/Src/main.c ****   /* USER CODE END 2 */
 130:Core/Src/main.c **** 
 131:Core/Src/main.c ****   /* Create the mutex(es) */
 132:Core/Src/main.c ****   /* definition and creation of lora_mutex */
 133:Core/Src/main.c ****   //debug osMutexDef(lora_mutex);
 134:Core/Src/main.c ****   //debug lora_mutexHandle = osMutexCreate(osMutex(lora_mutex));
 135:Core/Src/main.c **** 
 136:Core/Src/main.c ****   /* USER CODE BEGIN RTOS_MUTEX */
 137:Core/Src/main.c ****   /* add mutexes, ... */
 138:Core/Src/main.c **** 
 139:Core/Src/main.c ****   xloraMutex = xSemaphoreCreateMutex();
 140:Core/Src/main.c **** 
 141:Core/Src/main.c ****   /* USER CODE END RTOS_MUTEX */
 142:Core/Src/main.c **** 
 143:Core/Src/main.c ****   /* USER CODE BEGIN RTOS_SEMAPHORES */
ARM GAS  C:\Users\jdcox\AppData\Local\Temp\ccQ7sHkq.s 			page 4


 144:Core/Src/main.c ****   /* add semaphores, ... */
 145:Core/Src/main.c ****   /* USER CODE END RTOS_SEMAPHORES */
 146:Core/Src/main.c **** 
 147:Core/Src/main.c ****   /* Create the timer(s) */
 148:Core/Src/main.c ****   /* definition and creation of msTick */
 149:Core/Src/main.c ****   osTimerDef(msTick, msTickCallback);
 150:Core/Src/main.c ****   msTickHandle = osTimerCreate(osTimer(msTick), osTimerPeriodic, NULL);
 151:Core/Src/main.c **** 
 152:Core/Src/main.c ****   /* definition and creation of debounceTimer */
 153:Core/Src/main.c ****   osTimerDef(debounceTimer, debounceCallback);
 154:Core/Src/main.c ****   debounceTimerHandle = osTimerCreate(osTimer(debounceTimer), osTimerOnce, NULL);
 155:Core/Src/main.c **** 
 156:Core/Src/main.c ****   /* definition and creation of blinkTimer */
 157:Core/Src/main.c ****   osTimerDef(blinkTimer, blinkTimerCallback);
 158:Core/Src/main.c ****   blinkTimerHandle = osTimerCreate(osTimer(blinkTimer), osTimerOnce, NULL);
 159:Core/Src/main.c **** 
 160:Core/Src/main.c ****   /* USER CODE BEGIN RTOS_TIMERS */
 161:Core/Src/main.c ****   /* start timers, add new ones, ... */
 162:Core/Src/main.c ****  
 163:Core/Src/main.c ****   /* USER CODE END RTOS_TIMERS */
 164:Core/Src/main.c **** 
 165:Core/Src/main.c ****   /* USER CODE BEGIN RTOS_QUEUES */
 166:Core/Src/main.c ****   /* add queues, ... */
 167:Core/Src/main.c ****   /* USER CODE END RTOS_QUEUES */
 168:Core/Src/main.c **** 
 169:Core/Src/main.c ****   /* Create the thread(s) */
 170:Core/Src/main.c ****   /* definition and creation of defaultTask */
 171:Core/Src/main.c ****   osThreadDef(defaultTask, StartDefaultTask, osPriorityNormal, 0, 128);
 172:Core/Src/main.c ****   defaultTaskHandle = osThreadCreate(osThread(defaultTask), NULL);
 173:Core/Src/main.c **** 
 174:Core/Src/main.c ****   /* definition and creation of loraRXTask */
 175:Core/Src/main.c ****   
 176:Core/Src/main.c **** 
 177:Core/Src/main.c ****   /* definition and creation of displayTask */
 178:Core/Src/main.c ****   osThreadDef(displayTask, StartDisplayTask, osPriorityNormal, 0, 128);
 179:Core/Src/main.c ****   displayTaskHandle = osThreadCreate(osThread(displayTask), NULL);
 180:Core/Src/main.c **** 
 181:Core/Src/main.c ****   /* USER CODE BEGIN RTOS_THREADS */
 182:Core/Src/main.c ****   /* add threads, ... */
 183:Core/Src/main.c ****   /* USER CODE END RTOS_THREADS */
 184:Core/Src/main.c **** 
 185:Core/Src/main.c ****   /* Start scheduler */
 186:Core/Src/main.c ****   osKernelStart();
 187:Core/Src/main.c **** 
 188:Core/Src/main.c ****   /* We should never get here as control is now taken by the scheduler */
 189:Core/Src/main.c ****   /* Infinite loop */
 190:Core/Src/main.c ****   /* USER CODE BEGIN WHILE */
 191:Core/Src/main.c ****   while (1)
 192:Core/Src/main.c ****   {
 193:Core/Src/main.c ****     /* USER CODE END WHILE */
 194:Core/Src/main.c **** 
 195:Core/Src/main.c ****     /* USER CODE BEGIN 3 */
 196:Core/Src/main.c ****   }
 197:Core/Src/main.c ****   /* USER CODE END 3 */
 198:Core/Src/main.c **** }
 199:Core/Src/main.c **** 
 200:Core/Src/main.c **** /**
ARM GAS  C:\Users\jdcox\AppData\Local\Temp\ccQ7sHkq.s 			page 5


 201:Core/Src/main.c ****   * @brief System Clock Configuration
 202:Core/Src/main.c ****   * @retval None
 203:Core/Src/main.c ****   */
 204:Core/Src/main.c **** void SystemClock_Config(void)
 205:Core/Src/main.c **** {
 206:Core/Src/main.c ****   RCC_OscInitTypeDef RCC_OscInitStruct = {0};
 207:Core/Src/main.c ****   RCC_ClkInitTypeDef RCC_ClkInitStruct = {0};
 208:Core/Src/main.c **** 
 209:Core/Src/main.c ****   /** Configure the main internal regulator output voltage
 210:Core/Src/main.c ****   */
 211:Core/Src/main.c ****   __HAL_RCC_PWR_CLK_ENABLE();
 212:Core/Src/main.c ****   __HAL_PWR_VOLTAGESCALING_CONFIG(PWR_REGULATOR_VOLTAGE_SCALE2);
 213:Core/Src/main.c **** 
 214:Core/Src/main.c ****   /** Initializes the RCC Oscillators according to the specified parameters
 215:Core/Src/main.c ****   * in the RCC_OscInitTypeDef structure.
 216:Core/Src/main.c ****   */
 217:Core/Src/main.c ****   RCC_OscInitStruct.OscillatorType = RCC_OSCILLATORTYPE_HSE;
 218:Core/Src/main.c ****   RCC_OscInitStruct.HSEState = RCC_HSE_ON;
 219:Core/Src/main.c ****   RCC_OscInitStruct.PLL.PLLState = RCC_PLL_ON;
 220:Core/Src/main.c ****   RCC_OscInitStruct.PLL.PLLSource = RCC_PLLSOURCE_HSE;
 221:Core/Src/main.c ****   RCC_OscInitStruct.PLL.PLLM = 25;
 222:Core/Src/main.c ****   RCC_OscInitStruct.PLL.PLLN = 336;
 223:Core/Src/main.c ****   RCC_OscInitStruct.PLL.PLLP = RCC_PLLP_DIV4;
 224:Core/Src/main.c ****   RCC_OscInitStruct.PLL.PLLQ = 7;
 225:Core/Src/main.c ****   if (HAL_RCC_OscConfig(&RCC_OscInitStruct) != HAL_OK)
 226:Core/Src/main.c ****   {
 227:Core/Src/main.c ****     Error_Handler();
 228:Core/Src/main.c ****   }
 229:Core/Src/main.c **** 
 230:Core/Src/main.c ****   /** Initializes the CPU, AHB and APB buses clocks
 231:Core/Src/main.c ****   */
 232:Core/Src/main.c ****   RCC_ClkInitStruct.ClockType = RCC_CLOCKTYPE_HCLK|RCC_CLOCKTYPE_SYSCLK
 233:Core/Src/main.c ****                               |RCC_CLOCKTYPE_PCLK1|RCC_CLOCKTYPE_PCLK2;
 234:Core/Src/main.c ****   RCC_ClkInitStruct.SYSCLKSource = RCC_SYSCLKSOURCE_PLLCLK;
 235:Core/Src/main.c ****   RCC_ClkInitStruct.AHBCLKDivider = RCC_SYSCLK_DIV1;
 236:Core/Src/main.c ****   RCC_ClkInitStruct.APB1CLKDivider = RCC_HCLK_DIV2;
 237:Core/Src/main.c ****   RCC_ClkInitStruct.APB2CLKDivider = RCC_HCLK_DIV1;
 238:Core/Src/main.c **** 
 239:Core/Src/main.c ****   if (HAL_RCC_ClockConfig(&RCC_ClkInitStruct, FLASH_LATENCY_2) != HAL_OK)
 240:Core/Src/main.c ****   {
 241:Core/Src/main.c ****     Error_Handler();
 242:Core/Src/main.c ****   }
 243:Core/Src/main.c **** }
 244:Core/Src/main.c **** 
 245:Core/Src/main.c **** /**
 246:Core/Src/main.c ****   * @brief I2C1 Initialization Function
 247:Core/Src/main.c ****   * @param None
 248:Core/Src/main.c ****   * @retval None
 249:Core/Src/main.c ****   */
 250:Core/Src/main.c **** static void MX_I2C1_Init(void)
 251:Core/Src/main.c **** {
 252:Core/Src/main.c **** 
 253:Core/Src/main.c ****   /* USER CODE BEGIN I2C1_Init 0 */
 254:Core/Src/main.c **** 
 255:Core/Src/main.c ****   /* USER CODE END I2C1_Init 0 */
 256:Core/Src/main.c **** 
 257:Core/Src/main.c ****   /* USER CODE BEGIN I2C1_Init 1 */
ARM GAS  C:\Users\jdcox\AppData\Local\Temp\ccQ7sHkq.s 			page 6


 258:Core/Src/main.c **** 
 259:Core/Src/main.c ****   /* USER CODE END I2C1_Init 1 */
 260:Core/Src/main.c ****   hi2c1.Instance = I2C1;
 261:Core/Src/main.c ****   hi2c1.Init.ClockSpeed = 100000;
 262:Core/Src/main.c ****   hi2c1.Init.DutyCycle = I2C_DUTYCYCLE_2;
 263:Core/Src/main.c ****   hi2c1.Init.OwnAddress1 = 78;
 264:Core/Src/main.c ****   hi2c1.Init.AddressingMode = I2C_ADDRESSINGMODE_7BIT;
 265:Core/Src/main.c ****   hi2c1.Init.DualAddressMode = I2C_DUALADDRESS_DISABLE;
 266:Core/Src/main.c ****   hi2c1.Init.OwnAddress2 = 0;
 267:Core/Src/main.c ****   hi2c1.Init.GeneralCallMode = I2C_GENERALCALL_DISABLE;
 268:Core/Src/main.c ****   hi2c1.Init.NoStretchMode = I2C_NOSTRETCH_DISABLE;
 269:Core/Src/main.c ****   if (HAL_I2C_Init(&hi2c1) != HAL_OK)
 270:Core/Src/main.c ****   {
 271:Core/Src/main.c ****     Error_Handler();
 272:Core/Src/main.c ****   }
 273:Core/Src/main.c ****   /* USER CODE BEGIN I2C1_Init 2 */
 274:Core/Src/main.c **** 
 275:Core/Src/main.c ****   /* USER CODE END I2C1_Init 2 */
 276:Core/Src/main.c **** 
 277:Core/Src/main.c **** }
 278:Core/Src/main.c **** 
 279:Core/Src/main.c **** /**
 280:Core/Src/main.c ****   * @brief SPI1 Initialization Function
 281:Core/Src/main.c ****   * @param None
 282:Core/Src/main.c ****   * @retval None
 283:Core/Src/main.c ****   */
 284:Core/Src/main.c **** static void MX_SPI1_Init(void)
 285:Core/Src/main.c **** {
 286:Core/Src/main.c **** 
 287:Core/Src/main.c ****   /* USER CODE BEGIN SPI1_Init 0 */
 288:Core/Src/main.c **** 
 289:Core/Src/main.c ****   /* USER CODE END SPI1_Init 0 */
 290:Core/Src/main.c **** 
 291:Core/Src/main.c ****   /* USER CODE BEGIN SPI1_Init 1 */
 292:Core/Src/main.c **** 
 293:Core/Src/main.c ****   /* USER CODE END SPI1_Init 1 */
 294:Core/Src/main.c ****   /* SPI1 parameter configuration*/
 295:Core/Src/main.c ****   hspi1.Instance = SPI1;
 296:Core/Src/main.c ****   hspi1.Init.Mode = SPI_MODE_MASTER;
 297:Core/Src/main.c ****   hspi1.Init.Direction = SPI_DIRECTION_2LINES;
 298:Core/Src/main.c ****   hspi1.Init.DataSize = SPI_DATASIZE_8BIT;
 299:Core/Src/main.c ****   hspi1.Init.CLKPolarity = SPI_POLARITY_LOW;
 300:Core/Src/main.c ****   hspi1.Init.CLKPhase = SPI_PHASE_1EDGE;
 301:Core/Src/main.c ****   hspi1.Init.NSS = SPI_NSS_SOFT;
 302:Core/Src/main.c ****   hspi1.Init.BaudRatePrescaler = SPI_BAUDRATEPRESCALER_16;
 303:Core/Src/main.c ****   hspi1.Init.FirstBit = SPI_FIRSTBIT_MSB;
 304:Core/Src/main.c ****   hspi1.Init.TIMode = SPI_TIMODE_DISABLE;
 305:Core/Src/main.c ****   hspi1.Init.CRCCalculation = SPI_CRCCALCULATION_DISABLE;
 306:Core/Src/main.c ****   hspi1.Init.CRCPolynomial = 10;
 307:Core/Src/main.c ****   if (HAL_SPI_Init(&hspi1) != HAL_OK)
 308:Core/Src/main.c ****   {
 309:Core/Src/main.c ****     Error_Handler();
 310:Core/Src/main.c ****   }
 311:Core/Src/main.c ****   /* USER CODE BEGIN SPI1_Init 2 */
 312:Core/Src/main.c **** 
 313:Core/Src/main.c ****   /* USER CODE END SPI1_Init 2 */
 314:Core/Src/main.c **** 
ARM GAS  C:\Users\jdcox\AppData\Local\Temp\ccQ7sHkq.s 			page 7


 315:Core/Src/main.c **** }
 316:Core/Src/main.c **** 
 317:Core/Src/main.c **** /**
 318:Core/Src/main.c ****   * Enable DMA controller clock
 319:Core/Src/main.c ****   */
 320:Core/Src/main.c **** static void MX_DMA_Init(void)
 321:Core/Src/main.c **** {
 322:Core/Src/main.c **** 
 323:Core/Src/main.c ****   /* DMA controller clock enable */
 324:Core/Src/main.c ****   __HAL_RCC_DMA1_CLK_ENABLE();
 325:Core/Src/main.c ****   __HAL_RCC_DMA2_CLK_ENABLE();
 326:Core/Src/main.c **** 
 327:Core/Src/main.c ****   /* DMA interrupt init */
 328:Core/Src/main.c ****   /* DMA1_Stream6_IRQn interrupt configuration */
 329:Core/Src/main.c ****   HAL_NVIC_SetPriority(DMA1_Stream6_IRQn, 5, 0);
 330:Core/Src/main.c ****   HAL_NVIC_EnableIRQ(DMA1_Stream6_IRQn);
 331:Core/Src/main.c ****   /* DMA2_Stream0_IRQn interrupt configuration */
 332:Core/Src/main.c ****   HAL_NVIC_SetPriority(DMA2_Stream0_IRQn, 5, 0);
 333:Core/Src/main.c ****   HAL_NVIC_EnableIRQ(DMA2_Stream0_IRQn);
 334:Core/Src/main.c ****   /* DMA2_Stream3_IRQn interrupt configuration */
 335:Core/Src/main.c ****   HAL_NVIC_SetPriority(DMA2_Stream3_IRQn, 5, 0);
 336:Core/Src/main.c ****   HAL_NVIC_EnableIRQ(DMA2_Stream3_IRQn);
 337:Core/Src/main.c **** 
 338:Core/Src/main.c **** }
 339:Core/Src/main.c **** 
 340:Core/Src/main.c **** /**
 341:Core/Src/main.c ****   * @brief GPIO Initialization Function
 342:Core/Src/main.c ****   * @param None
 343:Core/Src/main.c ****   * @retval None
 344:Core/Src/main.c ****   */
 345:Core/Src/main.c **** static void MX_GPIO_Init(void)
 346:Core/Src/main.c **** {
 347:Core/Src/main.c ****   GPIO_InitTypeDef GPIO_InitStruct = {0};
 348:Core/Src/main.c **** 
 349:Core/Src/main.c ****   /* GPIO Ports Clock Enable */
 350:Core/Src/main.c ****   __HAL_RCC_GPIOH_CLK_ENABLE();
 351:Core/Src/main.c ****   __HAL_RCC_GPIOA_CLK_ENABLE();
 352:Core/Src/main.c ****   __HAL_RCC_GPIOB_CLK_ENABLE();
 353:Core/Src/main.c **** 
 354:Core/Src/main.c ****   /*Configure GPIO pin Output Level */
 355:Core/Src/main.c ****   HAL_GPIO_WritePin(GPIOB, LED1_Pin|LED2_Pin, GPIO_PIN_SET);
 356:Core/Src/main.c **** 
 357:Core/Src/main.c ****   /*Configure GPIO pin Output Level */
 358:Core/Src/main.c ****   HAL_GPIO_WritePin(GPIOA, LORA_RST_Pin|LORA_CS_Pin, GPIO_PIN_SET);
 359:Core/Src/main.c **** 
 360:Core/Src/main.c ****   /*Configure GPIO pin : BTN_IN_Pin */
 361:Core/Src/main.c ****   GPIO_InitStruct.Pin = BTN_IN_Pin;
 362:Core/Src/main.c ****   GPIO_InitStruct.Mode = GPIO_MODE_IT_FALLING;
 363:Core/Src/main.c ****   GPIO_InitStruct.Pull = GPIO_PULLUP;
 364:Core/Src/main.c ****   HAL_GPIO_Init(BTN_IN_GPIO_Port, &GPIO_InitStruct);
 365:Core/Src/main.c **** 
 366:Core/Src/main.c ****   /*Configure GPIO pins : LED1_Pin LED2_Pin */
 367:Core/Src/main.c ****   GPIO_InitStruct.Pin = LED1_Pin|LED2_Pin;
 368:Core/Src/main.c ****   GPIO_InitStruct.Mode = GPIO_MODE_OUTPUT_PP;
 369:Core/Src/main.c ****   GPIO_InitStruct.Pull = GPIO_NOPULL;
 370:Core/Src/main.c ****   GPIO_InitStruct.Speed = GPIO_SPEED_FREQ_LOW;
 371:Core/Src/main.c ****   HAL_GPIO_Init(GPIOB, &GPIO_InitStruct);
ARM GAS  C:\Users\jdcox\AppData\Local\Temp\ccQ7sHkq.s 			page 8


 372:Core/Src/main.c **** 
 373:Core/Src/main.c ****   /*Configure GPIO pin : LORA_EXTI_Pin */
 374:Core/Src/main.c ****   GPIO_InitStruct.Pin = LORA_EXTI_Pin;
 375:Core/Src/main.c ****   GPIO_InitStruct.Mode = GPIO_MODE_IT_RISING;
 376:Core/Src/main.c ****   GPIO_InitStruct.Pull = GPIO_NOPULL;
 377:Core/Src/main.c ****   HAL_GPIO_Init(LORA_EXTI_GPIO_Port, &GPIO_InitStruct);
 378:Core/Src/main.c **** 
 379:Core/Src/main.c ****   /*Configure GPIO pins : LORA_RST_Pin LORA_CS_Pin */
 380:Core/Src/main.c ****   GPIO_InitStruct.Pin = LORA_RST_Pin|LORA_CS_Pin;
 381:Core/Src/main.c ****   GPIO_InitStruct.Mode = GPIO_MODE_OUTPUT_PP;
 382:Core/Src/main.c ****   GPIO_InitStruct.Pull = GPIO_NOPULL;
 383:Core/Src/main.c ****   GPIO_InitStruct.Speed = GPIO_SPEED_FREQ_LOW;
 384:Core/Src/main.c ****   HAL_GPIO_Init(GPIOA, &GPIO_InitStruct);
 385:Core/Src/main.c **** 
 386:Core/Src/main.c ****   /* EXTI interrupt init*/
 387:Core/Src/main.c ****   HAL_NVIC_SetPriority(EXTI0_IRQn, 5, 0);
 388:Core/Src/main.c ****   HAL_NVIC_EnableIRQ(EXTI0_IRQn);
 389:Core/Src/main.c **** 
 390:Core/Src/main.c **** }
 391:Core/Src/main.c **** 
 392:Core/Src/main.c **** /* USER CODE BEGIN 4 */
 393:Core/Src/main.c **** 
 394:Core/Src/main.c **** /* USER CODE END 4 */
 395:Core/Src/main.c **** 
 396:Core/Src/main.c **** /* USER CODE BEGIN Header_StartDefaultTask */
 397:Core/Src/main.c **** /**
 398:Core/Src/main.c ****   * @brief  Function implementing the defaultTask thread.
 399:Core/Src/main.c ****   * @param  argument: Not used
 400:Core/Src/main.c ****   * @retval None
 401:Core/Src/main.c ****   */
 402:Core/Src/main.c **** /* USER CODE END Header_StartDefaultTask */
 403:Core/Src/main.c **** void StartDefaultTask(void const * argument)
 404:Core/Src/main.c **** {
 405:Core/Src/main.c ****   /* USER CODE BEGIN 5 */
 406:Core/Src/main.c ****   //xloraMutex = xSemaphoreCreateMutex();
 407:Core/Src/main.c ****   //xSemaphoreTake(xloraMutex, portMAX_DELAY);
 408:Core/Src/main.c **** 
 409:Core/Src/main.c ****   // Create LoRa instance
 410:Core/Src/main.c ****   myLoRa = newLoRa();
 411:Core/Src/main.c **** 
 412:Core/Src/main.c ****   // configure
 413:Core/Src/main.c ****     myLoRa.CS_port         = LORA_CS_GPIO_Port;
 414:Core/Src/main.c ****     myLoRa.CS_pin          = LORA_CS_Pin;
 415:Core/Src/main.c ****     myLoRa.reset_port      = LORA_RST_GPIO_Port;
 416:Core/Src/main.c ****     myLoRa.reset_pin       = LORA_RST_Pin;
 417:Core/Src/main.c ****     myLoRa.DIO0_port       = LORA_EXTI_GPIO_Port;
 418:Core/Src/main.c ****     myLoRa.DIO0_pin        = LORA_EXTI_Pin;
 419:Core/Src/main.c ****     myLoRa.hSPIx           = &hspi1;
 420:Core/Src/main.c **** 
 421:Core/Src/main.c ****   // Kick it
 422:Core/Src/main.c ****   uint16_t LoRa_Status = LoRa_init(&myLoRa);
 423:Core/Src/main.c ****   sprintf(opcodeString,"Josh wins", 10);
 424:Core/Src/main.c ****   if(LoRa_Status == LORA_OK)
 425:Core/Src/main.c ****   {
 426:Core/Src/main.c ****     LoRa_transmit(&myLoRa, (uint8_t*)opcodeString, 12, 100);
 427:Core/Src/main.c ****   }
 428:Core/Src/main.c ****   else
ARM GAS  C:\Users\jdcox\AppData\Local\Temp\ccQ7sHkq.s 			page 9


 429:Core/Src/main.c ****   {
 430:Core/Src/main.c ****     debugBuddy = 9;
 431:Core/Src/main.c ****   }
 432:Core/Src/main.c **** 
 433:Core/Src/main.c ****   LoRa_startReceiving(&myLoRa);
 434:Core/Src/main.c ****   
 435:Core/Src/main.c ****   //xSemaphoreGive(xloraMutex);
 436:Core/Src/main.c ****   //debug osMutexRelease(lora_mutexHandle);
 437:Core/Src/main.c **** 
 438:Core/Src/main.c ****   osThreadDef(loraRXTask, StartLoraRXTask, osPriorityAboveNormal, 0, 128);
 439:Core/Src/main.c ****   //loraRXTaskHandle = osThreadCreate(osThread(loraRXTask), NULL);
 440:Core/Src/main.c **** 
 441:Core/Src/main.c ****   REDLED_OFF;
 442:Core/Src/main.c ****   ssd1306_Init();
 443:Core/Src/main.c ****   ssd1306_SetCursor(0,0);
 444:Core/Src/main.c ****   ssd1306_WriteString("KING",Font_16x24,1);
 445:Core/Src/main.c ****   ssd1306_UpdateScreen();
 446:Core/Src/main.c ****   osDelay(500);
 447:Core/Src/main.c ****   ssd1306_Fill(0);
 448:Core/Src/main.c ****   ssd1306_SetCursor(64,0);
 449:Core/Src/main.c ****   ssd1306_WriteString("OF",Font_16x24,1);
 450:Core/Src/main.c ****   ssd1306_UpdateScreen();
 451:Core/Src/main.c ****   osDelay(500);
 452:Core/Src/main.c ****   ssd1306_Fill(0);
 453:Core/Src/main.c ****   ssd1306_SetCursor(0,8);
 454:Core/Src/main.c ****   ssd1306_WriteString("THE",Font_16x24,1);
 455:Core/Src/main.c ****   ssd1306_UpdateScreen();
 456:Core/Src/main.c ****   osDelay(500);
 457:Core/Src/main.c ****   ssd1306_Fill(0);
 458:Core/Src/main.c ****   ssd1306_SetCursor(64,8);
 459:Core/Src/main.c ****   ssd1306_WriteString("HILL",Font_16x24,1);
 460:Core/Src/main.c ****   ssd1306_UpdateScreen();
 461:Core/Src/main.c **** 
 462:Core/Src/main.c ****   
 463:Core/Src/main.c **** 
 464:Core/Src/main.c ****   osDelay(1000);
 465:Core/Src/main.c **** 
 466:Core/Src/main.c ****   resetGame();
 467:Core/Src/main.c ****   osTimerStart(msTickHandle, pdMS_TO_TICKS(10));
 468:Core/Src/main.c ****   
 469:Core/Src/main.c **** 
 470:Core/Src/main.c ****   /* Infinite loop */
 471:Core/Src/main.c ****   for(;;)
 472:Core/Src/main.c ****   {
 473:Core/Src/main.c **** 
 474:Core/Src/main.c ****     //doGameState();
 475:Core/Src/main.c ****     doGameStateSimple();
 476:Core/Src/main.c **** 
 477:Core/Src/main.c ****     getKOTHPacket();
 478:Core/Src/main.c **** 
 479:Core/Src/main.c **** 
 480:Core/Src/main.c ****     osDelay(20);
 481:Core/Src/main.c ****    
 482:Core/Src/main.c **** 
 483:Core/Src/main.c **** 
 484:Core/Src/main.c ****   }
 485:Core/Src/main.c ****   /* USER CODE END 5 */
ARM GAS  C:\Users\jdcox\AppData\Local\Temp\ccQ7sHkq.s 			page 10


 486:Core/Src/main.c **** }
 487:Core/Src/main.c **** 
 488:Core/Src/main.c **** /* USER CODE BEGIN Header_StartLoraRXTask */
 489:Core/Src/main.c **** /**
 490:Core/Src/main.c **** * @brief Function implementing the loraRXTask thread.
 491:Core/Src/main.c **** * @param argument: Not used
 492:Core/Src/main.c **** * @retval None
 493:Core/Src/main.c **** */
 494:Core/Src/main.c **** /* USER CODE END Header_StartLoraRXTask */
 495:Core/Src/main.c **** void StartLoraRXTask(void const * argument)
 496:Core/Src/main.c **** {
 497:Core/Src/main.c ****   /* USER CODE BEGIN StartLoraRXTask */
 498:Core/Src/main.c ****   /* Infinite loop */
 499:Core/Src/main.c ****   for(;;)
 500:Core/Src/main.c ****   {
 501:Core/Src/main.c ****     // Get the data
 502:Core/Src/main.c ****     getKOTHPacket();
 503:Core/Src/main.c ****     
 504:Core/Src/main.c ****     osDelay(100);
 505:Core/Src/main.c **** 
 506:Core/Src/main.c ****   }
 507:Core/Src/main.c ****   /* USER CODE END StartLoraRXTask */
 508:Core/Src/main.c **** }
 509:Core/Src/main.c **** 
 510:Core/Src/main.c **** /* USER CODE BEGIN Header_StartDisplayTask */
 511:Core/Src/main.c **** /**
 512:Core/Src/main.c **** * @brief Function implementing the displayTask thread.
 513:Core/Src/main.c **** * @param argument: Not used
 514:Core/Src/main.c **** * @retval None
 515:Core/Src/main.c **** */
 516:Core/Src/main.c **** /* USER CODE END Header_StartDisplayTask */
 517:Core/Src/main.c **** void StartDisplayTask(void const * argument)
 518:Core/Src/main.c **** {
 519:Core/Src/main.c ****   /* USER CODE BEGIN StartDisplayTask */
 520:Core/Src/main.c ****   /* Infinite loop */
 521:Core/Src/main.c ****   for(;;)
 522:Core/Src/main.c ****   {
 523:Core/Src/main.c **** 
 524:Core/Src/main.c ****     osDelay(100);
 525:Core/Src/main.c ****   }
 526:Core/Src/main.c ****   /* USER CODE END StartDisplayTask */
 527:Core/Src/main.c **** }
 528:Core/Src/main.c **** 
 529:Core/Src/main.c **** /* msTickCallback function */
 530:Core/Src/main.c **** void msTickCallback(void const * argument)
 531:Core/Src/main.c **** {
  30              		.loc 1 531 1 view -0
  31              		.cfi_startproc
  32              		@ args = 0, pretend = 0, frame = 0
  33              		@ frame_needed = 0, uses_anonymous_args = 0
  34              		@ link register save eliminated.
 532:Core/Src/main.c ****   /* USER CODE BEGIN msTickCallback */
 533:Core/Src/main.c ****     if(red_flag == 1)
  35              		.loc 1 533 5 view .LVU1
  36              		.loc 1 533 17 is_stmt 0 view .LVU2
  37 0000 154B     		ldr	r3, .L6
  38 0002 1B78     		ldrb	r3, [r3]	@ zero_extendqisi2
ARM GAS  C:\Users\jdcox\AppData\Local\Temp\ccQ7sHkq.s 			page 11


  39              		.loc 1 533 7 view .LVU3
  40 0004 012B     		cmp	r3, #1
  41 0006 04D0     		beq	.L4
  42              	.L2:
 534:Core/Src/main.c ****     {
 535:Core/Src/main.c ****       red_counter += 10;
 536:Core/Src/main.c ****       if(red_counter >= 10000)
 537:Core/Src/main.c ****       {
 538:Core/Src/main.c ****         red_flag = 0;
 539:Core/Src/main.c ****         blue_flag = 0;
 540:Core/Src/main.c ****         gameState = REDWINS;
 541:Core/Src/main.c ****       }
 542:Core/Src/main.c ****     }
 543:Core/Src/main.c **** 
 544:Core/Src/main.c ****     if(blue_flag == 1)
  43              		.loc 1 544 5 is_stmt 1 view .LVU4
  44              		.loc 1 544 18 is_stmt 0 view .LVU5
  45 0008 144B     		ldr	r3, .L6+4
  46 000a 1B78     		ldrb	r3, [r3]	@ zero_extendqisi2
  47              		.loc 1 544 7 view .LVU6
  48 000c 012B     		cmp	r3, #1
  49 000e 11D0     		beq	.L5
  50              	.L1:
 545:Core/Src/main.c ****     {
 546:Core/Src/main.c ****       blue_counter += 10;
 547:Core/Src/main.c ****       if(blue_counter >= 10000)
 548:Core/Src/main.c ****       { 
 549:Core/Src/main.c ****         red_flag = 0;
 550:Core/Src/main.c ****         blue_flag = 0;
 551:Core/Src/main.c ****         gameState = BLUEWINS;
 552:Core/Src/main.c ****       }
 553:Core/Src/main.c ****     }
 554:Core/Src/main.c ****   /* USER CODE END msTickCallback */
 555:Core/Src/main.c **** }
  51              		.loc 1 555 1 view .LVU7
  52 0010 7047     		bx	lr
  53              	.L4:
 535:Core/Src/main.c ****       if(red_counter >= 10000)
  54              		.loc 1 535 7 is_stmt 1 view .LVU8
 535:Core/Src/main.c ****       if(red_counter >= 10000)
  55              		.loc 1 535 19 is_stmt 0 view .LVU9
  56 0012 134A     		ldr	r2, .L6+8
  57 0014 1368     		ldr	r3, [r2]
  58 0016 0A33     		adds	r3, r3, #10
  59 0018 1360     		str	r3, [r2]
 536:Core/Src/main.c ****       {
  60              		.loc 1 536 7 is_stmt 1 view .LVU10
 536:Core/Src/main.c ****       {
  61              		.loc 1 536 9 is_stmt 0 view .LVU11
  62 001a 42F20F72 		movw	r2, #9999
  63 001e 9342     		cmp	r3, r2
  64 0020 F2D9     		bls	.L2
 538:Core/Src/main.c ****         blue_flag = 0;
  65              		.loc 1 538 9 is_stmt 1 view .LVU12
 538:Core/Src/main.c ****         blue_flag = 0;
  66              		.loc 1 538 18 is_stmt 0 view .LVU13
  67 0022 0023     		movs	r3, #0
ARM GAS  C:\Users\jdcox\AppData\Local\Temp\ccQ7sHkq.s 			page 12


  68 0024 0C4A     		ldr	r2, .L6
  69 0026 1370     		strb	r3, [r2]
 539:Core/Src/main.c ****         gameState = REDWINS;
  70              		.loc 1 539 9 is_stmt 1 view .LVU14
 539:Core/Src/main.c ****         gameState = REDWINS;
  71              		.loc 1 539 19 is_stmt 0 view .LVU15
  72 0028 0C4A     		ldr	r2, .L6+4
  73 002a 1370     		strb	r3, [r2]
 540:Core/Src/main.c ****       }
  74              		.loc 1 540 9 is_stmt 1 view .LVU16
 540:Core/Src/main.c ****       }
  75              		.loc 1 540 19 is_stmt 0 view .LVU17
  76 002c 0D4B     		ldr	r3, .L6+12
  77 002e 0722     		movs	r2, #7
  78 0030 1A70     		strb	r2, [r3]
  79 0032 E9E7     		b	.L2
  80              	.L5:
 546:Core/Src/main.c ****       if(blue_counter >= 10000)
  81              		.loc 1 546 7 is_stmt 1 view .LVU18
 546:Core/Src/main.c ****       if(blue_counter >= 10000)
  82              		.loc 1 546 20 is_stmt 0 view .LVU19
  83 0034 0C4A     		ldr	r2, .L6+16
  84 0036 1368     		ldr	r3, [r2]
  85 0038 0A33     		adds	r3, r3, #10
  86 003a 1360     		str	r3, [r2]
 547:Core/Src/main.c ****       { 
  87              		.loc 1 547 7 is_stmt 1 view .LVU20
 547:Core/Src/main.c ****       { 
  88              		.loc 1 547 9 is_stmt 0 view .LVU21
  89 003c 42F20F72 		movw	r2, #9999
  90 0040 9342     		cmp	r3, r2
  91 0042 E5D9     		bls	.L1
 549:Core/Src/main.c ****         blue_flag = 0;
  92              		.loc 1 549 9 is_stmt 1 view .LVU22
 549:Core/Src/main.c ****         blue_flag = 0;
  93              		.loc 1 549 18 is_stmt 0 view .LVU23
  94 0044 0023     		movs	r3, #0
  95 0046 044A     		ldr	r2, .L6
  96 0048 1370     		strb	r3, [r2]
 550:Core/Src/main.c ****         gameState = BLUEWINS;
  97              		.loc 1 550 9 is_stmt 1 view .LVU24
 550:Core/Src/main.c ****         gameState = BLUEWINS;
  98              		.loc 1 550 19 is_stmt 0 view .LVU25
  99 004a 044A     		ldr	r2, .L6+4
 100 004c 1370     		strb	r3, [r2]
 551:Core/Src/main.c ****       }
 101              		.loc 1 551 9 is_stmt 1 view .LVU26
 551:Core/Src/main.c ****       }
 102              		.loc 1 551 19 is_stmt 0 view .LVU27
 103 004e 054B     		ldr	r3, .L6+12
 104 0050 0622     		movs	r2, #6
 105 0052 1A70     		strb	r2, [r3]
 106              		.loc 1 555 1 view .LVU28
 107 0054 DCE7     		b	.L1
 108              	.L7:
 109 0056 00BF     		.align	2
 110              	.L6:
ARM GAS  C:\Users\jdcox\AppData\Local\Temp\ccQ7sHkq.s 			page 13


 111 0058 00000000 		.word	red_flag
 112 005c 00000000 		.word	blue_flag
 113 0060 00000000 		.word	red_counter
 114 0064 00000000 		.word	gameState
 115 0068 00000000 		.word	blue_counter
 116              		.cfi_endproc
 117              	.LFE147:
 119              		.section	.text.debounceCallback,"ax",%progbits
 120              		.align	1
 121              		.global	debounceCallback
 122              		.syntax unified
 123              		.thumb
 124              		.thumb_func
 126              	debounceCallback:
 127              	.LVL1:
 128              	.LFB148:
 556:Core/Src/main.c **** 
 557:Core/Src/main.c **** /* debounceCallback function */
 558:Core/Src/main.c **** void debounceCallback(void const * argument)
 559:Core/Src/main.c **** {
 129              		.loc 1 559 1 is_stmt 1 view -0
 130              		.cfi_startproc
 131              		@ args = 0, pretend = 0, frame = 0
 132              		@ frame_needed = 0, uses_anonymous_args = 0
 133              		@ link register save eliminated.
 560:Core/Src/main.c ****   /* USER CODE BEGIN debounceCallback */
 561:Core/Src/main.c ****   debouncing_Flag = 0;
 134              		.loc 1 561 3 view .LVU30
 135              		.loc 1 561 19 is_stmt 0 view .LVU31
 136 0000 014B     		ldr	r3, .L9
 137 0002 0022     		movs	r2, #0
 138 0004 1A70     		strb	r2, [r3]
 562:Core/Src/main.c ****   /* USER CODE END debounceCallback */
 563:Core/Src/main.c **** }
 139              		.loc 1 563 1 view .LVU32
 140 0006 7047     		bx	lr
 141              	.L10:
 142              		.align	2
 143              	.L9:
 144 0008 00000000 		.word	debouncing_Flag
 145              		.cfi_endproc
 146              	.LFE148:
 148              		.section	.text.blinkTimerCallback,"ax",%progbits
 149              		.align	1
 150              		.global	blinkTimerCallback
 151              		.syntax unified
 152              		.thumb
 153              		.thumb_func
 155              	blinkTimerCallback:
 156              	.LVL2:
 157              	.LFB149:
 564:Core/Src/main.c **** 
 565:Core/Src/main.c **** /* blinkTimerCallback function */
 566:Core/Src/main.c **** void blinkTimerCallback(void const * argument)
 567:Core/Src/main.c **** {
 158              		.loc 1 567 1 is_stmt 1 view -0
 159              		.cfi_startproc
ARM GAS  C:\Users\jdcox\AppData\Local\Temp\ccQ7sHkq.s 			page 14


 160              		@ args = 0, pretend = 0, frame = 0
 161              		@ frame_needed = 0, uses_anonymous_args = 0
 162              		@ link register save eliminated.
 568:Core/Src/main.c ****   /* USER CODE BEGIN blinkTimerCallback */
 569:Core/Src/main.c **** 
 570:Core/Src/main.c ****   /* USER CODE END blinkTimerCallback */
 571:Core/Src/main.c **** }
 163              		.loc 1 571 1 view .LVU34
 164 0000 7047     		bx	lr
 165              		.cfi_endproc
 166              	.LFE149:
 168              		.section	.text.MX_GPIO_Init,"ax",%progbits
 169              		.align	1
 170              		.syntax unified
 171              		.thumb
 172              		.thumb_func
 174              	MX_GPIO_Init:
 175              	.LFB143:
 346:Core/Src/main.c ****   GPIO_InitTypeDef GPIO_InitStruct = {0};
 176              		.loc 1 346 1 view -0
 177              		.cfi_startproc
 178              		@ args = 0, pretend = 0, frame = 32
 179              		@ frame_needed = 0, uses_anonymous_args = 0
 180 0000 2DE9F041 		push	{r4, r5, r6, r7, r8, lr}
 181              	.LCFI0:
 182              		.cfi_def_cfa_offset 24
 183              		.cfi_offset 4, -24
 184              		.cfi_offset 5, -20
 185              		.cfi_offset 6, -16
 186              		.cfi_offset 7, -12
 187              		.cfi_offset 8, -8
 188              		.cfi_offset 14, -4
 189 0004 88B0     		sub	sp, sp, #32
 190              	.LCFI1:
 191              		.cfi_def_cfa_offset 56
 347:Core/Src/main.c **** 
 192              		.loc 1 347 3 view .LVU36
 347:Core/Src/main.c **** 
 193              		.loc 1 347 20 is_stmt 0 view .LVU37
 194 0006 0024     		movs	r4, #0
 195 0008 0394     		str	r4, [sp, #12]
 196 000a 0494     		str	r4, [sp, #16]
 197 000c 0594     		str	r4, [sp, #20]
 198 000e 0694     		str	r4, [sp, #24]
 199 0010 0794     		str	r4, [sp, #28]
 350:Core/Src/main.c ****   __HAL_RCC_GPIOA_CLK_ENABLE();
 200              		.loc 1 350 3 is_stmt 1 view .LVU38
 201              	.LBB4:
 350:Core/Src/main.c ****   __HAL_RCC_GPIOA_CLK_ENABLE();
 202              		.loc 1 350 3 view .LVU39
 203 0012 0094     		str	r4, [sp]
 350:Core/Src/main.c ****   __HAL_RCC_GPIOA_CLK_ENABLE();
 204              		.loc 1 350 3 view .LVU40
 205 0014 2F4B     		ldr	r3, .L14
 206 0016 1A6B     		ldr	r2, [r3, #48]
 207 0018 42F08002 		orr	r2, r2, #128
 208 001c 1A63     		str	r2, [r3, #48]
ARM GAS  C:\Users\jdcox\AppData\Local\Temp\ccQ7sHkq.s 			page 15


 350:Core/Src/main.c ****   __HAL_RCC_GPIOA_CLK_ENABLE();
 209              		.loc 1 350 3 view .LVU41
 210 001e 1A6B     		ldr	r2, [r3, #48]
 211 0020 02F08002 		and	r2, r2, #128
 212 0024 0092     		str	r2, [sp]
 350:Core/Src/main.c ****   __HAL_RCC_GPIOA_CLK_ENABLE();
 213              		.loc 1 350 3 view .LVU42
 214 0026 009A     		ldr	r2, [sp]
 215              	.LBE4:
 350:Core/Src/main.c ****   __HAL_RCC_GPIOA_CLK_ENABLE();
 216              		.loc 1 350 3 view .LVU43
 351:Core/Src/main.c ****   __HAL_RCC_GPIOB_CLK_ENABLE();
 217              		.loc 1 351 3 view .LVU44
 218              	.LBB5:
 351:Core/Src/main.c ****   __HAL_RCC_GPIOB_CLK_ENABLE();
 219              		.loc 1 351 3 view .LVU45
 220 0028 0194     		str	r4, [sp, #4]
 351:Core/Src/main.c ****   __HAL_RCC_GPIOB_CLK_ENABLE();
 221              		.loc 1 351 3 view .LVU46
 222 002a 1A6B     		ldr	r2, [r3, #48]
 223 002c 42F00102 		orr	r2, r2, #1
 224 0030 1A63     		str	r2, [r3, #48]
 351:Core/Src/main.c ****   __HAL_RCC_GPIOB_CLK_ENABLE();
 225              		.loc 1 351 3 view .LVU47
 226 0032 1A6B     		ldr	r2, [r3, #48]
 227 0034 02F00102 		and	r2, r2, #1
 228 0038 0192     		str	r2, [sp, #4]
 351:Core/Src/main.c ****   __HAL_RCC_GPIOB_CLK_ENABLE();
 229              		.loc 1 351 3 view .LVU48
 230 003a 019A     		ldr	r2, [sp, #4]
 231              	.LBE5:
 351:Core/Src/main.c ****   __HAL_RCC_GPIOB_CLK_ENABLE();
 232              		.loc 1 351 3 view .LVU49
 352:Core/Src/main.c **** 
 233              		.loc 1 352 3 view .LVU50
 234              	.LBB6:
 352:Core/Src/main.c **** 
 235              		.loc 1 352 3 view .LVU51
 236 003c 0294     		str	r4, [sp, #8]
 352:Core/Src/main.c **** 
 237              		.loc 1 352 3 view .LVU52
 238 003e 1A6B     		ldr	r2, [r3, #48]
 239 0040 42F00202 		orr	r2, r2, #2
 240 0044 1A63     		str	r2, [r3, #48]
 352:Core/Src/main.c **** 
 241              		.loc 1 352 3 view .LVU53
 242 0046 1B6B     		ldr	r3, [r3, #48]
 243 0048 03F00203 		and	r3, r3, #2
 244 004c 0293     		str	r3, [sp, #8]
 352:Core/Src/main.c **** 
 245              		.loc 1 352 3 view .LVU54
 246 004e 029B     		ldr	r3, [sp, #8]
 247              	.LBE6:
 352:Core/Src/main.c **** 
 248              		.loc 1 352 3 view .LVU55
 355:Core/Src/main.c **** 
 249              		.loc 1 355 3 view .LVU56
ARM GAS  C:\Users\jdcox\AppData\Local\Temp\ccQ7sHkq.s 			page 16


 250 0050 DFF88880 		ldr	r8, .L14+8
 251 0054 0122     		movs	r2, #1
 252 0056 0621     		movs	r1, #6
 253 0058 4046     		mov	r0, r8
 254 005a FFF7FEFF 		bl	HAL_GPIO_WritePin
 255              	.LVL3:
 358:Core/Src/main.c **** 
 256              		.loc 1 358 3 view .LVU57
 257 005e 1E4F     		ldr	r7, .L14+4
 258 0060 0122     		movs	r2, #1
 259 0062 4FF4C061 		mov	r1, #1536
 260 0066 3846     		mov	r0, r7
 261 0068 FFF7FEFF 		bl	HAL_GPIO_WritePin
 262              	.LVL4:
 361:Core/Src/main.c ****   GPIO_InitStruct.Mode = GPIO_MODE_IT_FALLING;
 263              		.loc 1 361 3 view .LVU58
 361:Core/Src/main.c ****   GPIO_InitStruct.Mode = GPIO_MODE_IT_FALLING;
 264              		.loc 1 361 23 is_stmt 0 view .LVU59
 265 006c 0125     		movs	r5, #1
 266 006e 0395     		str	r5, [sp, #12]
 362:Core/Src/main.c ****   GPIO_InitStruct.Pull = GPIO_PULLUP;
 267              		.loc 1 362 3 is_stmt 1 view .LVU60
 362:Core/Src/main.c ****   GPIO_InitStruct.Pull = GPIO_PULLUP;
 268              		.loc 1 362 24 is_stmt 0 view .LVU61
 269 0070 4FF40413 		mov	r3, #2162688
 270 0074 0493     		str	r3, [sp, #16]
 363:Core/Src/main.c ****   HAL_GPIO_Init(BTN_IN_GPIO_Port, &GPIO_InitStruct);
 271              		.loc 1 363 3 is_stmt 1 view .LVU62
 363:Core/Src/main.c ****   HAL_GPIO_Init(BTN_IN_GPIO_Port, &GPIO_InitStruct);
 272              		.loc 1 363 24 is_stmt 0 view .LVU63
 273 0076 0595     		str	r5, [sp, #20]
 364:Core/Src/main.c **** 
 274              		.loc 1 364 3 is_stmt 1 view .LVU64
 275 0078 03A9     		add	r1, sp, #12
 276 007a 4046     		mov	r0, r8
 277 007c FFF7FEFF 		bl	HAL_GPIO_Init
 278              	.LVL5:
 367:Core/Src/main.c ****   GPIO_InitStruct.Mode = GPIO_MODE_OUTPUT_PP;
 279              		.loc 1 367 3 view .LVU65
 367:Core/Src/main.c ****   GPIO_InitStruct.Mode = GPIO_MODE_OUTPUT_PP;
 280              		.loc 1 367 23 is_stmt 0 view .LVU66
 281 0080 0626     		movs	r6, #6
 282 0082 0396     		str	r6, [sp, #12]
 368:Core/Src/main.c ****   GPIO_InitStruct.Pull = GPIO_NOPULL;
 283              		.loc 1 368 3 is_stmt 1 view .LVU67
 368:Core/Src/main.c ****   GPIO_InitStruct.Pull = GPIO_NOPULL;
 284              		.loc 1 368 24 is_stmt 0 view .LVU68
 285 0084 0495     		str	r5, [sp, #16]
 369:Core/Src/main.c ****   GPIO_InitStruct.Speed = GPIO_SPEED_FREQ_LOW;
 286              		.loc 1 369 3 is_stmt 1 view .LVU69
 369:Core/Src/main.c ****   GPIO_InitStruct.Speed = GPIO_SPEED_FREQ_LOW;
 287              		.loc 1 369 24 is_stmt 0 view .LVU70
 288 0086 0594     		str	r4, [sp, #20]
 370:Core/Src/main.c ****   HAL_GPIO_Init(GPIOB, &GPIO_InitStruct);
 289              		.loc 1 370 3 is_stmt 1 view .LVU71
 370:Core/Src/main.c ****   HAL_GPIO_Init(GPIOB, &GPIO_InitStruct);
 290              		.loc 1 370 25 is_stmt 0 view .LVU72
ARM GAS  C:\Users\jdcox\AppData\Local\Temp\ccQ7sHkq.s 			page 17


 291 0088 0694     		str	r4, [sp, #24]
 371:Core/Src/main.c **** 
 292              		.loc 1 371 3 is_stmt 1 view .LVU73
 293 008a 03A9     		add	r1, sp, #12
 294 008c 4046     		mov	r0, r8
 295 008e FFF7FEFF 		bl	HAL_GPIO_Init
 296              	.LVL6:
 374:Core/Src/main.c ****   GPIO_InitStruct.Mode = GPIO_MODE_IT_RISING;
 297              		.loc 1 374 3 view .LVU74
 374:Core/Src/main.c ****   GPIO_InitStruct.Mode = GPIO_MODE_IT_RISING;
 298              		.loc 1 374 23 is_stmt 0 view .LVU75
 299 0092 4FF48073 		mov	r3, #256
 300 0096 0393     		str	r3, [sp, #12]
 375:Core/Src/main.c ****   GPIO_InitStruct.Pull = GPIO_NOPULL;
 301              		.loc 1 375 3 is_stmt 1 view .LVU76
 375:Core/Src/main.c ****   GPIO_InitStruct.Pull = GPIO_NOPULL;
 302              		.loc 1 375 24 is_stmt 0 view .LVU77
 303 0098 4FF48813 		mov	r3, #1114112
 304 009c 0493     		str	r3, [sp, #16]
 376:Core/Src/main.c ****   HAL_GPIO_Init(LORA_EXTI_GPIO_Port, &GPIO_InitStruct);
 305              		.loc 1 376 3 is_stmt 1 view .LVU78
 376:Core/Src/main.c ****   HAL_GPIO_Init(LORA_EXTI_GPIO_Port, &GPIO_InitStruct);
 306              		.loc 1 376 24 is_stmt 0 view .LVU79
 307 009e 0594     		str	r4, [sp, #20]
 377:Core/Src/main.c **** 
 308              		.loc 1 377 3 is_stmt 1 view .LVU80
 309 00a0 03A9     		add	r1, sp, #12
 310 00a2 3846     		mov	r0, r7
 311 00a4 FFF7FEFF 		bl	HAL_GPIO_Init
 312              	.LVL7:
 380:Core/Src/main.c ****   GPIO_InitStruct.Mode = GPIO_MODE_OUTPUT_PP;
 313              		.loc 1 380 3 view .LVU81
 380:Core/Src/main.c ****   GPIO_InitStruct.Mode = GPIO_MODE_OUTPUT_PP;
 314              		.loc 1 380 23 is_stmt 0 view .LVU82
 315 00a8 4FF4C063 		mov	r3, #1536
 316 00ac 0393     		str	r3, [sp, #12]
 381:Core/Src/main.c ****   GPIO_InitStruct.Pull = GPIO_NOPULL;
 317              		.loc 1 381 3 is_stmt 1 view .LVU83
 381:Core/Src/main.c ****   GPIO_InitStruct.Pull = GPIO_NOPULL;
 318              		.loc 1 381 24 is_stmt 0 view .LVU84
 319 00ae 0495     		str	r5, [sp, #16]
 382:Core/Src/main.c ****   GPIO_InitStruct.Speed = GPIO_SPEED_FREQ_LOW;
 320              		.loc 1 382 3 is_stmt 1 view .LVU85
 382:Core/Src/main.c ****   GPIO_InitStruct.Speed = GPIO_SPEED_FREQ_LOW;
 321              		.loc 1 382 24 is_stmt 0 view .LVU86
 322 00b0 0594     		str	r4, [sp, #20]
 383:Core/Src/main.c ****   HAL_GPIO_Init(GPIOA, &GPIO_InitStruct);
 323              		.loc 1 383 3 is_stmt 1 view .LVU87
 383:Core/Src/main.c ****   HAL_GPIO_Init(GPIOA, &GPIO_InitStruct);
 324              		.loc 1 383 25 is_stmt 0 view .LVU88
 325 00b2 0694     		str	r4, [sp, #24]
 384:Core/Src/main.c **** 
 326              		.loc 1 384 3 is_stmt 1 view .LVU89
 327 00b4 03A9     		add	r1, sp, #12
 328 00b6 3846     		mov	r0, r7
 329 00b8 FFF7FEFF 		bl	HAL_GPIO_Init
 330              	.LVL8:
ARM GAS  C:\Users\jdcox\AppData\Local\Temp\ccQ7sHkq.s 			page 18


 387:Core/Src/main.c ****   HAL_NVIC_EnableIRQ(EXTI0_IRQn);
 331              		.loc 1 387 3 view .LVU90
 332 00bc 2246     		mov	r2, r4
 333 00be 0521     		movs	r1, #5
 334 00c0 3046     		mov	r0, r6
 335 00c2 FFF7FEFF 		bl	HAL_NVIC_SetPriority
 336              	.LVL9:
 388:Core/Src/main.c **** 
 337              		.loc 1 388 3 view .LVU91
 338 00c6 3046     		mov	r0, r6
 339 00c8 FFF7FEFF 		bl	HAL_NVIC_EnableIRQ
 340              	.LVL10:
 390:Core/Src/main.c **** 
 341              		.loc 1 390 1 is_stmt 0 view .LVU92
 342 00cc 08B0     		add	sp, sp, #32
 343              	.LCFI2:
 344              		.cfi_def_cfa_offset 24
 345              		@ sp needed
 346 00ce BDE8F081 		pop	{r4, r5, r6, r7, r8, pc}
 347              	.L15:
 348 00d2 00BF     		.align	2
 349              	.L14:
 350 00d4 00380240 		.word	1073887232
 351 00d8 00000240 		.word	1073872896
 352 00dc 00040240 		.word	1073873920
 353              		.cfi_endproc
 354              	.LFE143:
 356              		.section	.text.MX_DMA_Init,"ax",%progbits
 357              		.align	1
 358              		.syntax unified
 359              		.thumb
 360              		.thumb_func
 362              	MX_DMA_Init:
 363              	.LFB142:
 321:Core/Src/main.c **** 
 364              		.loc 1 321 1 is_stmt 1 view -0
 365              		.cfi_startproc
 366              		@ args = 0, pretend = 0, frame = 8
 367              		@ frame_needed = 0, uses_anonymous_args = 0
 368 0000 10B5     		push	{r4, lr}
 369              	.LCFI3:
 370              		.cfi_def_cfa_offset 8
 371              		.cfi_offset 4, -8
 372              		.cfi_offset 14, -4
 373 0002 82B0     		sub	sp, sp, #8
 374              	.LCFI4:
 375              		.cfi_def_cfa_offset 16
 324:Core/Src/main.c ****   __HAL_RCC_DMA2_CLK_ENABLE();
 376              		.loc 1 324 3 view .LVU94
 377              	.LBB7:
 324:Core/Src/main.c ****   __HAL_RCC_DMA2_CLK_ENABLE();
 378              		.loc 1 324 3 view .LVU95
 379 0004 0024     		movs	r4, #0
 380 0006 0094     		str	r4, [sp]
 324:Core/Src/main.c ****   __HAL_RCC_DMA2_CLK_ENABLE();
 381              		.loc 1 324 3 view .LVU96
 382 0008 164B     		ldr	r3, .L18
ARM GAS  C:\Users\jdcox\AppData\Local\Temp\ccQ7sHkq.s 			page 19


 383 000a 1A6B     		ldr	r2, [r3, #48]
 384 000c 42F40012 		orr	r2, r2, #2097152
 385 0010 1A63     		str	r2, [r3, #48]
 324:Core/Src/main.c ****   __HAL_RCC_DMA2_CLK_ENABLE();
 386              		.loc 1 324 3 view .LVU97
 387 0012 1A6B     		ldr	r2, [r3, #48]
 388 0014 02F40012 		and	r2, r2, #2097152
 389 0018 0092     		str	r2, [sp]
 324:Core/Src/main.c ****   __HAL_RCC_DMA2_CLK_ENABLE();
 390              		.loc 1 324 3 view .LVU98
 391 001a 009A     		ldr	r2, [sp]
 392              	.LBE7:
 324:Core/Src/main.c ****   __HAL_RCC_DMA2_CLK_ENABLE();
 393              		.loc 1 324 3 view .LVU99
 325:Core/Src/main.c **** 
 394              		.loc 1 325 3 view .LVU100
 395              	.LBB8:
 325:Core/Src/main.c **** 
 396              		.loc 1 325 3 view .LVU101
 397 001c 0194     		str	r4, [sp, #4]
 325:Core/Src/main.c **** 
 398              		.loc 1 325 3 view .LVU102
 399 001e 1A6B     		ldr	r2, [r3, #48]
 400 0020 42F48002 		orr	r2, r2, #4194304
 401 0024 1A63     		str	r2, [r3, #48]
 325:Core/Src/main.c **** 
 402              		.loc 1 325 3 view .LVU103
 403 0026 1B6B     		ldr	r3, [r3, #48]
 404 0028 03F48003 		and	r3, r3, #4194304
 405 002c 0193     		str	r3, [sp, #4]
 325:Core/Src/main.c **** 
 406              		.loc 1 325 3 view .LVU104
 407 002e 019B     		ldr	r3, [sp, #4]
 408              	.LBE8:
 325:Core/Src/main.c **** 
 409              		.loc 1 325 3 view .LVU105
 329:Core/Src/main.c ****   HAL_NVIC_EnableIRQ(DMA1_Stream6_IRQn);
 410              		.loc 1 329 3 view .LVU106
 411 0030 2246     		mov	r2, r4
 412 0032 0521     		movs	r1, #5
 413 0034 1120     		movs	r0, #17
 414 0036 FFF7FEFF 		bl	HAL_NVIC_SetPriority
 415              	.LVL11:
 330:Core/Src/main.c ****   /* DMA2_Stream0_IRQn interrupt configuration */
 416              		.loc 1 330 3 view .LVU107
 417 003a 1120     		movs	r0, #17
 418 003c FFF7FEFF 		bl	HAL_NVIC_EnableIRQ
 419              	.LVL12:
 332:Core/Src/main.c ****   HAL_NVIC_EnableIRQ(DMA2_Stream0_IRQn);
 420              		.loc 1 332 3 view .LVU108
 421 0040 2246     		mov	r2, r4
 422 0042 0521     		movs	r1, #5
 423 0044 3820     		movs	r0, #56
 424 0046 FFF7FEFF 		bl	HAL_NVIC_SetPriority
 425              	.LVL13:
 333:Core/Src/main.c ****   /* DMA2_Stream3_IRQn interrupt configuration */
 426              		.loc 1 333 3 view .LVU109
ARM GAS  C:\Users\jdcox\AppData\Local\Temp\ccQ7sHkq.s 			page 20


 427 004a 3820     		movs	r0, #56
 428 004c FFF7FEFF 		bl	HAL_NVIC_EnableIRQ
 429              	.LVL14:
 335:Core/Src/main.c ****   HAL_NVIC_EnableIRQ(DMA2_Stream3_IRQn);
 430              		.loc 1 335 3 view .LVU110
 431 0050 2246     		mov	r2, r4
 432 0052 0521     		movs	r1, #5
 433 0054 3B20     		movs	r0, #59
 434 0056 FFF7FEFF 		bl	HAL_NVIC_SetPriority
 435              	.LVL15:
 336:Core/Src/main.c **** 
 436              		.loc 1 336 3 view .LVU111
 437 005a 3B20     		movs	r0, #59
 438 005c FFF7FEFF 		bl	HAL_NVIC_EnableIRQ
 439              	.LVL16:
 338:Core/Src/main.c **** 
 440              		.loc 1 338 1 is_stmt 0 view .LVU112
 441 0060 02B0     		add	sp, sp, #8
 442              	.LCFI5:
 443              		.cfi_def_cfa_offset 8
 444              		@ sp needed
 445 0062 10BD     		pop	{r4, pc}
 446              	.L19:
 447              		.align	2
 448              	.L18:
 449 0064 00380240 		.word	1073887232
 450              		.cfi_endproc
 451              	.LFE142:
 453              		.section	.text.StartDisplayTask,"ax",%progbits
 454              		.align	1
 455              		.global	StartDisplayTask
 456              		.syntax unified
 457              		.thumb
 458              		.thumb_func
 460              	StartDisplayTask:
 461              	.LFB146:
 518:Core/Src/main.c ****   /* USER CODE BEGIN StartDisplayTask */
 462              		.loc 1 518 1 is_stmt 1 view -0
 463              		.cfi_startproc
 464              		@ Volatile: function does not return.
 465              		@ args = 0, pretend = 0, frame = 0
 466              		@ frame_needed = 0, uses_anonymous_args = 0
 467              	.LVL17:
 518:Core/Src/main.c ****   /* USER CODE BEGIN StartDisplayTask */
 468              		.loc 1 518 1 is_stmt 0 view .LVU114
 469 0000 08B5     		push	{r3, lr}
 470              	.LCFI6:
 471              		.cfi_def_cfa_offset 8
 472              		.cfi_offset 3, -8
 473              		.cfi_offset 14, -4
 474              	.LVL18:
 475              	.L21:
 521:Core/Src/main.c ****   {
 476              		.loc 1 521 3 is_stmt 1 discriminator 1 view .LVU115
 524:Core/Src/main.c ****   }
 477              		.loc 1 524 5 discriminator 1 view .LVU116
 478 0002 6420     		movs	r0, #100
ARM GAS  C:\Users\jdcox\AppData\Local\Temp\ccQ7sHkq.s 			page 21


 479 0004 FFF7FEFF 		bl	osDelay
 480              	.LVL19:
 521:Core/Src/main.c ****   {
 481              		.loc 1 521 3 discriminator 1 view .LVU117
 482 0008 FBE7     		b	.L21
 483              		.cfi_endproc
 484              	.LFE146:
 486              		.section	.rodata.StartDefaultTask.str1.4,"aMS",%progbits,1
 487              		.align	2
 488              	.LC4:
 489 0000 4A6F7368 		.ascii	"Josh wins\000"
 489      2077696E 
 489      7300
 490 000a 0000     		.align	2
 491              	.LC5:
 492 000c 4B494E47 		.ascii	"KING\000"
 492      00
 493 0011 000000   		.align	2
 494              	.LC6:
 495 0014 4F4600   		.ascii	"OF\000"
 496 0017 00       		.align	2
 497              	.LC7:
 498 0018 54484500 		.ascii	"THE\000"
 499              		.align	2
 500              	.LC8:
 501 001c 48494C4C 		.ascii	"HILL\000"
 501      00
 502              		.section	.text.StartDefaultTask,"ax",%progbits
 503              		.align	1
 504              		.global	StartDefaultTask
 505              		.syntax unified
 506              		.thumb
 507              		.thumb_func
 509              	StartDefaultTask:
 510              	.LVL20:
 511              	.LFB144:
 404:Core/Src/main.c ****   /* USER CODE BEGIN 5 */
 512              		.loc 1 404 1 view -0
 513              		.cfi_startproc
 514              		@ args = 0, pretend = 0, frame = 48
 515              		@ frame_needed = 0, uses_anonymous_args = 0
 404:Core/Src/main.c ****   /* USER CODE BEGIN 5 */
 516              		.loc 1 404 1 is_stmt 0 view .LVU119
 517 0000 10B5     		push	{r4, lr}
 518              	.LCFI7:
 519              		.cfi_def_cfa_offset 8
 520              		.cfi_offset 4, -8
 521              		.cfi_offset 14, -4
 522 0002 8CB0     		sub	sp, sp, #48
 523              	.LCFI8:
 524              		.cfi_def_cfa_offset 56
 410:Core/Src/main.c **** 
 525              		.loc 1 410 3 is_stmt 1 view .LVU120
 410:Core/Src/main.c **** 
 526              		.loc 1 410 12 is_stmt 0 view .LVU121
 527 0004 4C4C     		ldr	r4, .L29
 528 0006 6846     		mov	r0, sp
ARM GAS  C:\Users\jdcox\AppData\Local\Temp\ccQ7sHkq.s 			page 22


 529              	.LVL21:
 410:Core/Src/main.c **** 
 530              		.loc 1 410 12 view .LVU122
 531 0008 FFF7FEFF 		bl	newLoRa
 532              	.LVL22:
 533 000c A646     		mov	lr, r4
 534 000e EC46     		mov	ip, sp
 535 0010 BCE80F00 		ldmia	ip!, {r0, r1, r2, r3}
 536 0014 AEE80F00 		stmia	lr!, {r0, r1, r2, r3}
 537 0018 BCE80F00 		ldmia	ip!, {r0, r1, r2, r3}
 538 001c AEE80F00 		stmia	lr!, {r0, r1, r2, r3}
 539 0020 9CE80700 		ldm	ip, {r0, r1, r2}
 540 0024 8EE80700 		stm	lr, {r0, r1, r2}
 413:Core/Src/main.c ****     myLoRa.CS_pin          = LORA_CS_Pin;
 541              		.loc 1 413 5 is_stmt 1 view .LVU123
 413:Core/Src/main.c ****     myLoRa.CS_pin          = LORA_CS_Pin;
 542              		.loc 1 413 28 is_stmt 0 view .LVU124
 543 0028 444B     		ldr	r3, .L29+4
 544 002a 2360     		str	r3, [r4]
 414:Core/Src/main.c ****     myLoRa.reset_port      = LORA_RST_GPIO_Port;
 545              		.loc 1 414 5 is_stmt 1 view .LVU125
 414:Core/Src/main.c ****     myLoRa.reset_port      = LORA_RST_GPIO_Port;
 546              		.loc 1 414 28 is_stmt 0 view .LVU126
 547 002c 4FF48062 		mov	r2, #1024
 548 0030 A280     		strh	r2, [r4, #4]	@ movhi
 415:Core/Src/main.c ****     myLoRa.reset_pin       = LORA_RST_Pin;
 549              		.loc 1 415 5 is_stmt 1 view .LVU127
 415:Core/Src/main.c ****     myLoRa.reset_pin       = LORA_RST_Pin;
 550              		.loc 1 415 28 is_stmt 0 view .LVU128
 551 0032 A360     		str	r3, [r4, #8]
 416:Core/Src/main.c ****     myLoRa.DIO0_port       = LORA_EXTI_GPIO_Port;
 552              		.loc 1 416 5 is_stmt 1 view .LVU129
 416:Core/Src/main.c ****     myLoRa.DIO0_port       = LORA_EXTI_GPIO_Port;
 553              		.loc 1 416 28 is_stmt 0 view .LVU130
 554 0034 4FF40072 		mov	r2, #512
 555 0038 A281     		strh	r2, [r4, #12]	@ movhi
 417:Core/Src/main.c ****     myLoRa.DIO0_pin        = LORA_EXTI_Pin;
 556              		.loc 1 417 5 is_stmt 1 view .LVU131
 417:Core/Src/main.c ****     myLoRa.DIO0_pin        = LORA_EXTI_Pin;
 557              		.loc 1 417 28 is_stmt 0 view .LVU132
 558 003a 2361     		str	r3, [r4, #16]
 418:Core/Src/main.c ****     myLoRa.hSPIx           = &hspi1;
 559              		.loc 1 418 5 is_stmt 1 view .LVU133
 418:Core/Src/main.c ****     myLoRa.hSPIx           = &hspi1;
 560              		.loc 1 418 28 is_stmt 0 view .LVU134
 561 003c 4FF48073 		mov	r3, #256
 562 0040 A382     		strh	r3, [r4, #20]	@ movhi
 419:Core/Src/main.c **** 
 563              		.loc 1 419 5 is_stmt 1 view .LVU135
 419:Core/Src/main.c **** 
 564              		.loc 1 419 28 is_stmt 0 view .LVU136
 565 0042 3F4B     		ldr	r3, .L29+8
 566 0044 A361     		str	r3, [r4, #24]
 422:Core/Src/main.c ****   sprintf(opcodeString,"Josh wins", 10);
 567              		.loc 1 422 3 is_stmt 1 view .LVU137
 422:Core/Src/main.c ****   sprintf(opcodeString,"Josh wins", 10);
 568              		.loc 1 422 26 is_stmt 0 view .LVU138
ARM GAS  C:\Users\jdcox\AppData\Local\Temp\ccQ7sHkq.s 			page 23


 569 0046 2046     		mov	r0, r4
 570 0048 FFF7FEFF 		bl	LoRa_init
 571              	.LVL23:
 572 004c 0446     		mov	r4, r0
 573              	.LVL24:
 423:Core/Src/main.c ****   if(LoRa_Status == LORA_OK)
 574              		.loc 1 423 3 is_stmt 1 view .LVU139
 575 004e 0A22     		movs	r2, #10
 576 0050 3C49     		ldr	r1, .L29+12
 577 0052 3D48     		ldr	r0, .L29+16
 578 0054 FFF7FEFF 		bl	sprintf
 579              	.LVL25:
 424:Core/Src/main.c ****   {
 580              		.loc 1 424 3 view .LVU140
 424:Core/Src/main.c ****   {
 581              		.loc 1 424 5 is_stmt 0 view .LVU141
 582 0058 C82C     		cmp	r4, #200
 583 005a 65D0     		beq	.L28
 430:Core/Src/main.c ****   }
 584              		.loc 1 430 5 is_stmt 1 view .LVU142
 430:Core/Src/main.c ****   }
 585              		.loc 1 430 16 is_stmt 0 view .LVU143
 586 005c 3B4B     		ldr	r3, .L29+20
 587 005e 0922     		movs	r2, #9
 588 0060 1A80     		strh	r2, [r3]	@ movhi
 589              	.L25:
 433:Core/Src/main.c ****   
 590              		.loc 1 433 3 is_stmt 1 view .LVU144
 591 0062 3548     		ldr	r0, .L29
 592 0064 FFF7FEFF 		bl	LoRa_startReceiving
 593              	.LVL26:
 438:Core/Src/main.c ****   //loraRXTaskHandle = osThreadCreate(osThread(loraRXTask), NULL);
 594              		.loc 1 438 3 view .LVU145
 441:Core/Src/main.c ****   ssd1306_Init();
 595              		.loc 1 441 3 view .LVU146
 596 0068 0122     		movs	r2, #1
 597 006a 0221     		movs	r1, #2
 598 006c 3848     		ldr	r0, .L29+24
 599 006e FFF7FEFF 		bl	HAL_GPIO_WritePin
 600              	.LVL27:
 442:Core/Src/main.c ****   ssd1306_SetCursor(0,0);
 601              		.loc 1 442 3 view .LVU147
 602 0072 FFF7FEFF 		bl	ssd1306_Init
 603              	.LVL28:
 443:Core/Src/main.c ****   ssd1306_WriteString("KING",Font_16x24,1);
 604              		.loc 1 443 3 view .LVU148
 605 0076 0021     		movs	r1, #0
 606 0078 0846     		mov	r0, r1
 607 007a FFF7FEFF 		bl	ssd1306_SetCursor
 608              	.LVL29:
 444:Core/Src/main.c ****   ssd1306_UpdateScreen();
 609              		.loc 1 444 3 view .LVU149
 610 007e 354C     		ldr	r4, .L29+28
 611              	.LVL30:
 444:Core/Src/main.c ****   ssd1306_UpdateScreen();
 612              		.loc 1 444 3 is_stmt 0 view .LVU150
 613 0080 0123     		movs	r3, #1
ARM GAS  C:\Users\jdcox\AppData\Local\Temp\ccQ7sHkq.s 			page 24


 614 0082 94E80600 		ldm	r4, {r1, r2}
 615 0086 3448     		ldr	r0, .L29+32
 616 0088 FFF7FEFF 		bl	ssd1306_WriteString
 617              	.LVL31:
 445:Core/Src/main.c ****   osDelay(500);
 618              		.loc 1 445 3 is_stmt 1 view .LVU151
 619 008c FFF7FEFF 		bl	ssd1306_UpdateScreen
 620              	.LVL32:
 446:Core/Src/main.c ****   ssd1306_Fill(0);
 621              		.loc 1 446 3 view .LVU152
 622 0090 4FF4FA70 		mov	r0, #500
 623 0094 FFF7FEFF 		bl	osDelay
 624              	.LVL33:
 447:Core/Src/main.c ****   ssd1306_SetCursor(64,0);
 625              		.loc 1 447 3 view .LVU153
 626 0098 0020     		movs	r0, #0
 627 009a FFF7FEFF 		bl	ssd1306_Fill
 628              	.LVL34:
 448:Core/Src/main.c ****   ssd1306_WriteString("OF",Font_16x24,1);
 629              		.loc 1 448 3 view .LVU154
 630 009e 0021     		movs	r1, #0
 631 00a0 4020     		movs	r0, #64
 632 00a2 FFF7FEFF 		bl	ssd1306_SetCursor
 633              	.LVL35:
 449:Core/Src/main.c ****   ssd1306_UpdateScreen();
 634              		.loc 1 449 3 view .LVU155
 635 00a6 0123     		movs	r3, #1
 636 00a8 94E80600 		ldm	r4, {r1, r2}
 637 00ac 2B48     		ldr	r0, .L29+36
 638 00ae FFF7FEFF 		bl	ssd1306_WriteString
 639              	.LVL36:
 450:Core/Src/main.c ****   osDelay(500);
 640              		.loc 1 450 3 view .LVU156
 641 00b2 FFF7FEFF 		bl	ssd1306_UpdateScreen
 642              	.LVL37:
 451:Core/Src/main.c ****   ssd1306_Fill(0);
 643              		.loc 1 451 3 view .LVU157
 644 00b6 4FF4FA70 		mov	r0, #500
 645 00ba FFF7FEFF 		bl	osDelay
 646              	.LVL38:
 452:Core/Src/main.c ****   ssd1306_SetCursor(0,8);
 647              		.loc 1 452 3 view .LVU158
 648 00be 0020     		movs	r0, #0
 649 00c0 FFF7FEFF 		bl	ssd1306_Fill
 650              	.LVL39:
 453:Core/Src/main.c ****   ssd1306_WriteString("THE",Font_16x24,1);
 651              		.loc 1 453 3 view .LVU159
 652 00c4 0821     		movs	r1, #8
 653 00c6 0020     		movs	r0, #0
 654 00c8 FFF7FEFF 		bl	ssd1306_SetCursor
 655              	.LVL40:
 454:Core/Src/main.c ****   ssd1306_UpdateScreen();
 656              		.loc 1 454 3 view .LVU160
 657 00cc 0123     		movs	r3, #1
 658 00ce 94E80600 		ldm	r4, {r1, r2}
 659 00d2 2348     		ldr	r0, .L29+40
 660 00d4 FFF7FEFF 		bl	ssd1306_WriteString
ARM GAS  C:\Users\jdcox\AppData\Local\Temp\ccQ7sHkq.s 			page 25


 661              	.LVL41:
 455:Core/Src/main.c ****   osDelay(500);
 662              		.loc 1 455 3 view .LVU161
 663 00d8 FFF7FEFF 		bl	ssd1306_UpdateScreen
 664              	.LVL42:
 456:Core/Src/main.c ****   ssd1306_Fill(0);
 665              		.loc 1 456 3 view .LVU162
 666 00dc 4FF4FA70 		mov	r0, #500
 667 00e0 FFF7FEFF 		bl	osDelay
 668              	.LVL43:
 457:Core/Src/main.c ****   ssd1306_SetCursor(64,8);
 669              		.loc 1 457 3 view .LVU163
 670 00e4 0020     		movs	r0, #0
 671 00e6 FFF7FEFF 		bl	ssd1306_Fill
 672              	.LVL44:
 458:Core/Src/main.c ****   ssd1306_WriteString("HILL",Font_16x24,1);
 673              		.loc 1 458 3 view .LVU164
 674 00ea 0821     		movs	r1, #8
 675 00ec 4020     		movs	r0, #64
 676 00ee FFF7FEFF 		bl	ssd1306_SetCursor
 677              	.LVL45:
 459:Core/Src/main.c ****   ssd1306_UpdateScreen();
 678              		.loc 1 459 3 view .LVU165
 679 00f2 0123     		movs	r3, #1
 680 00f4 94E80600 		ldm	r4, {r1, r2}
 681 00f8 1A48     		ldr	r0, .L29+44
 682 00fa FFF7FEFF 		bl	ssd1306_WriteString
 683              	.LVL46:
 460:Core/Src/main.c **** 
 684              		.loc 1 460 3 view .LVU166
 685 00fe FFF7FEFF 		bl	ssd1306_UpdateScreen
 686              	.LVL47:
 464:Core/Src/main.c **** 
 687              		.loc 1 464 3 view .LVU167
 688 0102 4FF47A70 		mov	r0, #1000
 689 0106 FFF7FEFF 		bl	osDelay
 690              	.LVL48:
 466:Core/Src/main.c ****   osTimerStart(msTickHandle, pdMS_TO_TICKS(10));
 691              		.loc 1 466 3 view .LVU168
 692 010a FFF7FEFF 		bl	resetGame
 693              	.LVL49:
 467:Core/Src/main.c ****   
 694              		.loc 1 467 3 view .LVU169
 695 010e 0A21     		movs	r1, #10
 696 0110 154B     		ldr	r3, .L29+48
 697 0112 1868     		ldr	r0, [r3]
 698 0114 FFF7FEFF 		bl	osTimerStart
 699              	.LVL50:
 700              	.L26:
 471:Core/Src/main.c ****   {
 701              		.loc 1 471 3 discriminator 1 view .LVU170
 475:Core/Src/main.c **** 
 702              		.loc 1 475 5 discriminator 1 view .LVU171
 703 0118 FFF7FEFF 		bl	doGameStateSimple
 704              	.LVL51:
 477:Core/Src/main.c **** 
 705              		.loc 1 477 5 discriminator 1 view .LVU172
ARM GAS  C:\Users\jdcox\AppData\Local\Temp\ccQ7sHkq.s 			page 26


 706 011c FFF7FEFF 		bl	getKOTHPacket
 707              	.LVL52:
 480:Core/Src/main.c ****    
 708              		.loc 1 480 5 discriminator 1 view .LVU173
 709 0120 1420     		movs	r0, #20
 710 0122 FFF7FEFF 		bl	osDelay
 711              	.LVL53:
 471:Core/Src/main.c ****   {
 712              		.loc 1 471 3 discriminator 1 view .LVU174
 713 0126 F7E7     		b	.L26
 714              	.LVL54:
 715              	.L28:
 426:Core/Src/main.c ****   }
 716              		.loc 1 426 5 view .LVU175
 717 0128 6423     		movs	r3, #100
 718 012a 0C22     		movs	r2, #12
 719 012c 0649     		ldr	r1, .L29+16
 720 012e 0248     		ldr	r0, .L29
 721 0130 FFF7FEFF 		bl	LoRa_transmit
 722              	.LVL55:
 723 0134 95E7     		b	.L25
 724              	.L30:
 725 0136 00BF     		.align	2
 726              	.L29:
 727 0138 00000000 		.word	.LANCHOR0
 728 013c 00000240 		.word	1073872896
 729 0140 00000000 		.word	.LANCHOR1
 730 0144 00000000 		.word	.LC4
 731 0148 00000000 		.word	opcodeString
 732 014c 00000000 		.word	debugBuddy
 733 0150 00040240 		.word	1073873920
 734 0154 00000000 		.word	Font_16x24
 735 0158 0C000000 		.word	.LC5
 736 015c 14000000 		.word	.LC6
 737 0160 18000000 		.word	.LC7
 738 0164 1C000000 		.word	.LC8
 739 0168 00000000 		.word	.LANCHOR2
 740              		.cfi_endproc
 741              	.LFE144:
 743              		.section	.text.StartLoraRXTask,"ax",%progbits
 744              		.align	1
 745              		.global	StartLoraRXTask
 746              		.syntax unified
 747              		.thumb
 748              		.thumb_func
 750              	StartLoraRXTask:
 751              	.LFB145:
 496:Core/Src/main.c ****   /* USER CODE BEGIN StartLoraRXTask */
 752              		.loc 1 496 1 view -0
 753              		.cfi_startproc
 754              		@ Volatile: function does not return.
 755              		@ args = 0, pretend = 0, frame = 0
 756              		@ frame_needed = 0, uses_anonymous_args = 0
 757              	.LVL56:
 496:Core/Src/main.c ****   /* USER CODE BEGIN StartLoraRXTask */
 758              		.loc 1 496 1 is_stmt 0 view .LVU177
 759 0000 08B5     		push	{r3, lr}
ARM GAS  C:\Users\jdcox\AppData\Local\Temp\ccQ7sHkq.s 			page 27


 760              	.LCFI9:
 761              		.cfi_def_cfa_offset 8
 762              		.cfi_offset 3, -8
 763              		.cfi_offset 14, -4
 764              	.LVL57:
 765              	.L32:
 499:Core/Src/main.c ****   {
 766              		.loc 1 499 3 is_stmt 1 discriminator 1 view .LVU178
 502:Core/Src/main.c ****     
 767              		.loc 1 502 5 discriminator 1 view .LVU179
 768 0002 FFF7FEFF 		bl	getKOTHPacket
 769              	.LVL58:
 504:Core/Src/main.c **** 
 770              		.loc 1 504 5 discriminator 1 view .LVU180
 771 0006 6420     		movs	r0, #100
 772 0008 FFF7FEFF 		bl	osDelay
 773              	.LVL59:
 499:Core/Src/main.c ****   {
 774              		.loc 1 499 3 discriminator 1 view .LVU181
 775 000c F9E7     		b	.L32
 776              		.cfi_endproc
 777              	.LFE145:
 779              		.section	.text.HAL_TIM_PeriodElapsedCallback,"ax",%progbits
 780              		.align	1
 781              		.global	HAL_TIM_PeriodElapsedCallback
 782              		.syntax unified
 783              		.thumb
 784              		.thumb_func
 786              	HAL_TIM_PeriodElapsedCallback:
 787              	.LVL60:
 788              	.LFB150:
 572:Core/Src/main.c **** 
 573:Core/Src/main.c **** /**
 574:Core/Src/main.c ****   * @brief  Period elapsed callback in non blocking mode
 575:Core/Src/main.c ****   * @note   This function is called  when TIM1 interrupt took place, inside
 576:Core/Src/main.c ****   * HAL_TIM_IRQHandler(). It makes a direct call to HAL_IncTick() to increment
 577:Core/Src/main.c ****   * a global variable "uwTick" used as application time base.
 578:Core/Src/main.c ****   * @param  htim : TIM handle
 579:Core/Src/main.c ****   * @retval None
 580:Core/Src/main.c ****   */
 581:Core/Src/main.c **** void HAL_TIM_PeriodElapsedCallback(TIM_HandleTypeDef *htim)
 582:Core/Src/main.c **** {
 789              		.loc 1 582 1 view -0
 790              		.cfi_startproc
 791              		@ args = 0, pretend = 0, frame = 0
 792              		@ frame_needed = 0, uses_anonymous_args = 0
 793              		.loc 1 582 1 is_stmt 0 view .LVU183
 794 0000 08B5     		push	{r3, lr}
 795              	.LCFI10:
 796              		.cfi_def_cfa_offset 8
 797              		.cfi_offset 3, -8
 798              		.cfi_offset 14, -4
 583:Core/Src/main.c ****   /* USER CODE BEGIN Callback 0 */
 584:Core/Src/main.c **** 
 585:Core/Src/main.c ****   /* USER CODE END Callback 0 */
 586:Core/Src/main.c ****   if (htim->Instance == TIM1) {
 799              		.loc 1 586 3 is_stmt 1 view .LVU184
ARM GAS  C:\Users\jdcox\AppData\Local\Temp\ccQ7sHkq.s 			page 28


 800              		.loc 1 586 11 is_stmt 0 view .LVU185
 801 0002 0268     		ldr	r2, [r0]
 802              		.loc 1 586 6 view .LVU186
 803 0004 034B     		ldr	r3, .L38
 804 0006 9A42     		cmp	r2, r3
 805 0008 00D0     		beq	.L37
 806              	.LVL61:
 807              	.L34:
 587:Core/Src/main.c ****     HAL_IncTick();
 588:Core/Src/main.c ****   }
 589:Core/Src/main.c ****   /* USER CODE BEGIN Callback 1 */
 590:Core/Src/main.c **** 
 591:Core/Src/main.c ****   /* USER CODE END Callback 1 */
 592:Core/Src/main.c **** }
 808              		.loc 1 592 1 view .LVU187
 809 000a 08BD     		pop	{r3, pc}
 810              	.LVL62:
 811              	.L37:
 587:Core/Src/main.c ****     HAL_IncTick();
 812              		.loc 1 587 5 is_stmt 1 view .LVU188
 813 000c FFF7FEFF 		bl	HAL_IncTick
 814              	.LVL63:
 815              		.loc 1 592 1 is_stmt 0 view .LVU189
 816 0010 FBE7     		b	.L34
 817              	.L39:
 818 0012 00BF     		.align	2
 819              	.L38:
 820 0014 00000140 		.word	1073807360
 821              		.cfi_endproc
 822              	.LFE150:
 824              		.section	.text.Error_Handler,"ax",%progbits
 825              		.align	1
 826              		.global	Error_Handler
 827              		.syntax unified
 828              		.thumb
 829              		.thumb_func
 831              	Error_Handler:
 832              	.LFB151:
 593:Core/Src/main.c **** 
 594:Core/Src/main.c **** /**
 595:Core/Src/main.c ****   * @brief  This function is executed in case of error occurrence.
 596:Core/Src/main.c ****   * @retval None
 597:Core/Src/main.c ****   */
 598:Core/Src/main.c **** void Error_Handler(void)
 599:Core/Src/main.c **** {
 833              		.loc 1 599 1 is_stmt 1 view -0
 834              		.cfi_startproc
 835              		@ Volatile: function does not return.
 836              		@ args = 0, pretend = 0, frame = 0
 837              		@ frame_needed = 0, uses_anonymous_args = 0
 838              		@ link register save eliminated.
 600:Core/Src/main.c ****   /* USER CODE BEGIN Error_Handler_Debug */
 601:Core/Src/main.c ****   /* User can add his own implementation to report the HAL error return state */
 602:Core/Src/main.c ****   __disable_irq();
 839              		.loc 1 602 3 view .LVU191
 840              	.LBB9:
 841              	.LBI9:
ARM GAS  C:\Users\jdcox\AppData\Local\Temp\ccQ7sHkq.s 			page 29


 842              		.file 2 "Drivers/CMSIS/Include/cmsis_gcc.h"
   1:Drivers/CMSIS/Include/cmsis_gcc.h **** /**************************************************************************//**
   2:Drivers/CMSIS/Include/cmsis_gcc.h ****  * @file     cmsis_gcc.h
   3:Drivers/CMSIS/Include/cmsis_gcc.h ****  * @brief    CMSIS compiler GCC header file
   4:Drivers/CMSIS/Include/cmsis_gcc.h ****  * @version  V5.0.4
   5:Drivers/CMSIS/Include/cmsis_gcc.h ****  * @date     09. April 2018
   6:Drivers/CMSIS/Include/cmsis_gcc.h ****  ******************************************************************************/
   7:Drivers/CMSIS/Include/cmsis_gcc.h **** /*
   8:Drivers/CMSIS/Include/cmsis_gcc.h ****  * Copyright (c) 2009-2018 Arm Limited. All rights reserved.
   9:Drivers/CMSIS/Include/cmsis_gcc.h ****  *
  10:Drivers/CMSIS/Include/cmsis_gcc.h ****  * SPDX-License-Identifier: Apache-2.0
  11:Drivers/CMSIS/Include/cmsis_gcc.h ****  *
  12:Drivers/CMSIS/Include/cmsis_gcc.h ****  * Licensed under the Apache License, Version 2.0 (the License); you may
  13:Drivers/CMSIS/Include/cmsis_gcc.h ****  * not use this file except in compliance with the License.
  14:Drivers/CMSIS/Include/cmsis_gcc.h ****  * You may obtain a copy of the License at
  15:Drivers/CMSIS/Include/cmsis_gcc.h ****  *
  16:Drivers/CMSIS/Include/cmsis_gcc.h ****  * www.apache.org/licenses/LICENSE-2.0
  17:Drivers/CMSIS/Include/cmsis_gcc.h ****  *
  18:Drivers/CMSIS/Include/cmsis_gcc.h ****  * Unless required by applicable law or agreed to in writing, software
  19:Drivers/CMSIS/Include/cmsis_gcc.h ****  * distributed under the License is distributed on an AS IS BASIS, WITHOUT
  20:Drivers/CMSIS/Include/cmsis_gcc.h ****  * WARRANTIES OR CONDITIONS OF ANY KIND, either express or implied.
  21:Drivers/CMSIS/Include/cmsis_gcc.h ****  * See the License for the specific language governing permissions and
  22:Drivers/CMSIS/Include/cmsis_gcc.h ****  * limitations under the License.
  23:Drivers/CMSIS/Include/cmsis_gcc.h ****  */
  24:Drivers/CMSIS/Include/cmsis_gcc.h **** 
  25:Drivers/CMSIS/Include/cmsis_gcc.h **** #ifndef __CMSIS_GCC_H
  26:Drivers/CMSIS/Include/cmsis_gcc.h **** #define __CMSIS_GCC_H
  27:Drivers/CMSIS/Include/cmsis_gcc.h **** 
  28:Drivers/CMSIS/Include/cmsis_gcc.h **** /* ignore some GCC warnings */
  29:Drivers/CMSIS/Include/cmsis_gcc.h **** #pragma GCC diagnostic push
  30:Drivers/CMSIS/Include/cmsis_gcc.h **** #pragma GCC diagnostic ignored "-Wsign-conversion"
  31:Drivers/CMSIS/Include/cmsis_gcc.h **** #pragma GCC diagnostic ignored "-Wconversion"
  32:Drivers/CMSIS/Include/cmsis_gcc.h **** #pragma GCC diagnostic ignored "-Wunused-parameter"
  33:Drivers/CMSIS/Include/cmsis_gcc.h **** 
  34:Drivers/CMSIS/Include/cmsis_gcc.h **** /* Fallback for __has_builtin */
  35:Drivers/CMSIS/Include/cmsis_gcc.h **** #ifndef __has_builtin
  36:Drivers/CMSIS/Include/cmsis_gcc.h ****   #define __has_builtin(x) (0)
  37:Drivers/CMSIS/Include/cmsis_gcc.h **** #endif
  38:Drivers/CMSIS/Include/cmsis_gcc.h **** 
  39:Drivers/CMSIS/Include/cmsis_gcc.h **** /* CMSIS compiler specific defines */
  40:Drivers/CMSIS/Include/cmsis_gcc.h **** #ifndef   __ASM
  41:Drivers/CMSIS/Include/cmsis_gcc.h ****   #define __ASM                                  __asm
  42:Drivers/CMSIS/Include/cmsis_gcc.h **** #endif
  43:Drivers/CMSIS/Include/cmsis_gcc.h **** #ifndef   __INLINE
  44:Drivers/CMSIS/Include/cmsis_gcc.h ****   #define __INLINE                               inline
  45:Drivers/CMSIS/Include/cmsis_gcc.h **** #endif
  46:Drivers/CMSIS/Include/cmsis_gcc.h **** #ifndef   __STATIC_INLINE
  47:Drivers/CMSIS/Include/cmsis_gcc.h ****   #define __STATIC_INLINE                        static inline
  48:Drivers/CMSIS/Include/cmsis_gcc.h **** #endif
  49:Drivers/CMSIS/Include/cmsis_gcc.h **** #ifndef   __STATIC_FORCEINLINE                 
  50:Drivers/CMSIS/Include/cmsis_gcc.h ****   #define __STATIC_FORCEINLINE                   __attribute__((always_inline)) static inline
  51:Drivers/CMSIS/Include/cmsis_gcc.h **** #endif                                           
  52:Drivers/CMSIS/Include/cmsis_gcc.h **** #ifndef   __NO_RETURN
  53:Drivers/CMSIS/Include/cmsis_gcc.h ****   #define __NO_RETURN                            __attribute__((__noreturn__))
  54:Drivers/CMSIS/Include/cmsis_gcc.h **** #endif
  55:Drivers/CMSIS/Include/cmsis_gcc.h **** #ifndef   __USED
  56:Drivers/CMSIS/Include/cmsis_gcc.h ****   #define __USED                                 __attribute__((used))
ARM GAS  C:\Users\jdcox\AppData\Local\Temp\ccQ7sHkq.s 			page 30


  57:Drivers/CMSIS/Include/cmsis_gcc.h **** #endif
  58:Drivers/CMSIS/Include/cmsis_gcc.h **** #ifndef   __WEAK
  59:Drivers/CMSIS/Include/cmsis_gcc.h ****   #define __WEAK                                 __attribute__((weak))
  60:Drivers/CMSIS/Include/cmsis_gcc.h **** #endif
  61:Drivers/CMSIS/Include/cmsis_gcc.h **** #ifndef   __PACKED
  62:Drivers/CMSIS/Include/cmsis_gcc.h ****   #define __PACKED                               __attribute__((packed, aligned(1)))
  63:Drivers/CMSIS/Include/cmsis_gcc.h **** #endif
  64:Drivers/CMSIS/Include/cmsis_gcc.h **** #ifndef   __PACKED_STRUCT
  65:Drivers/CMSIS/Include/cmsis_gcc.h ****   #define __PACKED_STRUCT                        struct __attribute__((packed, aligned(1)))
  66:Drivers/CMSIS/Include/cmsis_gcc.h **** #endif
  67:Drivers/CMSIS/Include/cmsis_gcc.h **** #ifndef   __PACKED_UNION
  68:Drivers/CMSIS/Include/cmsis_gcc.h ****   #define __PACKED_UNION                         union __attribute__((packed, aligned(1)))
  69:Drivers/CMSIS/Include/cmsis_gcc.h **** #endif
  70:Drivers/CMSIS/Include/cmsis_gcc.h **** #ifndef   __UNALIGNED_UINT32        /* deprecated */
  71:Drivers/CMSIS/Include/cmsis_gcc.h ****   #pragma GCC diagnostic push
  72:Drivers/CMSIS/Include/cmsis_gcc.h ****   #pragma GCC diagnostic ignored "-Wpacked"
  73:Drivers/CMSIS/Include/cmsis_gcc.h ****   #pragma GCC diagnostic ignored "-Wattributes"
  74:Drivers/CMSIS/Include/cmsis_gcc.h ****   struct __attribute__((packed)) T_UINT32 { uint32_t v; };
  75:Drivers/CMSIS/Include/cmsis_gcc.h ****   #pragma GCC diagnostic pop
  76:Drivers/CMSIS/Include/cmsis_gcc.h ****   #define __UNALIGNED_UINT32(x)                  (((struct T_UINT32 *)(x))->v)
  77:Drivers/CMSIS/Include/cmsis_gcc.h **** #endif
  78:Drivers/CMSIS/Include/cmsis_gcc.h **** #ifndef   __UNALIGNED_UINT16_WRITE
  79:Drivers/CMSIS/Include/cmsis_gcc.h ****   #pragma GCC diagnostic push
  80:Drivers/CMSIS/Include/cmsis_gcc.h ****   #pragma GCC diagnostic ignored "-Wpacked"
  81:Drivers/CMSIS/Include/cmsis_gcc.h ****   #pragma GCC diagnostic ignored "-Wattributes"
  82:Drivers/CMSIS/Include/cmsis_gcc.h ****   __PACKED_STRUCT T_UINT16_WRITE { uint16_t v; };
  83:Drivers/CMSIS/Include/cmsis_gcc.h ****   #pragma GCC diagnostic pop
  84:Drivers/CMSIS/Include/cmsis_gcc.h ****   #define __UNALIGNED_UINT16_WRITE(addr, val)    (void)((((struct T_UINT16_WRITE *)(void *)(addr))-
  85:Drivers/CMSIS/Include/cmsis_gcc.h **** #endif
  86:Drivers/CMSIS/Include/cmsis_gcc.h **** #ifndef   __UNALIGNED_UINT16_READ
  87:Drivers/CMSIS/Include/cmsis_gcc.h ****   #pragma GCC diagnostic push
  88:Drivers/CMSIS/Include/cmsis_gcc.h ****   #pragma GCC diagnostic ignored "-Wpacked"
  89:Drivers/CMSIS/Include/cmsis_gcc.h ****   #pragma GCC diagnostic ignored "-Wattributes"
  90:Drivers/CMSIS/Include/cmsis_gcc.h ****   __PACKED_STRUCT T_UINT16_READ { uint16_t v; };
  91:Drivers/CMSIS/Include/cmsis_gcc.h ****   #pragma GCC diagnostic pop
  92:Drivers/CMSIS/Include/cmsis_gcc.h ****   #define __UNALIGNED_UINT16_READ(addr)          (((const struct T_UINT16_READ *)(const void *)(add
  93:Drivers/CMSIS/Include/cmsis_gcc.h **** #endif
  94:Drivers/CMSIS/Include/cmsis_gcc.h **** #ifndef   __UNALIGNED_UINT32_WRITE
  95:Drivers/CMSIS/Include/cmsis_gcc.h ****   #pragma GCC diagnostic push
  96:Drivers/CMSIS/Include/cmsis_gcc.h ****   #pragma GCC diagnostic ignored "-Wpacked"
  97:Drivers/CMSIS/Include/cmsis_gcc.h ****   #pragma GCC diagnostic ignored "-Wattributes"
  98:Drivers/CMSIS/Include/cmsis_gcc.h ****   __PACKED_STRUCT T_UINT32_WRITE { uint32_t v; };
  99:Drivers/CMSIS/Include/cmsis_gcc.h ****   #pragma GCC diagnostic pop
 100:Drivers/CMSIS/Include/cmsis_gcc.h ****   #define __UNALIGNED_UINT32_WRITE(addr, val)    (void)((((struct T_UINT32_WRITE *)(void *)(addr))-
 101:Drivers/CMSIS/Include/cmsis_gcc.h **** #endif
 102:Drivers/CMSIS/Include/cmsis_gcc.h **** #ifndef   __UNALIGNED_UINT32_READ
 103:Drivers/CMSIS/Include/cmsis_gcc.h ****   #pragma GCC diagnostic push
 104:Drivers/CMSIS/Include/cmsis_gcc.h ****   #pragma GCC diagnostic ignored "-Wpacked"
 105:Drivers/CMSIS/Include/cmsis_gcc.h ****   #pragma GCC diagnostic ignored "-Wattributes"
 106:Drivers/CMSIS/Include/cmsis_gcc.h ****   __PACKED_STRUCT T_UINT32_READ { uint32_t v; };
 107:Drivers/CMSIS/Include/cmsis_gcc.h ****   #pragma GCC diagnostic pop
 108:Drivers/CMSIS/Include/cmsis_gcc.h ****   #define __UNALIGNED_UINT32_READ(addr)          (((const struct T_UINT32_READ *)(const void *)(add
 109:Drivers/CMSIS/Include/cmsis_gcc.h **** #endif
 110:Drivers/CMSIS/Include/cmsis_gcc.h **** #ifndef   __ALIGNED
 111:Drivers/CMSIS/Include/cmsis_gcc.h ****   #define __ALIGNED(x)                           __attribute__((aligned(x)))
 112:Drivers/CMSIS/Include/cmsis_gcc.h **** #endif
 113:Drivers/CMSIS/Include/cmsis_gcc.h **** #ifndef   __RESTRICT
ARM GAS  C:\Users\jdcox\AppData\Local\Temp\ccQ7sHkq.s 			page 31


 114:Drivers/CMSIS/Include/cmsis_gcc.h ****   #define __RESTRICT                             __restrict
 115:Drivers/CMSIS/Include/cmsis_gcc.h **** #endif
 116:Drivers/CMSIS/Include/cmsis_gcc.h **** 
 117:Drivers/CMSIS/Include/cmsis_gcc.h **** 
 118:Drivers/CMSIS/Include/cmsis_gcc.h **** /* ###########################  Core Function Access  ########################### */
 119:Drivers/CMSIS/Include/cmsis_gcc.h **** /** \ingroup  CMSIS_Core_FunctionInterface
 120:Drivers/CMSIS/Include/cmsis_gcc.h ****     \defgroup CMSIS_Core_RegAccFunctions CMSIS Core Register Access Functions
 121:Drivers/CMSIS/Include/cmsis_gcc.h ****   @{
 122:Drivers/CMSIS/Include/cmsis_gcc.h ****  */
 123:Drivers/CMSIS/Include/cmsis_gcc.h **** 
 124:Drivers/CMSIS/Include/cmsis_gcc.h **** /**
 125:Drivers/CMSIS/Include/cmsis_gcc.h ****   \brief   Enable IRQ Interrupts
 126:Drivers/CMSIS/Include/cmsis_gcc.h ****   \details Enables IRQ interrupts by clearing the I-bit in the CPSR.
 127:Drivers/CMSIS/Include/cmsis_gcc.h ****            Can only be executed in Privileged modes.
 128:Drivers/CMSIS/Include/cmsis_gcc.h ****  */
 129:Drivers/CMSIS/Include/cmsis_gcc.h **** __STATIC_FORCEINLINE void __enable_irq(void)
 130:Drivers/CMSIS/Include/cmsis_gcc.h **** {
 131:Drivers/CMSIS/Include/cmsis_gcc.h ****   __ASM volatile ("cpsie i" : : : "memory");
 132:Drivers/CMSIS/Include/cmsis_gcc.h **** }
 133:Drivers/CMSIS/Include/cmsis_gcc.h **** 
 134:Drivers/CMSIS/Include/cmsis_gcc.h **** 
 135:Drivers/CMSIS/Include/cmsis_gcc.h **** /**
 136:Drivers/CMSIS/Include/cmsis_gcc.h ****   \brief   Disable IRQ Interrupts
 137:Drivers/CMSIS/Include/cmsis_gcc.h ****   \details Disables IRQ interrupts by setting the I-bit in the CPSR.
 138:Drivers/CMSIS/Include/cmsis_gcc.h ****            Can only be executed in Privileged modes.
 139:Drivers/CMSIS/Include/cmsis_gcc.h ****  */
 140:Drivers/CMSIS/Include/cmsis_gcc.h **** __STATIC_FORCEINLINE void __disable_irq(void)
 843              		.loc 2 140 27 view .LVU192
 844              	.LBB10:
 141:Drivers/CMSIS/Include/cmsis_gcc.h **** {
 142:Drivers/CMSIS/Include/cmsis_gcc.h ****   __ASM volatile ("cpsid i" : : : "memory");
 845              		.loc 2 142 3 view .LVU193
 846              		.syntax unified
 847              	@ 142 "Drivers/CMSIS/Include/cmsis_gcc.h" 1
 848 0000 72B6     		cpsid i
 849              	@ 0 "" 2
 850              		.thumb
 851              		.syntax unified
 852              	.L41:
 853              	.LBE10:
 854              	.LBE9:
 603:Core/Src/main.c ****   while (1)
 855              		.loc 1 603 3 discriminator 1 view .LVU194
 604:Core/Src/main.c ****   {
 605:Core/Src/main.c ****   }
 856              		.loc 1 605 3 discriminator 1 view .LVU195
 603:Core/Src/main.c ****   while (1)
 857              		.loc 1 603 9 discriminator 1 view .LVU196
 858 0002 FEE7     		b	.L41
 859              		.cfi_endproc
 860              	.LFE151:
 862              		.section	.text.MX_SPI1_Init,"ax",%progbits
 863              		.align	1
 864              		.syntax unified
 865              		.thumb
 866              		.thumb_func
 868              	MX_SPI1_Init:
ARM GAS  C:\Users\jdcox\AppData\Local\Temp\ccQ7sHkq.s 			page 32


 869              	.LFB141:
 285:Core/Src/main.c **** 
 870              		.loc 1 285 1 view -0
 871              		.cfi_startproc
 872              		@ args = 0, pretend = 0, frame = 0
 873              		@ frame_needed = 0, uses_anonymous_args = 0
 874 0000 08B5     		push	{r3, lr}
 875              	.LCFI11:
 876              		.cfi_def_cfa_offset 8
 877              		.cfi_offset 3, -8
 878              		.cfi_offset 14, -4
 295:Core/Src/main.c ****   hspi1.Init.Mode = SPI_MODE_MASTER;
 879              		.loc 1 295 3 view .LVU198
 295:Core/Src/main.c ****   hspi1.Init.Mode = SPI_MODE_MASTER;
 880              		.loc 1 295 18 is_stmt 0 view .LVU199
 881 0002 0D48     		ldr	r0, .L46
 882 0004 0D4B     		ldr	r3, .L46+4
 883 0006 0360     		str	r3, [r0]
 296:Core/Src/main.c ****   hspi1.Init.Direction = SPI_DIRECTION_2LINES;
 884              		.loc 1 296 3 is_stmt 1 view .LVU200
 296:Core/Src/main.c ****   hspi1.Init.Direction = SPI_DIRECTION_2LINES;
 885              		.loc 1 296 19 is_stmt 0 view .LVU201
 886 0008 4FF48273 		mov	r3, #260
 887 000c 4360     		str	r3, [r0, #4]
 297:Core/Src/main.c ****   hspi1.Init.DataSize = SPI_DATASIZE_8BIT;
 888              		.loc 1 297 3 is_stmt 1 view .LVU202
 297:Core/Src/main.c ****   hspi1.Init.DataSize = SPI_DATASIZE_8BIT;
 889              		.loc 1 297 24 is_stmt 0 view .LVU203
 890 000e 0023     		movs	r3, #0
 891 0010 8360     		str	r3, [r0, #8]
 298:Core/Src/main.c ****   hspi1.Init.CLKPolarity = SPI_POLARITY_LOW;
 892              		.loc 1 298 3 is_stmt 1 view .LVU204
 298:Core/Src/main.c ****   hspi1.Init.CLKPolarity = SPI_POLARITY_LOW;
 893              		.loc 1 298 23 is_stmt 0 view .LVU205
 894 0012 C360     		str	r3, [r0, #12]
 299:Core/Src/main.c ****   hspi1.Init.CLKPhase = SPI_PHASE_1EDGE;
 895              		.loc 1 299 3 is_stmt 1 view .LVU206
 299:Core/Src/main.c ****   hspi1.Init.CLKPhase = SPI_PHASE_1EDGE;
 896              		.loc 1 299 26 is_stmt 0 view .LVU207
 897 0014 0361     		str	r3, [r0, #16]
 300:Core/Src/main.c ****   hspi1.Init.NSS = SPI_NSS_SOFT;
 898              		.loc 1 300 3 is_stmt 1 view .LVU208
 300:Core/Src/main.c ****   hspi1.Init.NSS = SPI_NSS_SOFT;
 899              		.loc 1 300 23 is_stmt 0 view .LVU209
 900 0016 4361     		str	r3, [r0, #20]
 301:Core/Src/main.c ****   hspi1.Init.BaudRatePrescaler = SPI_BAUDRATEPRESCALER_16;
 901              		.loc 1 301 3 is_stmt 1 view .LVU210
 301:Core/Src/main.c ****   hspi1.Init.BaudRatePrescaler = SPI_BAUDRATEPRESCALER_16;
 902              		.loc 1 301 18 is_stmt 0 view .LVU211
 903 0018 4FF40072 		mov	r2, #512
 904 001c 8261     		str	r2, [r0, #24]
 302:Core/Src/main.c ****   hspi1.Init.FirstBit = SPI_FIRSTBIT_MSB;
 905              		.loc 1 302 3 is_stmt 1 view .LVU212
 302:Core/Src/main.c ****   hspi1.Init.FirstBit = SPI_FIRSTBIT_MSB;
 906              		.loc 1 302 32 is_stmt 0 view .LVU213
 907 001e 1822     		movs	r2, #24
 908 0020 C261     		str	r2, [r0, #28]
ARM GAS  C:\Users\jdcox\AppData\Local\Temp\ccQ7sHkq.s 			page 33


 303:Core/Src/main.c ****   hspi1.Init.TIMode = SPI_TIMODE_DISABLE;
 909              		.loc 1 303 3 is_stmt 1 view .LVU214
 303:Core/Src/main.c ****   hspi1.Init.TIMode = SPI_TIMODE_DISABLE;
 910              		.loc 1 303 23 is_stmt 0 view .LVU215
 911 0022 0362     		str	r3, [r0, #32]
 304:Core/Src/main.c ****   hspi1.Init.CRCCalculation = SPI_CRCCALCULATION_DISABLE;
 912              		.loc 1 304 3 is_stmt 1 view .LVU216
 304:Core/Src/main.c ****   hspi1.Init.CRCCalculation = SPI_CRCCALCULATION_DISABLE;
 913              		.loc 1 304 21 is_stmt 0 view .LVU217
 914 0024 4362     		str	r3, [r0, #36]
 305:Core/Src/main.c ****   hspi1.Init.CRCPolynomial = 10;
 915              		.loc 1 305 3 is_stmt 1 view .LVU218
 305:Core/Src/main.c ****   hspi1.Init.CRCPolynomial = 10;
 916              		.loc 1 305 29 is_stmt 0 view .LVU219
 917 0026 8362     		str	r3, [r0, #40]
 306:Core/Src/main.c ****   if (HAL_SPI_Init(&hspi1) != HAL_OK)
 918              		.loc 1 306 3 is_stmt 1 view .LVU220
 306:Core/Src/main.c ****   if (HAL_SPI_Init(&hspi1) != HAL_OK)
 919              		.loc 1 306 28 is_stmt 0 view .LVU221
 920 0028 0A23     		movs	r3, #10
 921 002a C362     		str	r3, [r0, #44]
 307:Core/Src/main.c ****   {
 922              		.loc 1 307 3 is_stmt 1 view .LVU222
 307:Core/Src/main.c ****   {
 923              		.loc 1 307 7 is_stmt 0 view .LVU223
 924 002c FFF7FEFF 		bl	HAL_SPI_Init
 925              	.LVL64:
 307:Core/Src/main.c ****   {
 926              		.loc 1 307 6 view .LVU224
 927 0030 00B9     		cbnz	r0, .L45
 315:Core/Src/main.c **** 
 928              		.loc 1 315 1 view .LVU225
 929 0032 08BD     		pop	{r3, pc}
 930              	.L45:
 309:Core/Src/main.c ****   }
 931              		.loc 1 309 5 is_stmt 1 view .LVU226
 932 0034 FFF7FEFF 		bl	Error_Handler
 933              	.LVL65:
 934              	.L47:
 935              		.align	2
 936              	.L46:
 937 0038 00000000 		.word	.LANCHOR1
 938 003c 00300140 		.word	1073819648
 939              		.cfi_endproc
 940              	.LFE141:
 942              		.section	.text.MX_I2C1_Init,"ax",%progbits
 943              		.align	1
 944              		.syntax unified
 945              		.thumb
 946              		.thumb_func
 948              	MX_I2C1_Init:
 949              	.LFB140:
 251:Core/Src/main.c **** 
 950              		.loc 1 251 1 view -0
 951              		.cfi_startproc
 952              		@ args = 0, pretend = 0, frame = 0
 953              		@ frame_needed = 0, uses_anonymous_args = 0
ARM GAS  C:\Users\jdcox\AppData\Local\Temp\ccQ7sHkq.s 			page 34


 954 0000 08B5     		push	{r3, lr}
 955              	.LCFI12:
 956              		.cfi_def_cfa_offset 8
 957              		.cfi_offset 3, -8
 958              		.cfi_offset 14, -4
 260:Core/Src/main.c ****   hi2c1.Init.ClockSpeed = 100000;
 959              		.loc 1 260 3 view .LVU228
 260:Core/Src/main.c ****   hi2c1.Init.ClockSpeed = 100000;
 960              		.loc 1 260 18 is_stmt 0 view .LVU229
 961 0002 0B48     		ldr	r0, .L52
 962 0004 0B4B     		ldr	r3, .L52+4
 963 0006 0360     		str	r3, [r0]
 261:Core/Src/main.c ****   hi2c1.Init.DutyCycle = I2C_DUTYCYCLE_2;
 964              		.loc 1 261 3 is_stmt 1 view .LVU230
 261:Core/Src/main.c ****   hi2c1.Init.DutyCycle = I2C_DUTYCYCLE_2;
 965              		.loc 1 261 25 is_stmt 0 view .LVU231
 966 0008 0B4B     		ldr	r3, .L52+8
 967 000a 4360     		str	r3, [r0, #4]
 262:Core/Src/main.c ****   hi2c1.Init.OwnAddress1 = 78;
 968              		.loc 1 262 3 is_stmt 1 view .LVU232
 262:Core/Src/main.c ****   hi2c1.Init.OwnAddress1 = 78;
 969              		.loc 1 262 24 is_stmt 0 view .LVU233
 970 000c 0023     		movs	r3, #0
 971 000e 8360     		str	r3, [r0, #8]
 263:Core/Src/main.c ****   hi2c1.Init.AddressingMode = I2C_ADDRESSINGMODE_7BIT;
 972              		.loc 1 263 3 is_stmt 1 view .LVU234
 263:Core/Src/main.c ****   hi2c1.Init.AddressingMode = I2C_ADDRESSINGMODE_7BIT;
 973              		.loc 1 263 26 is_stmt 0 view .LVU235
 974 0010 4E22     		movs	r2, #78
 975 0012 C260     		str	r2, [r0, #12]
 264:Core/Src/main.c ****   hi2c1.Init.DualAddressMode = I2C_DUALADDRESS_DISABLE;
 976              		.loc 1 264 3 is_stmt 1 view .LVU236
 264:Core/Src/main.c ****   hi2c1.Init.DualAddressMode = I2C_DUALADDRESS_DISABLE;
 977              		.loc 1 264 29 is_stmt 0 view .LVU237
 978 0014 4FF48042 		mov	r2, #16384
 979 0018 0261     		str	r2, [r0, #16]
 265:Core/Src/main.c ****   hi2c1.Init.OwnAddress2 = 0;
 980              		.loc 1 265 3 is_stmt 1 view .LVU238
 265:Core/Src/main.c ****   hi2c1.Init.OwnAddress2 = 0;
 981              		.loc 1 265 30 is_stmt 0 view .LVU239
 982 001a 4361     		str	r3, [r0, #20]
 266:Core/Src/main.c ****   hi2c1.Init.GeneralCallMode = I2C_GENERALCALL_DISABLE;
 983              		.loc 1 266 3 is_stmt 1 view .LVU240
 266:Core/Src/main.c ****   hi2c1.Init.GeneralCallMode = I2C_GENERALCALL_DISABLE;
 984              		.loc 1 266 26 is_stmt 0 view .LVU241
 985 001c 8361     		str	r3, [r0, #24]
 267:Core/Src/main.c ****   hi2c1.Init.NoStretchMode = I2C_NOSTRETCH_DISABLE;
 986              		.loc 1 267 3 is_stmt 1 view .LVU242
 267:Core/Src/main.c ****   hi2c1.Init.NoStretchMode = I2C_NOSTRETCH_DISABLE;
 987              		.loc 1 267 30 is_stmt 0 view .LVU243
 988 001e C361     		str	r3, [r0, #28]
 268:Core/Src/main.c ****   if (HAL_I2C_Init(&hi2c1) != HAL_OK)
 989              		.loc 1 268 3 is_stmt 1 view .LVU244
 268:Core/Src/main.c ****   if (HAL_I2C_Init(&hi2c1) != HAL_OK)
 990              		.loc 1 268 28 is_stmt 0 view .LVU245
 991 0020 0362     		str	r3, [r0, #32]
 269:Core/Src/main.c ****   {
ARM GAS  C:\Users\jdcox\AppData\Local\Temp\ccQ7sHkq.s 			page 35


 992              		.loc 1 269 3 is_stmt 1 view .LVU246
 269:Core/Src/main.c ****   {
 993              		.loc 1 269 7 is_stmt 0 view .LVU247
 994 0022 FFF7FEFF 		bl	HAL_I2C_Init
 995              	.LVL66:
 269:Core/Src/main.c ****   {
 996              		.loc 1 269 6 view .LVU248
 997 0026 00B9     		cbnz	r0, .L51
 277:Core/Src/main.c **** 
 998              		.loc 1 277 1 view .LVU249
 999 0028 08BD     		pop	{r3, pc}
 1000              	.L51:
 271:Core/Src/main.c ****   }
 1001              		.loc 1 271 5 is_stmt 1 view .LVU250
 1002 002a FFF7FEFF 		bl	Error_Handler
 1003              	.LVL67:
 1004              	.L53:
 1005 002e 00BF     		.align	2
 1006              	.L52:
 1007 0030 00000000 		.word	.LANCHOR3
 1008 0034 00540040 		.word	1073763328
 1009 0038 A0860100 		.word	100000
 1010              		.cfi_endproc
 1011              	.LFE140:
 1013              		.section	.text.SystemClock_Config,"ax",%progbits
 1014              		.align	1
 1015              		.global	SystemClock_Config
 1016              		.syntax unified
 1017              		.thumb
 1018              		.thumb_func
 1020              	SystemClock_Config:
 1021              	.LFB139:
 205:Core/Src/main.c ****   RCC_OscInitTypeDef RCC_OscInitStruct = {0};
 1022              		.loc 1 205 1 view -0
 1023              		.cfi_startproc
 1024              		@ args = 0, pretend = 0, frame = 80
 1025              		@ frame_needed = 0, uses_anonymous_args = 0
 1026 0000 00B5     		push	{lr}
 1027              	.LCFI13:
 1028              		.cfi_def_cfa_offset 4
 1029              		.cfi_offset 14, -4
 1030 0002 95B0     		sub	sp, sp, #84
 1031              	.LCFI14:
 1032              		.cfi_def_cfa_offset 88
 206:Core/Src/main.c ****   RCC_ClkInitTypeDef RCC_ClkInitStruct = {0};
 1033              		.loc 1 206 3 view .LVU252
 206:Core/Src/main.c ****   RCC_ClkInitTypeDef RCC_ClkInitStruct = {0};
 1034              		.loc 1 206 22 is_stmt 0 view .LVU253
 1035 0004 3022     		movs	r2, #48
 1036 0006 0021     		movs	r1, #0
 1037 0008 08A8     		add	r0, sp, #32
 1038 000a FFF7FEFF 		bl	memset
 1039              	.LVL68:
 207:Core/Src/main.c **** 
 1040              		.loc 1 207 3 is_stmt 1 view .LVU254
 207:Core/Src/main.c **** 
 1041              		.loc 1 207 22 is_stmt 0 view .LVU255
ARM GAS  C:\Users\jdcox\AppData\Local\Temp\ccQ7sHkq.s 			page 36


 1042 000e 0023     		movs	r3, #0
 1043 0010 0393     		str	r3, [sp, #12]
 1044 0012 0493     		str	r3, [sp, #16]
 1045 0014 0593     		str	r3, [sp, #20]
 1046 0016 0693     		str	r3, [sp, #24]
 1047 0018 0793     		str	r3, [sp, #28]
 211:Core/Src/main.c ****   __HAL_PWR_VOLTAGESCALING_CONFIG(PWR_REGULATOR_VOLTAGE_SCALE2);
 1048              		.loc 1 211 3 is_stmt 1 view .LVU256
 1049              	.LBB11:
 211:Core/Src/main.c ****   __HAL_PWR_VOLTAGESCALING_CONFIG(PWR_REGULATOR_VOLTAGE_SCALE2);
 1050              		.loc 1 211 3 view .LVU257
 1051 001a 0193     		str	r3, [sp, #4]
 211:Core/Src/main.c ****   __HAL_PWR_VOLTAGESCALING_CONFIG(PWR_REGULATOR_VOLTAGE_SCALE2);
 1052              		.loc 1 211 3 view .LVU258
 1053 001c 214A     		ldr	r2, .L60
 1054 001e 116C     		ldr	r1, [r2, #64]
 1055 0020 41F08051 		orr	r1, r1, #268435456
 1056 0024 1164     		str	r1, [r2, #64]
 211:Core/Src/main.c ****   __HAL_PWR_VOLTAGESCALING_CONFIG(PWR_REGULATOR_VOLTAGE_SCALE2);
 1057              		.loc 1 211 3 view .LVU259
 1058 0026 126C     		ldr	r2, [r2, #64]
 1059 0028 02F08052 		and	r2, r2, #268435456
 1060 002c 0192     		str	r2, [sp, #4]
 211:Core/Src/main.c ****   __HAL_PWR_VOLTAGESCALING_CONFIG(PWR_REGULATOR_VOLTAGE_SCALE2);
 1061              		.loc 1 211 3 view .LVU260
 1062 002e 019A     		ldr	r2, [sp, #4]
 1063              	.LBE11:
 211:Core/Src/main.c ****   __HAL_PWR_VOLTAGESCALING_CONFIG(PWR_REGULATOR_VOLTAGE_SCALE2);
 1064              		.loc 1 211 3 view .LVU261
 212:Core/Src/main.c **** 
 1065              		.loc 1 212 3 view .LVU262
 1066              	.LBB12:
 212:Core/Src/main.c **** 
 1067              		.loc 1 212 3 view .LVU263
 1068 0030 0293     		str	r3, [sp, #8]
 212:Core/Src/main.c **** 
 1069              		.loc 1 212 3 view .LVU264
 1070 0032 1D4A     		ldr	r2, .L60+4
 1071 0034 1368     		ldr	r3, [r2]
 1072 0036 23F44043 		bic	r3, r3, #49152
 1073 003a 43F40043 		orr	r3, r3, #32768
 1074 003e 1360     		str	r3, [r2]
 212:Core/Src/main.c **** 
 1075              		.loc 1 212 3 view .LVU265
 1076 0040 1368     		ldr	r3, [r2]
 1077 0042 03F44043 		and	r3, r3, #49152
 1078 0046 0293     		str	r3, [sp, #8]
 212:Core/Src/main.c **** 
 1079              		.loc 1 212 3 view .LVU266
 1080 0048 029B     		ldr	r3, [sp, #8]
 1081              	.LBE12:
 212:Core/Src/main.c **** 
 1082              		.loc 1 212 3 view .LVU267
 217:Core/Src/main.c ****   RCC_OscInitStruct.HSEState = RCC_HSE_ON;
 1083              		.loc 1 217 3 view .LVU268
 217:Core/Src/main.c ****   RCC_OscInitStruct.HSEState = RCC_HSE_ON;
 1084              		.loc 1 217 36 is_stmt 0 view .LVU269
ARM GAS  C:\Users\jdcox\AppData\Local\Temp\ccQ7sHkq.s 			page 37


 1085 004a 0123     		movs	r3, #1
 1086 004c 0893     		str	r3, [sp, #32]
 218:Core/Src/main.c ****   RCC_OscInitStruct.PLL.PLLState = RCC_PLL_ON;
 1087              		.loc 1 218 3 is_stmt 1 view .LVU270
 218:Core/Src/main.c ****   RCC_OscInitStruct.PLL.PLLState = RCC_PLL_ON;
 1088              		.loc 1 218 30 is_stmt 0 view .LVU271
 1089 004e 4FF48033 		mov	r3, #65536
 1090 0052 0993     		str	r3, [sp, #36]
 219:Core/Src/main.c ****   RCC_OscInitStruct.PLL.PLLSource = RCC_PLLSOURCE_HSE;
 1091              		.loc 1 219 3 is_stmt 1 view .LVU272
 219:Core/Src/main.c ****   RCC_OscInitStruct.PLL.PLLSource = RCC_PLLSOURCE_HSE;
 1092              		.loc 1 219 34 is_stmt 0 view .LVU273
 1093 0054 0223     		movs	r3, #2
 1094 0056 0E93     		str	r3, [sp, #56]
 220:Core/Src/main.c ****   RCC_OscInitStruct.PLL.PLLM = 25;
 1095              		.loc 1 220 3 is_stmt 1 view .LVU274
 220:Core/Src/main.c ****   RCC_OscInitStruct.PLL.PLLM = 25;
 1096              		.loc 1 220 35 is_stmt 0 view .LVU275
 1097 0058 4FF48003 		mov	r3, #4194304
 1098 005c 0F93     		str	r3, [sp, #60]
 221:Core/Src/main.c ****   RCC_OscInitStruct.PLL.PLLN = 336;
 1099              		.loc 1 221 3 is_stmt 1 view .LVU276
 221:Core/Src/main.c ****   RCC_OscInitStruct.PLL.PLLN = 336;
 1100              		.loc 1 221 30 is_stmt 0 view .LVU277
 1101 005e 1923     		movs	r3, #25
 1102 0060 1093     		str	r3, [sp, #64]
 222:Core/Src/main.c ****   RCC_OscInitStruct.PLL.PLLP = RCC_PLLP_DIV4;
 1103              		.loc 1 222 3 is_stmt 1 view .LVU278
 222:Core/Src/main.c ****   RCC_OscInitStruct.PLL.PLLP = RCC_PLLP_DIV4;
 1104              		.loc 1 222 30 is_stmt 0 view .LVU279
 1105 0062 4FF4A873 		mov	r3, #336
 1106 0066 1193     		str	r3, [sp, #68]
 223:Core/Src/main.c ****   RCC_OscInitStruct.PLL.PLLQ = 7;
 1107              		.loc 1 223 3 is_stmt 1 view .LVU280
 223:Core/Src/main.c ****   RCC_OscInitStruct.PLL.PLLQ = 7;
 1108              		.loc 1 223 30 is_stmt 0 view .LVU281
 1109 0068 0423     		movs	r3, #4
 1110 006a 1293     		str	r3, [sp, #72]
 224:Core/Src/main.c ****   if (HAL_RCC_OscConfig(&RCC_OscInitStruct) != HAL_OK)
 1111              		.loc 1 224 3 is_stmt 1 view .LVU282
 224:Core/Src/main.c ****   if (HAL_RCC_OscConfig(&RCC_OscInitStruct) != HAL_OK)
 1112              		.loc 1 224 30 is_stmt 0 view .LVU283
 1113 006c 0723     		movs	r3, #7
 1114 006e 1393     		str	r3, [sp, #76]
 225:Core/Src/main.c ****   {
 1115              		.loc 1 225 3 is_stmt 1 view .LVU284
 225:Core/Src/main.c ****   {
 1116              		.loc 1 225 7 is_stmt 0 view .LVU285
 1117 0070 08A8     		add	r0, sp, #32
 1118 0072 FFF7FEFF 		bl	HAL_RCC_OscConfig
 1119              	.LVL69:
 225:Core/Src/main.c ****   {
 1120              		.loc 1 225 6 view .LVU286
 1121 0076 80B9     		cbnz	r0, .L58
 232:Core/Src/main.c ****                               |RCC_CLOCKTYPE_PCLK1|RCC_CLOCKTYPE_PCLK2;
 1122              		.loc 1 232 3 is_stmt 1 view .LVU287
 232:Core/Src/main.c ****                               |RCC_CLOCKTYPE_PCLK1|RCC_CLOCKTYPE_PCLK2;
ARM GAS  C:\Users\jdcox\AppData\Local\Temp\ccQ7sHkq.s 			page 38


 1123              		.loc 1 232 31 is_stmt 0 view .LVU288
 1124 0078 0F23     		movs	r3, #15
 1125 007a 0393     		str	r3, [sp, #12]
 234:Core/Src/main.c ****   RCC_ClkInitStruct.AHBCLKDivider = RCC_SYSCLK_DIV1;
 1126              		.loc 1 234 3 is_stmt 1 view .LVU289
 234:Core/Src/main.c ****   RCC_ClkInitStruct.AHBCLKDivider = RCC_SYSCLK_DIV1;
 1127              		.loc 1 234 34 is_stmt 0 view .LVU290
 1128 007c 0221     		movs	r1, #2
 1129 007e 0491     		str	r1, [sp, #16]
 235:Core/Src/main.c ****   RCC_ClkInitStruct.APB1CLKDivider = RCC_HCLK_DIV2;
 1130              		.loc 1 235 3 is_stmt 1 view .LVU291
 235:Core/Src/main.c ****   RCC_ClkInitStruct.APB1CLKDivider = RCC_HCLK_DIV2;
 1131              		.loc 1 235 35 is_stmt 0 view .LVU292
 1132 0080 0023     		movs	r3, #0
 1133 0082 0593     		str	r3, [sp, #20]
 236:Core/Src/main.c ****   RCC_ClkInitStruct.APB2CLKDivider = RCC_HCLK_DIV1;
 1134              		.loc 1 236 3 is_stmt 1 view .LVU293
 236:Core/Src/main.c ****   RCC_ClkInitStruct.APB2CLKDivider = RCC_HCLK_DIV1;
 1135              		.loc 1 236 36 is_stmt 0 view .LVU294
 1136 0084 4FF48052 		mov	r2, #4096
 1137 0088 0692     		str	r2, [sp, #24]
 237:Core/Src/main.c **** 
 1138              		.loc 1 237 3 is_stmt 1 view .LVU295
 237:Core/Src/main.c **** 
 1139              		.loc 1 237 36 is_stmt 0 view .LVU296
 1140 008a 0793     		str	r3, [sp, #28]
 239:Core/Src/main.c ****   {
 1141              		.loc 1 239 3 is_stmt 1 view .LVU297
 239:Core/Src/main.c ****   {
 1142              		.loc 1 239 7 is_stmt 0 view .LVU298
 1143 008c 03A8     		add	r0, sp, #12
 1144 008e FFF7FEFF 		bl	HAL_RCC_ClockConfig
 1145              	.LVL70:
 239:Core/Src/main.c ****   {
 1146              		.loc 1 239 6 view .LVU299
 1147 0092 20B9     		cbnz	r0, .L59
 243:Core/Src/main.c **** 
 1148              		.loc 1 243 1 view .LVU300
 1149 0094 15B0     		add	sp, sp, #84
 1150              	.LCFI15:
 1151              		.cfi_remember_state
 1152              		.cfi_def_cfa_offset 4
 1153              		@ sp needed
 1154 0096 5DF804FB 		ldr	pc, [sp], #4
 1155              	.L58:
 1156              	.LCFI16:
 1157              		.cfi_restore_state
 227:Core/Src/main.c ****   }
 1158              		.loc 1 227 5 is_stmt 1 view .LVU301
 1159 009a FFF7FEFF 		bl	Error_Handler
 1160              	.LVL71:
 1161              	.L59:
 241:Core/Src/main.c ****   }
 1162              		.loc 1 241 5 view .LVU302
 1163 009e FFF7FEFF 		bl	Error_Handler
 1164              	.LVL72:
 1165              	.L61:
ARM GAS  C:\Users\jdcox\AppData\Local\Temp\ccQ7sHkq.s 			page 39


 1166 00a2 00BF     		.align	2
 1167              	.L60:
 1168 00a4 00380240 		.word	1073887232
 1169 00a8 00700040 		.word	1073770496
 1170              		.cfi_endproc
 1171              	.LFE139:
 1173              		.section	.text.main,"ax",%progbits
 1174              		.align	1
 1175              		.global	main
 1176              		.syntax unified
 1177              		.thumb
 1178              		.thumb_func
 1180              	main:
 1181              	.LFB138:
  99:Core/Src/main.c ****   /* USER CODE BEGIN 1 */
 1182              		.loc 1 99 1 view -0
 1183              		.cfi_startproc
 1184              		@ Volatile: function does not return.
 1185              		@ args = 0, pretend = 0, frame = 80
 1186              		@ frame_needed = 0, uses_anonymous_args = 0
 1187 0000 00B5     		push	{lr}
 1188              	.LCFI17:
 1189              		.cfi_def_cfa_offset 4
 1190              		.cfi_offset 14, -4
 1191 0002 95B0     		sub	sp, sp, #84
 1192              	.LCFI18:
 1193              		.cfi_def_cfa_offset 88
 107:Core/Src/main.c **** 
 1194              		.loc 1 107 3 view .LVU304
 1195 0004 FFF7FEFF 		bl	HAL_Init
 1196              	.LVL73:
 114:Core/Src/main.c **** 
 1197              		.loc 1 114 3 view .LVU305
 1198 0008 FFF7FEFF 		bl	SystemClock_Config
 1199              	.LVL74:
 121:Core/Src/main.c ****   MX_DMA_Init();
 1200              		.loc 1 121 3 view .LVU306
 1201 000c FFF7FEFF 		bl	MX_GPIO_Init
 1202              	.LVL75:
 122:Core/Src/main.c ****   MX_SPI1_Init();
 1203              		.loc 1 122 3 view .LVU307
 1204 0010 FFF7FEFF 		bl	MX_DMA_Init
 1205              	.LVL76:
 123:Core/Src/main.c ****   MX_I2C1_Init();
 1206              		.loc 1 123 3 view .LVU308
 1207 0014 FFF7FEFF 		bl	MX_SPI1_Init
 1208              	.LVL77:
 124:Core/Src/main.c ****   /* USER CODE BEGIN 2 */
 1209              		.loc 1 124 3 view .LVU309
 1210 0018 FFF7FEFF 		bl	MX_I2C1_Init
 1211              	.LVL78:
 139:Core/Src/main.c **** 
 1212              		.loc 1 139 3 view .LVU310
 139:Core/Src/main.c **** 
 1213              		.loc 1 139 16 is_stmt 0 view .LVU311
 1214 001c 0120     		movs	r0, #1
 1215 001e FFF7FEFF 		bl	xQueueCreateMutex
ARM GAS  C:\Users\jdcox\AppData\Local\Temp\ccQ7sHkq.s 			page 40


 1216              	.LVL79:
 139:Core/Src/main.c **** 
 1217              		.loc 1 139 14 view .LVU312
 1218 0022 234B     		ldr	r3, .L65
 1219 0024 1860     		str	r0, [r3]
 149:Core/Src/main.c ****   msTickHandle = osTimerCreate(osTimer(msTick), osTimerPeriodic, NULL);
 1220              		.loc 1 149 3 is_stmt 1 view .LVU313
 1221 0026 234B     		ldr	r3, .L65+4
 1222 0028 1293     		str	r3, [sp, #72]
 1223 002a 0025     		movs	r5, #0
 1224 002c 1395     		str	r5, [sp, #76]
 150:Core/Src/main.c **** 
 1225              		.loc 1 150 3 view .LVU314
 150:Core/Src/main.c **** 
 1226              		.loc 1 150 18 is_stmt 0 view .LVU315
 1227 002e 2A46     		mov	r2, r5
 1228 0030 0121     		movs	r1, #1
 1229 0032 12A8     		add	r0, sp, #72
 1230 0034 FFF7FEFF 		bl	osTimerCreate
 1231              	.LVL80:
 150:Core/Src/main.c **** 
 1232              		.loc 1 150 16 view .LVU316
 1233 0038 1F4B     		ldr	r3, .L65+8
 1234 003a 1860     		str	r0, [r3]
 153:Core/Src/main.c ****   debounceTimerHandle = osTimerCreate(osTimer(debounceTimer), osTimerOnce, NULL);
 1235              		.loc 1 153 3 is_stmt 1 view .LVU317
 1236 003c 1F4B     		ldr	r3, .L65+12
 1237 003e 1093     		str	r3, [sp, #64]
 1238 0040 1195     		str	r5, [sp, #68]
 154:Core/Src/main.c **** 
 1239              		.loc 1 154 3 view .LVU318
 154:Core/Src/main.c **** 
 1240              		.loc 1 154 25 is_stmt 0 view .LVU319
 1241 0042 2A46     		mov	r2, r5
 1242 0044 2946     		mov	r1, r5
 1243 0046 10A8     		add	r0, sp, #64
 1244 0048 FFF7FEFF 		bl	osTimerCreate
 1245              	.LVL81:
 154:Core/Src/main.c **** 
 1246              		.loc 1 154 23 view .LVU320
 1247 004c 1C4B     		ldr	r3, .L65+16
 1248 004e 1860     		str	r0, [r3]
 157:Core/Src/main.c ****   blinkTimerHandle = osTimerCreate(osTimer(blinkTimer), osTimerOnce, NULL);
 1249              		.loc 1 157 3 is_stmt 1 view .LVU321
 1250 0050 1C4B     		ldr	r3, .L65+20
 1251 0052 0E93     		str	r3, [sp, #56]
 1252 0054 0F95     		str	r5, [sp, #60]
 158:Core/Src/main.c **** 
 1253              		.loc 1 158 3 view .LVU322
 158:Core/Src/main.c **** 
 1254              		.loc 1 158 22 is_stmt 0 view .LVU323
 1255 0056 2A46     		mov	r2, r5
 1256 0058 2946     		mov	r1, r5
 1257 005a 0EA8     		add	r0, sp, #56
 1258 005c FFF7FEFF 		bl	osTimerCreate
 1259              	.LVL82:
 158:Core/Src/main.c **** 
ARM GAS  C:\Users\jdcox\AppData\Local\Temp\ccQ7sHkq.s 			page 41


 1260              		.loc 1 158 20 view .LVU324
 1261 0060 194B     		ldr	r3, .L65+24
 1262 0062 1860     		str	r0, [r3]
 171:Core/Src/main.c ****   defaultTaskHandle = osThreadCreate(osThread(defaultTask), NULL);
 1263              		.loc 1 171 3 is_stmt 1 view .LVU325
 1264 0064 194C     		ldr	r4, .L65+28
 1265 0066 0DF11C0C 		add	ip, sp, #28
 1266 006a A646     		mov	lr, r4
 1267 006c BEE80F00 		ldmia	lr!, {r0, r1, r2, r3}
 1268 0070 ACE80F00 		stmia	ip!, {r0, r1, r2, r3}
 1269 0074 9EE80700 		ldm	lr, {r0, r1, r2}
 1270 0078 8CE80700 		stm	ip, {r0, r1, r2}
 172:Core/Src/main.c **** 
 1271              		.loc 1 172 3 view .LVU326
 172:Core/Src/main.c **** 
 1272              		.loc 1 172 23 is_stmt 0 view .LVU327
 1273 007c 2946     		mov	r1, r5
 1274 007e 07A8     		add	r0, sp, #28
 1275 0080 FFF7FEFF 		bl	osThreadCreate
 1276              	.LVL83:
 172:Core/Src/main.c **** 
 1277              		.loc 1 172 21 view .LVU328
 1278 0084 124B     		ldr	r3, .L65+32
 1279 0086 1860     		str	r0, [r3]
 178:Core/Src/main.c ****   displayTaskHandle = osThreadCreate(osThread(displayTask), NULL);
 1280              		.loc 1 178 3 is_stmt 1 view .LVU329
 1281 0088 EE46     		mov	lr, sp
 1282 008a 04F11C0C 		add	ip, r4, #28
 1283 008e BCE80F00 		ldmia	ip!, {r0, r1, r2, r3}
 1284 0092 AEE80F00 		stmia	lr!, {r0, r1, r2, r3}
 1285 0096 9CE80700 		ldm	ip, {r0, r1, r2}
 1286 009a 8EE80700 		stm	lr, {r0, r1, r2}
 179:Core/Src/main.c **** 
 1287              		.loc 1 179 3 view .LVU330
 179:Core/Src/main.c **** 
 1288              		.loc 1 179 23 is_stmt 0 view .LVU331
 1289 009e 2946     		mov	r1, r5
 1290 00a0 6846     		mov	r0, sp
 1291 00a2 FFF7FEFF 		bl	osThreadCreate
 1292              	.LVL84:
 179:Core/Src/main.c **** 
 1293              		.loc 1 179 21 view .LVU332
 1294 00a6 0B4B     		ldr	r3, .L65+36
 1295 00a8 1860     		str	r0, [r3]
 186:Core/Src/main.c **** 
 1296              		.loc 1 186 3 is_stmt 1 view .LVU333
 1297 00aa FFF7FEFF 		bl	osKernelStart
 1298              	.LVL85:
 1299              	.L63:
 191:Core/Src/main.c ****   {
 1300              		.loc 1 191 3 discriminator 1 view .LVU334
 196:Core/Src/main.c ****   /* USER CODE END 3 */
 1301              		.loc 1 196 3 discriminator 1 view .LVU335
 191:Core/Src/main.c ****   {
 1302              		.loc 1 191 9 discriminator 1 view .LVU336
 1303 00ae FEE7     		b	.L63
 1304              	.L66:
ARM GAS  C:\Users\jdcox\AppData\Local\Temp\ccQ7sHkq.s 			page 42


 1305              		.align	2
 1306              	.L65:
 1307 00b0 00000000 		.word	.LANCHOR4
 1308 00b4 00000000 		.word	msTickCallback
 1309 00b8 00000000 		.word	.LANCHOR2
 1310 00bc 00000000 		.word	debounceCallback
 1311 00c0 00000000 		.word	.LANCHOR5
 1312 00c4 00000000 		.word	blinkTimerCallback
 1313 00c8 00000000 		.word	.LANCHOR6
 1314 00cc 00000000 		.word	.LANCHOR7
 1315 00d0 00000000 		.word	.LANCHOR8
 1316 00d4 00000000 		.word	.LANCHOR9
 1317              		.cfi_endproc
 1318              	.LFE138:
 1320              		.section	.rodata.str1.4,"aMS",%progbits,1
 1321              		.align	2
 1322              	.LC2:
 1323 0000 64697370 		.ascii	"displayTask\000"
 1323      6C617954 
 1323      61736B00 
 1324              		.align	2
 1325              	.LC0:
 1326 000c 64656661 		.ascii	"defaultTask\000"
 1326      756C7454 
 1326      61736B00 
 1327              		.global	myLoRa
 1328              		.global	xloraMutex
 1329              		.global	lora_mutexHandle
 1330              		.global	blinkTimerHandle
 1331              		.global	debounceTimerHandle
 1332              		.global	msTickHandle
 1333              		.global	displayTaskHandle
 1334              		.global	loraRXTaskHandle
 1335              		.global	defaultTaskHandle
 1336              		.global	hdma_spi1_rx
 1337              		.global	hdma_spi1_tx
 1338              		.global	hspi1
 1339              		.global	hdma_i2c1_tx
 1340              		.global	hi2c1
 1341              		.section	.rodata
 1342              		.align	2
 1343              		.set	.LANCHOR7,. + 0
 1344              	.LC9:
 1345 0000 0C000000 		.word	.LC0
 1346 0004 00000000 		.word	StartDefaultTask
 1347 0008 0000     		.short	0
 1348 000a 0000     		.space	2
 1349 000c 00000000 		.word	0
 1350 0010 80000000 		.word	128
 1351 0014 00000000 		.word	0
 1352 0018 00000000 		.word	0
 1353              	.LC10:
 1354 001c 00000000 		.word	.LC2
 1355 0020 00000000 		.word	StartDisplayTask
 1356 0024 0000     		.short	0
 1357 0026 0000     		.space	2
 1358 0028 00000000 		.word	0
ARM GAS  C:\Users\jdcox\AppData\Local\Temp\ccQ7sHkq.s 			page 43


 1359 002c 80000000 		.word	128
 1360 0030 00000000 		.word	0
 1361 0034 00000000 		.word	0
 1362              		.section	.bss.blinkTimerHandle,"aw",%nobits
 1363              		.align	2
 1364              		.set	.LANCHOR6,. + 0
 1367              	blinkTimerHandle:
 1368 0000 00000000 		.space	4
 1369              		.section	.bss.debounceTimerHandle,"aw",%nobits
 1370              		.align	2
 1371              		.set	.LANCHOR5,. + 0
 1374              	debounceTimerHandle:
 1375 0000 00000000 		.space	4
 1376              		.section	.bss.defaultTaskHandle,"aw",%nobits
 1377              		.align	2
 1378              		.set	.LANCHOR8,. + 0
 1381              	defaultTaskHandle:
 1382 0000 00000000 		.space	4
 1383              		.section	.bss.displayTaskHandle,"aw",%nobits
 1384              		.align	2
 1385              		.set	.LANCHOR9,. + 0
 1388              	displayTaskHandle:
 1389 0000 00000000 		.space	4
 1390              		.section	.bss.hdma_i2c1_tx,"aw",%nobits
 1391              		.align	2
 1394              	hdma_i2c1_tx:
 1395 0000 00000000 		.space	96
 1395      00000000 
 1395      00000000 
 1395      00000000 
 1395      00000000 
 1396              		.section	.bss.hdma_spi1_rx,"aw",%nobits
 1397              		.align	2
 1400              	hdma_spi1_rx:
 1401 0000 00000000 		.space	96
 1401      00000000 
 1401      00000000 
 1401      00000000 
 1401      00000000 
 1402              		.section	.bss.hdma_spi1_tx,"aw",%nobits
 1403              		.align	2
 1406              	hdma_spi1_tx:
 1407 0000 00000000 		.space	96
 1407      00000000 
 1407      00000000 
 1407      00000000 
 1407      00000000 
 1408              		.section	.bss.hi2c1,"aw",%nobits
 1409              		.align	2
 1410              		.set	.LANCHOR3,. + 0
 1413              	hi2c1:
 1414 0000 00000000 		.space	84
 1414      00000000 
 1414      00000000 
 1414      00000000 
 1414      00000000 
 1415              		.section	.bss.hspi1,"aw",%nobits
ARM GAS  C:\Users\jdcox\AppData\Local\Temp\ccQ7sHkq.s 			page 44


 1416              		.align	2
 1417              		.set	.LANCHOR1,. + 0
 1420              	hspi1:
 1421 0000 00000000 		.space	88
 1421      00000000 
 1421      00000000 
 1421      00000000 
 1421      00000000 
 1422              		.section	.bss.loraRXTaskHandle,"aw",%nobits
 1423              		.align	2
 1426              	loraRXTaskHandle:
 1427 0000 00000000 		.space	4
 1428              		.section	.bss.lora_mutexHandle,"aw",%nobits
 1429              		.align	2
 1432              	lora_mutexHandle:
 1433 0000 00000000 		.space	4
 1434              		.section	.bss.msTickHandle,"aw",%nobits
 1435              		.align	2
 1436              		.set	.LANCHOR2,. + 0
 1439              	msTickHandle:
 1440 0000 00000000 		.space	4
 1441              		.section	.bss.myLoRa,"aw",%nobits
 1442              		.align	2
 1443              		.set	.LANCHOR0,. + 0
 1446              	myLoRa:
 1447 0000 00000000 		.space	44
 1447      00000000 
 1447      00000000 
 1447      00000000 
 1447      00000000 
 1448              		.section	.bss.xloraMutex,"aw",%nobits
 1449              		.align	2
 1450              		.set	.LANCHOR4,. + 0
 1453              	xloraMutex:
 1454 0000 00000000 		.space	4
 1455              		.text
 1456              	.Letext0:
 1457              		.file 3 "Drivers/CMSIS/Device/ST/STM32F4xx/Include/stm32f401xc.h"
 1458              		.file 4 "c:\\libraries\\gcc\\11.2 2022.02\\arm-none-eabi\\include\\machine\\_default_types.h"
 1459              		.file 5 "c:\\libraries\\gcc\\11.2 2022.02\\arm-none-eabi\\include\\sys\\_stdint.h"
 1460              		.file 6 "Drivers/CMSIS/Device/ST/STM32F4xx/Include/stm32f4xx.h"
 1461              		.file 7 "Drivers/STM32F4xx_HAL_Driver/Inc/stm32f4xx_hal_def.h"
 1462              		.file 8 "Drivers/STM32F4xx_HAL_Driver/Inc/stm32f4xx_hal_rcc_ex.h"
 1463              		.file 9 "Drivers/STM32F4xx_HAL_Driver/Inc/stm32f4xx_hal_rcc.h"
 1464              		.file 10 "Drivers/STM32F4xx_HAL_Driver/Inc/stm32f4xx_hal_gpio.h"
 1465              		.file 11 "Drivers/STM32F4xx_HAL_Driver/Inc/stm32f4xx_hal_dma.h"
 1466              		.file 12 "Drivers/STM32F4xx_HAL_Driver/Inc/stm32f4xx_hal_i2c.h"
 1467              		.file 13 "Drivers/STM32F4xx_HAL_Driver/Inc/stm32f4xx_hal_spi.h"
 1468              		.file 14 "Drivers/STM32F4xx_HAL_Driver/Inc/stm32f4xx_hal_tim.h"
 1469              		.file 15 "Middlewares/Third_Party/FreeRTOS/Source/include/projdefs.h"
 1470              		.file 16 "Middlewares/Third_Party/FreeRTOS/Source/portable/GCC/ARM_CM4F/portmacro.h"
 1471              		.file 17 "Middlewares/Third_Party/FreeRTOS/Source/include/FreeRTOS.h"
 1472              		.file 18 "Middlewares/Third_Party/FreeRTOS/Source/include/task.h"
 1473              		.file 19 "Middlewares/Third_Party/FreeRTOS/Source/include/timers.h"
 1474              		.file 20 "Middlewares/Third_Party/FreeRTOS/Source/include/queue.h"
 1475              		.file 21 "Middlewares/Third_Party/FreeRTOS/Source/include/semphr.h"
 1476              		.file 22 "Middlewares/Third_Party/FreeRTOS/Source/CMSIS_RTOS/cmsis_os.h"
ARM GAS  C:\Users\jdcox\AppData\Local\Temp\ccQ7sHkq.s 			page 45


 1477              		.file 23 "Core/Inc/lora.h"
 1478              		.file 24 "Core/Inc/extern.h"
 1479              		.file 25 "Core/Inc/ssd1306_fonts.h"
 1480              		.file 26 "Core/Inc/ssd1306.h"
 1481              		.file 27 "Drivers/STM32F4xx_HAL_Driver/Inc/stm32f4xx_hal.h"
 1482              		.file 28 "c:\\libraries\\gcc\\11.2 2022.02\\arm-none-eabi\\include\\stdio.h"
 1483              		.file 29 "Drivers/STM32F4xx_HAL_Driver/Inc/stm32f4xx_hal_cortex.h"
 1484              		.file 30 "<built-in>"
ARM GAS  C:\Users\jdcox\AppData\Local\Temp\ccQ7sHkq.s 			page 46


DEFINED SYMBOLS
                            *ABS*:00000000 main.c
C:\Users\jdcox\AppData\Local\Temp\ccQ7sHkq.s:20     .text.msTickCallback:00000000 $t
C:\Users\jdcox\AppData\Local\Temp\ccQ7sHkq.s:26     .text.msTickCallback:00000000 msTickCallback
C:\Users\jdcox\AppData\Local\Temp\ccQ7sHkq.s:111    .text.msTickCallback:00000058 $d
C:\Users\jdcox\AppData\Local\Temp\ccQ7sHkq.s:120    .text.debounceCallback:00000000 $t
C:\Users\jdcox\AppData\Local\Temp\ccQ7sHkq.s:126    .text.debounceCallback:00000000 debounceCallback
C:\Users\jdcox\AppData\Local\Temp\ccQ7sHkq.s:144    .text.debounceCallback:00000008 $d
C:\Users\jdcox\AppData\Local\Temp\ccQ7sHkq.s:149    .text.blinkTimerCallback:00000000 $t
C:\Users\jdcox\AppData\Local\Temp\ccQ7sHkq.s:155    .text.blinkTimerCallback:00000000 blinkTimerCallback
C:\Users\jdcox\AppData\Local\Temp\ccQ7sHkq.s:169    .text.MX_GPIO_Init:00000000 $t
C:\Users\jdcox\AppData\Local\Temp\ccQ7sHkq.s:174    .text.MX_GPIO_Init:00000000 MX_GPIO_Init
C:\Users\jdcox\AppData\Local\Temp\ccQ7sHkq.s:350    .text.MX_GPIO_Init:000000d4 $d
C:\Users\jdcox\AppData\Local\Temp\ccQ7sHkq.s:357    .text.MX_DMA_Init:00000000 $t
C:\Users\jdcox\AppData\Local\Temp\ccQ7sHkq.s:362    .text.MX_DMA_Init:00000000 MX_DMA_Init
C:\Users\jdcox\AppData\Local\Temp\ccQ7sHkq.s:449    .text.MX_DMA_Init:00000064 $d
C:\Users\jdcox\AppData\Local\Temp\ccQ7sHkq.s:454    .text.StartDisplayTask:00000000 $t
C:\Users\jdcox\AppData\Local\Temp\ccQ7sHkq.s:460    .text.StartDisplayTask:00000000 StartDisplayTask
C:\Users\jdcox\AppData\Local\Temp\ccQ7sHkq.s:487    .rodata.StartDefaultTask.str1.4:00000000 $d
C:\Users\jdcox\AppData\Local\Temp\ccQ7sHkq.s:503    .text.StartDefaultTask:00000000 $t
C:\Users\jdcox\AppData\Local\Temp\ccQ7sHkq.s:509    .text.StartDefaultTask:00000000 StartDefaultTask
C:\Users\jdcox\AppData\Local\Temp\ccQ7sHkq.s:727    .text.StartDefaultTask:00000138 $d
C:\Users\jdcox\AppData\Local\Temp\ccQ7sHkq.s:744    .text.StartLoraRXTask:00000000 $t
C:\Users\jdcox\AppData\Local\Temp\ccQ7sHkq.s:750    .text.StartLoraRXTask:00000000 StartLoraRXTask
C:\Users\jdcox\AppData\Local\Temp\ccQ7sHkq.s:780    .text.HAL_TIM_PeriodElapsedCallback:00000000 $t
C:\Users\jdcox\AppData\Local\Temp\ccQ7sHkq.s:786    .text.HAL_TIM_PeriodElapsedCallback:00000000 HAL_TIM_PeriodElapsedCallback
C:\Users\jdcox\AppData\Local\Temp\ccQ7sHkq.s:820    .text.HAL_TIM_PeriodElapsedCallback:00000014 $d
C:\Users\jdcox\AppData\Local\Temp\ccQ7sHkq.s:825    .text.Error_Handler:00000000 $t
C:\Users\jdcox\AppData\Local\Temp\ccQ7sHkq.s:831    .text.Error_Handler:00000000 Error_Handler
C:\Users\jdcox\AppData\Local\Temp\ccQ7sHkq.s:863    .text.MX_SPI1_Init:00000000 $t
C:\Users\jdcox\AppData\Local\Temp\ccQ7sHkq.s:868    .text.MX_SPI1_Init:00000000 MX_SPI1_Init
C:\Users\jdcox\AppData\Local\Temp\ccQ7sHkq.s:937    .text.MX_SPI1_Init:00000038 $d
C:\Users\jdcox\AppData\Local\Temp\ccQ7sHkq.s:943    .text.MX_I2C1_Init:00000000 $t
C:\Users\jdcox\AppData\Local\Temp\ccQ7sHkq.s:948    .text.MX_I2C1_Init:00000000 MX_I2C1_Init
C:\Users\jdcox\AppData\Local\Temp\ccQ7sHkq.s:1007   .text.MX_I2C1_Init:00000030 $d
C:\Users\jdcox\AppData\Local\Temp\ccQ7sHkq.s:1014   .text.SystemClock_Config:00000000 $t
C:\Users\jdcox\AppData\Local\Temp\ccQ7sHkq.s:1020   .text.SystemClock_Config:00000000 SystemClock_Config
C:\Users\jdcox\AppData\Local\Temp\ccQ7sHkq.s:1168   .text.SystemClock_Config:000000a4 $d
C:\Users\jdcox\AppData\Local\Temp\ccQ7sHkq.s:1174   .text.main:00000000 $t
C:\Users\jdcox\AppData\Local\Temp\ccQ7sHkq.s:1180   .text.main:00000000 main
C:\Users\jdcox\AppData\Local\Temp\ccQ7sHkq.s:1307   .text.main:000000b0 $d
C:\Users\jdcox\AppData\Local\Temp\ccQ7sHkq.s:1321   .rodata.str1.4:00000000 $d
C:\Users\jdcox\AppData\Local\Temp\ccQ7sHkq.s:1446   .bss.myLoRa:00000000 myLoRa
C:\Users\jdcox\AppData\Local\Temp\ccQ7sHkq.s:1453   .bss.xloraMutex:00000000 xloraMutex
C:\Users\jdcox\AppData\Local\Temp\ccQ7sHkq.s:1432   .bss.lora_mutexHandle:00000000 lora_mutexHandle
C:\Users\jdcox\AppData\Local\Temp\ccQ7sHkq.s:1367   .bss.blinkTimerHandle:00000000 blinkTimerHandle
C:\Users\jdcox\AppData\Local\Temp\ccQ7sHkq.s:1374   .bss.debounceTimerHandle:00000000 debounceTimerHandle
C:\Users\jdcox\AppData\Local\Temp\ccQ7sHkq.s:1439   .bss.msTickHandle:00000000 msTickHandle
C:\Users\jdcox\AppData\Local\Temp\ccQ7sHkq.s:1388   .bss.displayTaskHandle:00000000 displayTaskHandle
C:\Users\jdcox\AppData\Local\Temp\ccQ7sHkq.s:1426   .bss.loraRXTaskHandle:00000000 loraRXTaskHandle
C:\Users\jdcox\AppData\Local\Temp\ccQ7sHkq.s:1381   .bss.defaultTaskHandle:00000000 defaultTaskHandle
C:\Users\jdcox\AppData\Local\Temp\ccQ7sHkq.s:1400   .bss.hdma_spi1_rx:00000000 hdma_spi1_rx
C:\Users\jdcox\AppData\Local\Temp\ccQ7sHkq.s:1406   .bss.hdma_spi1_tx:00000000 hdma_spi1_tx
C:\Users\jdcox\AppData\Local\Temp\ccQ7sHkq.s:1420   .bss.hspi1:00000000 hspi1
C:\Users\jdcox\AppData\Local\Temp\ccQ7sHkq.s:1394   .bss.hdma_i2c1_tx:00000000 hdma_i2c1_tx
C:\Users\jdcox\AppData\Local\Temp\ccQ7sHkq.s:1413   .bss.hi2c1:00000000 hi2c1
C:\Users\jdcox\AppData\Local\Temp\ccQ7sHkq.s:1342   .rodata:00000000 $d
ARM GAS  C:\Users\jdcox\AppData\Local\Temp\ccQ7sHkq.s 			page 47


C:\Users\jdcox\AppData\Local\Temp\ccQ7sHkq.s:1363   .bss.blinkTimerHandle:00000000 $d
C:\Users\jdcox\AppData\Local\Temp\ccQ7sHkq.s:1370   .bss.debounceTimerHandle:00000000 $d
C:\Users\jdcox\AppData\Local\Temp\ccQ7sHkq.s:1377   .bss.defaultTaskHandle:00000000 $d
C:\Users\jdcox\AppData\Local\Temp\ccQ7sHkq.s:1384   .bss.displayTaskHandle:00000000 $d
C:\Users\jdcox\AppData\Local\Temp\ccQ7sHkq.s:1391   .bss.hdma_i2c1_tx:00000000 $d
C:\Users\jdcox\AppData\Local\Temp\ccQ7sHkq.s:1397   .bss.hdma_spi1_rx:00000000 $d
C:\Users\jdcox\AppData\Local\Temp\ccQ7sHkq.s:1403   .bss.hdma_spi1_tx:00000000 $d
C:\Users\jdcox\AppData\Local\Temp\ccQ7sHkq.s:1409   .bss.hi2c1:00000000 $d
C:\Users\jdcox\AppData\Local\Temp\ccQ7sHkq.s:1416   .bss.hspi1:00000000 $d
C:\Users\jdcox\AppData\Local\Temp\ccQ7sHkq.s:1423   .bss.loraRXTaskHandle:00000000 $d
C:\Users\jdcox\AppData\Local\Temp\ccQ7sHkq.s:1429   .bss.lora_mutexHandle:00000000 $d
C:\Users\jdcox\AppData\Local\Temp\ccQ7sHkq.s:1435   .bss.msTickHandle:00000000 $d
C:\Users\jdcox\AppData\Local\Temp\ccQ7sHkq.s:1442   .bss.myLoRa:00000000 $d
C:\Users\jdcox\AppData\Local\Temp\ccQ7sHkq.s:1449   .bss.xloraMutex:00000000 $d

UNDEFINED SYMBOLS
red_flag
blue_flag
red_counter
gameState
blue_counter
debouncing_Flag
HAL_GPIO_WritePin
HAL_GPIO_Init
HAL_NVIC_SetPriority
HAL_NVIC_EnableIRQ
osDelay
newLoRa
LoRa_init
sprintf
LoRa_startReceiving
ssd1306_Init
ssd1306_SetCursor
ssd1306_WriteString
ssd1306_UpdateScreen
ssd1306_Fill
resetGame
osTimerStart
doGameStateSimple
getKOTHPacket
LoRa_transmit
opcodeString
debugBuddy
Font_16x24
HAL_IncTick
HAL_SPI_Init
HAL_I2C_Init
memset
HAL_RCC_OscConfig
HAL_RCC_ClockConfig
HAL_Init
xQueueCreateMutex
osTimerCreate
osThreadCreate
osKernelStart
