ARM GAS  C:\Users\jdcox\AppData\Local\Temp\ccbkldQv.s 			page 1


   1              		.cpu cortex-m4
   2              		.arch armv7e-m
   3              		.fpu fpv4-sp-d16
   4              		.eabi_attribute 27, 1
   5              		.eabi_attribute 28, 1
   6              		.eabi_attribute 20, 1
   7              		.eabi_attribute 21, 1
   8              		.eabi_attribute 23, 3
   9              		.eabi_attribute 24, 1
  10              		.eabi_attribute 25, 1
  11              		.eabi_attribute 26, 1
  12              		.eabi_attribute 30, 1
  13              		.eabi_attribute 34, 1
  14              		.eabi_attribute 18, 4
  15              		.file	"stm32f4xx_it.c"
  16              		.text
  17              	.Ltext0:
  18              		.cfi_sections	.debug_frame
  19              		.section	.text.NMI_Handler,"ax",%progbits
  20              		.align	1
  21              		.global	NMI_Handler
  22              		.syntax unified
  23              		.thumb
  24              		.thumb_func
  26              	NMI_Handler:
  27              	.LFB135:
  28              		.file 1 "Core/Src/stm32f4xx_it.c"
   1:Core/Src/stm32f4xx_it.c **** /* USER CODE BEGIN Header */
   2:Core/Src/stm32f4xx_it.c **** /**
   3:Core/Src/stm32f4xx_it.c ****   ******************************************************************************
   4:Core/Src/stm32f4xx_it.c ****   * @file    stm32f4xx_it.c
   5:Core/Src/stm32f4xx_it.c ****   * @brief   Interrupt Service Routines.
   6:Core/Src/stm32f4xx_it.c ****   ******************************************************************************
   7:Core/Src/stm32f4xx_it.c ****   * @attention
   8:Core/Src/stm32f4xx_it.c ****   *
   9:Core/Src/stm32f4xx_it.c ****   * Copyright (c) 2024 STMicroelectronics.
  10:Core/Src/stm32f4xx_it.c ****   * All rights reserved.
  11:Core/Src/stm32f4xx_it.c ****   *
  12:Core/Src/stm32f4xx_it.c ****   * This software is licensed under terms that can be found in the LICENSE file
  13:Core/Src/stm32f4xx_it.c ****   * in the root directory of this software component.
  14:Core/Src/stm32f4xx_it.c ****   * If no LICENSE file comes with this software, it is provided AS-IS.
  15:Core/Src/stm32f4xx_it.c ****   *
  16:Core/Src/stm32f4xx_it.c ****   ******************************************************************************
  17:Core/Src/stm32f4xx_it.c ****   */
  18:Core/Src/stm32f4xx_it.c **** /* USER CODE END Header */
  19:Core/Src/stm32f4xx_it.c **** 
  20:Core/Src/stm32f4xx_it.c **** /* Includes ------------------------------------------------------------------*/
  21:Core/Src/stm32f4xx_it.c **** #include "main.h"
  22:Core/Src/stm32f4xx_it.c **** #include "stm32f4xx_it.h"
  23:Core/Src/stm32f4xx_it.c **** /* Private includes ----------------------------------------------------------*/
  24:Core/Src/stm32f4xx_it.c **** /* USER CODE BEGIN Includes */
  25:Core/Src/stm32f4xx_it.c **** #include "extern.h"
  26:Core/Src/stm32f4xx_it.c **** /* USER CODE END Includes */
  27:Core/Src/stm32f4xx_it.c **** 
  28:Core/Src/stm32f4xx_it.c **** /* Private typedef -----------------------------------------------------------*/
  29:Core/Src/stm32f4xx_it.c **** /* USER CODE BEGIN TD */
  30:Core/Src/stm32f4xx_it.c **** 
ARM GAS  C:\Users\jdcox\AppData\Local\Temp\ccbkldQv.s 			page 2


  31:Core/Src/stm32f4xx_it.c **** /* USER CODE END TD */
  32:Core/Src/stm32f4xx_it.c **** 
  33:Core/Src/stm32f4xx_it.c **** /* Private define ------------------------------------------------------------*/
  34:Core/Src/stm32f4xx_it.c **** /* USER CODE BEGIN PD */
  35:Core/Src/stm32f4xx_it.c **** 
  36:Core/Src/stm32f4xx_it.c **** /* USER CODE END PD */
  37:Core/Src/stm32f4xx_it.c **** 
  38:Core/Src/stm32f4xx_it.c **** /* Private macro -------------------------------------------------------------*/
  39:Core/Src/stm32f4xx_it.c **** /* USER CODE BEGIN PM */
  40:Core/Src/stm32f4xx_it.c **** 
  41:Core/Src/stm32f4xx_it.c **** /* USER CODE END PM */
  42:Core/Src/stm32f4xx_it.c **** 
  43:Core/Src/stm32f4xx_it.c **** /* Private variables ---------------------------------------------------------*/
  44:Core/Src/stm32f4xx_it.c **** /* USER CODE BEGIN PV */
  45:Core/Src/stm32f4xx_it.c **** 
  46:Core/Src/stm32f4xx_it.c **** /* USER CODE END PV */
  47:Core/Src/stm32f4xx_it.c **** 
  48:Core/Src/stm32f4xx_it.c **** /* Private function prototypes -----------------------------------------------*/
  49:Core/Src/stm32f4xx_it.c **** /* USER CODE BEGIN PFP */
  50:Core/Src/stm32f4xx_it.c **** 
  51:Core/Src/stm32f4xx_it.c **** /* USER CODE END PFP */
  52:Core/Src/stm32f4xx_it.c **** 
  53:Core/Src/stm32f4xx_it.c **** /* Private user code ---------------------------------------------------------*/
  54:Core/Src/stm32f4xx_it.c **** /* USER CODE BEGIN 0 */
  55:Core/Src/stm32f4xx_it.c **** 
  56:Core/Src/stm32f4xx_it.c **** /* USER CODE END 0 */
  57:Core/Src/stm32f4xx_it.c **** 
  58:Core/Src/stm32f4xx_it.c **** /* External variables --------------------------------------------------------*/
  59:Core/Src/stm32f4xx_it.c **** extern DMA_HandleTypeDef hdma_i2c1_tx;
  60:Core/Src/stm32f4xx_it.c **** extern I2C_HandleTypeDef hi2c1;
  61:Core/Src/stm32f4xx_it.c **** extern DMA_HandleTypeDef hdma_spi1_tx;
  62:Core/Src/stm32f4xx_it.c **** extern DMA_HandleTypeDef hdma_spi1_rx;
  63:Core/Src/stm32f4xx_it.c **** extern SPI_HandleTypeDef hspi1;
  64:Core/Src/stm32f4xx_it.c **** extern TIM_HandleTypeDef htim1;
  65:Core/Src/stm32f4xx_it.c **** 
  66:Core/Src/stm32f4xx_it.c **** /* USER CODE BEGIN EV */
  67:Core/Src/stm32f4xx_it.c **** 
  68:Core/Src/stm32f4xx_it.c **** /* USER CODE END EV */
  69:Core/Src/stm32f4xx_it.c **** 
  70:Core/Src/stm32f4xx_it.c **** /******************************************************************************/
  71:Core/Src/stm32f4xx_it.c **** /*           Cortex-M4 Processor Interruption and Exception Handlers          */
  72:Core/Src/stm32f4xx_it.c **** /******************************************************************************/
  73:Core/Src/stm32f4xx_it.c **** /**
  74:Core/Src/stm32f4xx_it.c ****   * @brief This function handles Non maskable interrupt.
  75:Core/Src/stm32f4xx_it.c ****   */
  76:Core/Src/stm32f4xx_it.c **** void NMI_Handler(void)
  77:Core/Src/stm32f4xx_it.c **** {
  29              		.loc 1 77 1 view -0
  30              		.cfi_startproc
  31              		@ Volatile: function does not return.
  32              		@ args = 0, pretend = 0, frame = 0
  33              		@ frame_needed = 0, uses_anonymous_args = 0
  34              		@ link register save eliminated.
  35              	.L2:
  78:Core/Src/stm32f4xx_it.c ****   /* USER CODE BEGIN NonMaskableInt_IRQn 0 */
  79:Core/Src/stm32f4xx_it.c **** 
  80:Core/Src/stm32f4xx_it.c ****   /* USER CODE END NonMaskableInt_IRQn 0 */
ARM GAS  C:\Users\jdcox\AppData\Local\Temp\ccbkldQv.s 			page 3


  81:Core/Src/stm32f4xx_it.c ****   /* USER CODE BEGIN NonMaskableInt_IRQn 1 */
  82:Core/Src/stm32f4xx_it.c ****   while (1)
  36              		.loc 1 82 3 discriminator 1 view .LVU1
  83:Core/Src/stm32f4xx_it.c ****   {
  84:Core/Src/stm32f4xx_it.c ****   }
  37              		.loc 1 84 3 discriminator 1 view .LVU2
  82:Core/Src/stm32f4xx_it.c ****   {
  38              		.loc 1 82 9 discriminator 1 view .LVU3
  39 0000 FEE7     		b	.L2
  40              		.cfi_endproc
  41              	.LFE135:
  43              		.section	.text.HardFault_Handler,"ax",%progbits
  44              		.align	1
  45              		.global	HardFault_Handler
  46              		.syntax unified
  47              		.thumb
  48              		.thumb_func
  50              	HardFault_Handler:
  51              	.LFB136:
  85:Core/Src/stm32f4xx_it.c ****   /* USER CODE END NonMaskableInt_IRQn 1 */
  86:Core/Src/stm32f4xx_it.c **** }
  87:Core/Src/stm32f4xx_it.c **** 
  88:Core/Src/stm32f4xx_it.c **** /**
  89:Core/Src/stm32f4xx_it.c ****   * @brief This function handles Hard fault interrupt.
  90:Core/Src/stm32f4xx_it.c ****   */
  91:Core/Src/stm32f4xx_it.c **** void HardFault_Handler(void)
  92:Core/Src/stm32f4xx_it.c **** {
  52              		.loc 1 92 1 view -0
  53              		.cfi_startproc
  54              		@ Volatile: function does not return.
  55              		@ args = 0, pretend = 0, frame = 0
  56              		@ frame_needed = 0, uses_anonymous_args = 0
  57              		@ link register save eliminated.
  58              	.L4:
  93:Core/Src/stm32f4xx_it.c ****   /* USER CODE BEGIN HardFault_IRQn 0 */
  94:Core/Src/stm32f4xx_it.c **** 
  95:Core/Src/stm32f4xx_it.c ****   /* USER CODE END HardFault_IRQn 0 */
  96:Core/Src/stm32f4xx_it.c ****   while (1)
  59              		.loc 1 96 3 discriminator 1 view .LVU5
  97:Core/Src/stm32f4xx_it.c ****   {
  98:Core/Src/stm32f4xx_it.c ****     /* USER CODE BEGIN W1_HardFault_IRQn 0 */
  99:Core/Src/stm32f4xx_it.c ****     /* USER CODE END W1_HardFault_IRQn 0 */
 100:Core/Src/stm32f4xx_it.c ****   }
  60              		.loc 1 100 3 discriminator 1 view .LVU6
  96:Core/Src/stm32f4xx_it.c ****   {
  61              		.loc 1 96 9 discriminator 1 view .LVU7
  62 0000 FEE7     		b	.L4
  63              		.cfi_endproc
  64              	.LFE136:
  66              		.section	.text.MemManage_Handler,"ax",%progbits
  67              		.align	1
  68              		.global	MemManage_Handler
  69              		.syntax unified
  70              		.thumb
  71              		.thumb_func
  73              	MemManage_Handler:
  74              	.LFB137:
ARM GAS  C:\Users\jdcox\AppData\Local\Temp\ccbkldQv.s 			page 4


 101:Core/Src/stm32f4xx_it.c **** }
 102:Core/Src/stm32f4xx_it.c **** 
 103:Core/Src/stm32f4xx_it.c **** /**
 104:Core/Src/stm32f4xx_it.c ****   * @brief This function handles Memory management fault.
 105:Core/Src/stm32f4xx_it.c ****   */
 106:Core/Src/stm32f4xx_it.c **** void MemManage_Handler(void)
 107:Core/Src/stm32f4xx_it.c **** {
  75              		.loc 1 107 1 view -0
  76              		.cfi_startproc
  77              		@ Volatile: function does not return.
  78              		@ args = 0, pretend = 0, frame = 0
  79              		@ frame_needed = 0, uses_anonymous_args = 0
  80              		@ link register save eliminated.
  81              	.L6:
 108:Core/Src/stm32f4xx_it.c ****   /* USER CODE BEGIN MemoryManagement_IRQn 0 */
 109:Core/Src/stm32f4xx_it.c **** 
 110:Core/Src/stm32f4xx_it.c ****   /* USER CODE END MemoryManagement_IRQn 0 */
 111:Core/Src/stm32f4xx_it.c ****   while (1)
  82              		.loc 1 111 3 discriminator 1 view .LVU9
 112:Core/Src/stm32f4xx_it.c ****   {
 113:Core/Src/stm32f4xx_it.c ****     /* USER CODE BEGIN W1_MemoryManagement_IRQn 0 */
 114:Core/Src/stm32f4xx_it.c ****     /* USER CODE END W1_MemoryManagement_IRQn 0 */
 115:Core/Src/stm32f4xx_it.c ****   }
  83              		.loc 1 115 3 discriminator 1 view .LVU10
 111:Core/Src/stm32f4xx_it.c ****   {
  84              		.loc 1 111 9 discriminator 1 view .LVU11
  85 0000 FEE7     		b	.L6
  86              		.cfi_endproc
  87              	.LFE137:
  89              		.section	.text.BusFault_Handler,"ax",%progbits
  90              		.align	1
  91              		.global	BusFault_Handler
  92              		.syntax unified
  93              		.thumb
  94              		.thumb_func
  96              	BusFault_Handler:
  97              	.LFB138:
 116:Core/Src/stm32f4xx_it.c **** }
 117:Core/Src/stm32f4xx_it.c **** 
 118:Core/Src/stm32f4xx_it.c **** /**
 119:Core/Src/stm32f4xx_it.c ****   * @brief This function handles Pre-fetch fault, memory access fault.
 120:Core/Src/stm32f4xx_it.c ****   */
 121:Core/Src/stm32f4xx_it.c **** void BusFault_Handler(void)
 122:Core/Src/stm32f4xx_it.c **** {
  98              		.loc 1 122 1 view -0
  99              		.cfi_startproc
 100              		@ Volatile: function does not return.
 101              		@ args = 0, pretend = 0, frame = 0
 102              		@ frame_needed = 0, uses_anonymous_args = 0
 103              		@ link register save eliminated.
 104              	.L8:
 123:Core/Src/stm32f4xx_it.c ****   /* USER CODE BEGIN BusFault_IRQn 0 */
 124:Core/Src/stm32f4xx_it.c **** 
 125:Core/Src/stm32f4xx_it.c ****   /* USER CODE END BusFault_IRQn 0 */
 126:Core/Src/stm32f4xx_it.c ****   while (1)
 105              		.loc 1 126 3 discriminator 1 view .LVU13
 127:Core/Src/stm32f4xx_it.c ****   {
ARM GAS  C:\Users\jdcox\AppData\Local\Temp\ccbkldQv.s 			page 5


 128:Core/Src/stm32f4xx_it.c ****     /* USER CODE BEGIN W1_BusFault_IRQn 0 */
 129:Core/Src/stm32f4xx_it.c ****     /* USER CODE END W1_BusFault_IRQn 0 */
 130:Core/Src/stm32f4xx_it.c ****   }
 106              		.loc 1 130 3 discriminator 1 view .LVU14
 126:Core/Src/stm32f4xx_it.c ****   {
 107              		.loc 1 126 9 discriminator 1 view .LVU15
 108 0000 FEE7     		b	.L8
 109              		.cfi_endproc
 110              	.LFE138:
 112              		.section	.text.UsageFault_Handler,"ax",%progbits
 113              		.align	1
 114              		.global	UsageFault_Handler
 115              		.syntax unified
 116              		.thumb
 117              		.thumb_func
 119              	UsageFault_Handler:
 120              	.LFB139:
 131:Core/Src/stm32f4xx_it.c **** }
 132:Core/Src/stm32f4xx_it.c **** 
 133:Core/Src/stm32f4xx_it.c **** /**
 134:Core/Src/stm32f4xx_it.c ****   * @brief This function handles Undefined instruction or illegal state.
 135:Core/Src/stm32f4xx_it.c ****   */
 136:Core/Src/stm32f4xx_it.c **** void UsageFault_Handler(void)
 137:Core/Src/stm32f4xx_it.c **** {
 121              		.loc 1 137 1 view -0
 122              		.cfi_startproc
 123              		@ Volatile: function does not return.
 124              		@ args = 0, pretend = 0, frame = 0
 125              		@ frame_needed = 0, uses_anonymous_args = 0
 126              		@ link register save eliminated.
 127              	.L10:
 138:Core/Src/stm32f4xx_it.c ****   /* USER CODE BEGIN UsageFault_IRQn 0 */
 139:Core/Src/stm32f4xx_it.c **** 
 140:Core/Src/stm32f4xx_it.c ****   /* USER CODE END UsageFault_IRQn 0 */
 141:Core/Src/stm32f4xx_it.c ****   while (1)
 128              		.loc 1 141 3 discriminator 1 view .LVU17
 142:Core/Src/stm32f4xx_it.c ****   {
 143:Core/Src/stm32f4xx_it.c ****     /* USER CODE BEGIN W1_UsageFault_IRQn 0 */
 144:Core/Src/stm32f4xx_it.c ****     /* USER CODE END W1_UsageFault_IRQn 0 */
 145:Core/Src/stm32f4xx_it.c ****   }
 129              		.loc 1 145 3 discriminator 1 view .LVU18
 141:Core/Src/stm32f4xx_it.c ****   {
 130              		.loc 1 141 9 discriminator 1 view .LVU19
 131 0000 FEE7     		b	.L10
 132              		.cfi_endproc
 133              	.LFE139:
 135              		.section	.text.DebugMon_Handler,"ax",%progbits
 136              		.align	1
 137              		.global	DebugMon_Handler
 138              		.syntax unified
 139              		.thumb
 140              		.thumb_func
 142              	DebugMon_Handler:
 143              	.LFB140:
 146:Core/Src/stm32f4xx_it.c **** }
 147:Core/Src/stm32f4xx_it.c **** 
 148:Core/Src/stm32f4xx_it.c **** /**
ARM GAS  C:\Users\jdcox\AppData\Local\Temp\ccbkldQv.s 			page 6


 149:Core/Src/stm32f4xx_it.c ****   * @brief This function handles Debug monitor.
 150:Core/Src/stm32f4xx_it.c ****   */
 151:Core/Src/stm32f4xx_it.c **** void DebugMon_Handler(void)
 152:Core/Src/stm32f4xx_it.c **** {
 144              		.loc 1 152 1 view -0
 145              		.cfi_startproc
 146              		@ args = 0, pretend = 0, frame = 0
 147              		@ frame_needed = 0, uses_anonymous_args = 0
 148              		@ link register save eliminated.
 153:Core/Src/stm32f4xx_it.c ****   /* USER CODE BEGIN DebugMonitor_IRQn 0 */
 154:Core/Src/stm32f4xx_it.c **** 
 155:Core/Src/stm32f4xx_it.c ****   /* USER CODE END DebugMonitor_IRQn 0 */
 156:Core/Src/stm32f4xx_it.c ****   /* USER CODE BEGIN DebugMonitor_IRQn 1 */
 157:Core/Src/stm32f4xx_it.c **** 
 158:Core/Src/stm32f4xx_it.c ****   /* USER CODE END DebugMonitor_IRQn 1 */
 159:Core/Src/stm32f4xx_it.c **** }
 149              		.loc 1 159 1 view .LVU21
 150 0000 7047     		bx	lr
 151              		.cfi_endproc
 152              	.LFE140:
 154              		.section	.text.EXTI0_IRQHandler,"ax",%progbits
 155              		.align	1
 156              		.global	EXTI0_IRQHandler
 157              		.syntax unified
 158              		.thumb
 159              		.thumb_func
 161              	EXTI0_IRQHandler:
 162              	.LFB141:
 160:Core/Src/stm32f4xx_it.c **** 
 161:Core/Src/stm32f4xx_it.c **** /******************************************************************************/
 162:Core/Src/stm32f4xx_it.c **** /* STM32F4xx Peripheral Interrupt Handlers                                    */
 163:Core/Src/stm32f4xx_it.c **** /* Add here the Interrupt Handlers for the used peripherals.                  */
 164:Core/Src/stm32f4xx_it.c **** /* For the available peripheral interrupt handler names,                      */
 165:Core/Src/stm32f4xx_it.c **** /* please refer to the startup file (startup_stm32f4xx.s).                    */
 166:Core/Src/stm32f4xx_it.c **** /******************************************************************************/
 167:Core/Src/stm32f4xx_it.c **** 
 168:Core/Src/stm32f4xx_it.c **** /**
 169:Core/Src/stm32f4xx_it.c ****   * @brief This function handles EXTI line0 interrupt.
 170:Core/Src/stm32f4xx_it.c ****   */
 171:Core/Src/stm32f4xx_it.c **** void EXTI0_IRQHandler(void)
 172:Core/Src/stm32f4xx_it.c **** {
 163              		.loc 1 172 1 view -0
 164              		.cfi_startproc
 165              		@ args = 0, pretend = 0, frame = 0
 166              		@ frame_needed = 0, uses_anonymous_args = 0
 167 0000 08B5     		push	{r3, lr}
 168              	.LCFI0:
 169              		.cfi_def_cfa_offset 8
 170              		.cfi_offset 3, -8
 171              		.cfi_offset 14, -4
 173:Core/Src/stm32f4xx_it.c ****   /* USER CODE BEGIN EXTI0_IRQn 0 */
 174:Core/Src/stm32f4xx_it.c **** 
 175:Core/Src/stm32f4xx_it.c ****   /* USER CODE END EXTI0_IRQn 0 */
 176:Core/Src/stm32f4xx_it.c ****   HAL_GPIO_EXTI_IRQHandler(BTN_IN_Pin);
 172              		.loc 1 176 3 view .LVU23
 173 0002 0120     		movs	r0, #1
 174 0004 FFF7FEFF 		bl	HAL_GPIO_EXTI_IRQHandler
ARM GAS  C:\Users\jdcox\AppData\Local\Temp\ccbkldQv.s 			page 7


 175              	.LVL0:
 177:Core/Src/stm32f4xx_it.c ****   /* USER CODE BEGIN EXTI0_IRQn 1 */
 178:Core/Src/stm32f4xx_it.c **** 
 179:Core/Src/stm32f4xx_it.c ****   /* USER CODE END EXTI0_IRQn 1 */
 180:Core/Src/stm32f4xx_it.c **** }
 176              		.loc 1 180 1 is_stmt 0 view .LVU24
 177 0008 08BD     		pop	{r3, pc}
 178              		.cfi_endproc
 179              	.LFE141:
 181              		.section	.text.DMA1_Stream6_IRQHandler,"ax",%progbits
 182              		.align	1
 183              		.global	DMA1_Stream6_IRQHandler
 184              		.syntax unified
 185              		.thumb
 186              		.thumb_func
 188              	DMA1_Stream6_IRQHandler:
 189              	.LFB142:
 181:Core/Src/stm32f4xx_it.c **** 
 182:Core/Src/stm32f4xx_it.c **** /**
 183:Core/Src/stm32f4xx_it.c ****   * @brief This function handles DMA1 stream6 global interrupt.
 184:Core/Src/stm32f4xx_it.c ****   */
 185:Core/Src/stm32f4xx_it.c **** void DMA1_Stream6_IRQHandler(void)
 186:Core/Src/stm32f4xx_it.c **** {
 190              		.loc 1 186 1 is_stmt 1 view -0
 191              		.cfi_startproc
 192              		@ args = 0, pretend = 0, frame = 0
 193              		@ frame_needed = 0, uses_anonymous_args = 0
 194 0000 08B5     		push	{r3, lr}
 195              	.LCFI1:
 196              		.cfi_def_cfa_offset 8
 197              		.cfi_offset 3, -8
 198              		.cfi_offset 14, -4
 187:Core/Src/stm32f4xx_it.c ****   /* USER CODE BEGIN DMA1_Stream6_IRQn 0 */
 188:Core/Src/stm32f4xx_it.c **** 
 189:Core/Src/stm32f4xx_it.c ****   /* USER CODE END DMA1_Stream6_IRQn 0 */
 190:Core/Src/stm32f4xx_it.c ****   HAL_DMA_IRQHandler(&hdma_i2c1_tx);
 199              		.loc 1 190 3 view .LVU26
 200 0002 0248     		ldr	r0, .L16
 201 0004 FFF7FEFF 		bl	HAL_DMA_IRQHandler
 202              	.LVL1:
 191:Core/Src/stm32f4xx_it.c ****   /* USER CODE BEGIN DMA1_Stream6_IRQn 1 */
 192:Core/Src/stm32f4xx_it.c **** 
 193:Core/Src/stm32f4xx_it.c ****   /* USER CODE END DMA1_Stream6_IRQn 1 */
 194:Core/Src/stm32f4xx_it.c **** }
 203              		.loc 1 194 1 is_stmt 0 view .LVU27
 204 0008 08BD     		pop	{r3, pc}
 205              	.L17:
 206 000a 00BF     		.align	2
 207              	.L16:
 208 000c 00000000 		.word	hdma_i2c1_tx
 209              		.cfi_endproc
 210              	.LFE142:
 212              		.section	.text.TIM1_UP_TIM10_IRQHandler,"ax",%progbits
 213              		.align	1
 214              		.global	TIM1_UP_TIM10_IRQHandler
 215              		.syntax unified
 216              		.thumb
ARM GAS  C:\Users\jdcox\AppData\Local\Temp\ccbkldQv.s 			page 8


 217              		.thumb_func
 219              	TIM1_UP_TIM10_IRQHandler:
 220              	.LFB143:
 195:Core/Src/stm32f4xx_it.c **** 
 196:Core/Src/stm32f4xx_it.c **** /**
 197:Core/Src/stm32f4xx_it.c ****   * @brief This function handles TIM1 update interrupt and TIM10 global interrupt.
 198:Core/Src/stm32f4xx_it.c ****   */
 199:Core/Src/stm32f4xx_it.c **** void TIM1_UP_TIM10_IRQHandler(void)
 200:Core/Src/stm32f4xx_it.c **** {
 221              		.loc 1 200 1 is_stmt 1 view -0
 222              		.cfi_startproc
 223              		@ args = 0, pretend = 0, frame = 0
 224              		@ frame_needed = 0, uses_anonymous_args = 0
 225 0000 08B5     		push	{r3, lr}
 226              	.LCFI2:
 227              		.cfi_def_cfa_offset 8
 228              		.cfi_offset 3, -8
 229              		.cfi_offset 14, -4
 201:Core/Src/stm32f4xx_it.c ****   /* USER CODE BEGIN TIM1_UP_TIM10_IRQn 0 */
 202:Core/Src/stm32f4xx_it.c **** 
 203:Core/Src/stm32f4xx_it.c ****   /* USER CODE END TIM1_UP_TIM10_IRQn 0 */
 204:Core/Src/stm32f4xx_it.c ****   HAL_TIM_IRQHandler(&htim1);
 230              		.loc 1 204 3 view .LVU29
 231 0002 0248     		ldr	r0, .L20
 232 0004 FFF7FEFF 		bl	HAL_TIM_IRQHandler
 233              	.LVL2:
 205:Core/Src/stm32f4xx_it.c ****   /* USER CODE BEGIN TIM1_UP_TIM10_IRQn 1 */
 206:Core/Src/stm32f4xx_it.c **** 
 207:Core/Src/stm32f4xx_it.c ****   /* USER CODE END TIM1_UP_TIM10_IRQn 1 */
 208:Core/Src/stm32f4xx_it.c **** }
 234              		.loc 1 208 1 is_stmt 0 view .LVU30
 235 0008 08BD     		pop	{r3, pc}
 236              	.L21:
 237 000a 00BF     		.align	2
 238              	.L20:
 239 000c 00000000 		.word	htim1
 240              		.cfi_endproc
 241              	.LFE143:
 243              		.section	.text.I2C1_EV_IRQHandler,"ax",%progbits
 244              		.align	1
 245              		.global	I2C1_EV_IRQHandler
 246              		.syntax unified
 247              		.thumb
 248              		.thumb_func
 250              	I2C1_EV_IRQHandler:
 251              	.LFB144:
 209:Core/Src/stm32f4xx_it.c **** 
 210:Core/Src/stm32f4xx_it.c **** /**
 211:Core/Src/stm32f4xx_it.c ****   * @brief This function handles I2C1 event interrupt.
 212:Core/Src/stm32f4xx_it.c ****   */
 213:Core/Src/stm32f4xx_it.c **** void I2C1_EV_IRQHandler(void)
 214:Core/Src/stm32f4xx_it.c **** {
 252              		.loc 1 214 1 is_stmt 1 view -0
 253              		.cfi_startproc
 254              		@ args = 0, pretend = 0, frame = 0
 255              		@ frame_needed = 0, uses_anonymous_args = 0
 256 0000 08B5     		push	{r3, lr}
ARM GAS  C:\Users\jdcox\AppData\Local\Temp\ccbkldQv.s 			page 9


 257              	.LCFI3:
 258              		.cfi_def_cfa_offset 8
 259              		.cfi_offset 3, -8
 260              		.cfi_offset 14, -4
 215:Core/Src/stm32f4xx_it.c ****   /* USER CODE BEGIN I2C1_EV_IRQn 0 */
 216:Core/Src/stm32f4xx_it.c **** 
 217:Core/Src/stm32f4xx_it.c ****   /* USER CODE END I2C1_EV_IRQn 0 */
 218:Core/Src/stm32f4xx_it.c ****   HAL_I2C_EV_IRQHandler(&hi2c1);
 261              		.loc 1 218 3 view .LVU32
 262 0002 0248     		ldr	r0, .L24
 263 0004 FFF7FEFF 		bl	HAL_I2C_EV_IRQHandler
 264              	.LVL3:
 219:Core/Src/stm32f4xx_it.c ****   /* USER CODE BEGIN I2C1_EV_IRQn 1 */
 220:Core/Src/stm32f4xx_it.c **** 
 221:Core/Src/stm32f4xx_it.c ****   /* USER CODE END I2C1_EV_IRQn 1 */
 222:Core/Src/stm32f4xx_it.c **** }
 265              		.loc 1 222 1 is_stmt 0 view .LVU33
 266 0008 08BD     		pop	{r3, pc}
 267              	.L25:
 268 000a 00BF     		.align	2
 269              	.L24:
 270 000c 00000000 		.word	hi2c1
 271              		.cfi_endproc
 272              	.LFE144:
 274              		.section	.text.SPI1_IRQHandler,"ax",%progbits
 275              		.align	1
 276              		.global	SPI1_IRQHandler
 277              		.syntax unified
 278              		.thumb
 279              		.thumb_func
 281              	SPI1_IRQHandler:
 282              	.LFB145:
 223:Core/Src/stm32f4xx_it.c **** 
 224:Core/Src/stm32f4xx_it.c **** /**
 225:Core/Src/stm32f4xx_it.c ****   * @brief This function handles SPI1 global interrupt.
 226:Core/Src/stm32f4xx_it.c ****   */
 227:Core/Src/stm32f4xx_it.c **** void SPI1_IRQHandler(void)
 228:Core/Src/stm32f4xx_it.c **** {
 283              		.loc 1 228 1 is_stmt 1 view -0
 284              		.cfi_startproc
 285              		@ args = 0, pretend = 0, frame = 0
 286              		@ frame_needed = 0, uses_anonymous_args = 0
 287 0000 08B5     		push	{r3, lr}
 288              	.LCFI4:
 289              		.cfi_def_cfa_offset 8
 290              		.cfi_offset 3, -8
 291              		.cfi_offset 14, -4
 229:Core/Src/stm32f4xx_it.c ****   /* USER CODE BEGIN SPI1_IRQn 0 */
 230:Core/Src/stm32f4xx_it.c **** 
 231:Core/Src/stm32f4xx_it.c ****   /* USER CODE END SPI1_IRQn 0 */
 232:Core/Src/stm32f4xx_it.c ****   HAL_SPI_IRQHandler(&hspi1);
 292              		.loc 1 232 3 view .LVU35
 293 0002 0248     		ldr	r0, .L28
 294 0004 FFF7FEFF 		bl	HAL_SPI_IRQHandler
 295              	.LVL4:
 233:Core/Src/stm32f4xx_it.c ****   /* USER CODE BEGIN SPI1_IRQn 1 */
 234:Core/Src/stm32f4xx_it.c **** 
ARM GAS  C:\Users\jdcox\AppData\Local\Temp\ccbkldQv.s 			page 10


 235:Core/Src/stm32f4xx_it.c ****   /* USER CODE END SPI1_IRQn 1 */
 236:Core/Src/stm32f4xx_it.c **** }
 296              		.loc 1 236 1 is_stmt 0 view .LVU36
 297 0008 08BD     		pop	{r3, pc}
 298              	.L29:
 299 000a 00BF     		.align	2
 300              	.L28:
 301 000c 00000000 		.word	hspi1
 302              		.cfi_endproc
 303              	.LFE145:
 305              		.section	.text.DMA2_Stream0_IRQHandler,"ax",%progbits
 306              		.align	1
 307              		.global	DMA2_Stream0_IRQHandler
 308              		.syntax unified
 309              		.thumb
 310              		.thumb_func
 312              	DMA2_Stream0_IRQHandler:
 313              	.LFB146:
 237:Core/Src/stm32f4xx_it.c **** 
 238:Core/Src/stm32f4xx_it.c **** /**
 239:Core/Src/stm32f4xx_it.c ****   * @brief This function handles DMA2 stream0 global interrupt.
 240:Core/Src/stm32f4xx_it.c ****   */
 241:Core/Src/stm32f4xx_it.c **** void DMA2_Stream0_IRQHandler(void)
 242:Core/Src/stm32f4xx_it.c **** {
 314              		.loc 1 242 1 is_stmt 1 view -0
 315              		.cfi_startproc
 316              		@ args = 0, pretend = 0, frame = 0
 317              		@ frame_needed = 0, uses_anonymous_args = 0
 318 0000 08B5     		push	{r3, lr}
 319              	.LCFI5:
 320              		.cfi_def_cfa_offset 8
 321              		.cfi_offset 3, -8
 322              		.cfi_offset 14, -4
 243:Core/Src/stm32f4xx_it.c ****   /* USER CODE BEGIN DMA2_Stream0_IRQn 0 */
 244:Core/Src/stm32f4xx_it.c **** 
 245:Core/Src/stm32f4xx_it.c ****   /* USER CODE END DMA2_Stream0_IRQn 0 */
 246:Core/Src/stm32f4xx_it.c ****   HAL_DMA_IRQHandler(&hdma_spi1_rx);
 323              		.loc 1 246 3 view .LVU38
 324 0002 0248     		ldr	r0, .L32
 325 0004 FFF7FEFF 		bl	HAL_DMA_IRQHandler
 326              	.LVL5:
 247:Core/Src/stm32f4xx_it.c ****   /* USER CODE BEGIN DMA2_Stream0_IRQn 1 */
 248:Core/Src/stm32f4xx_it.c **** 
 249:Core/Src/stm32f4xx_it.c ****   /* USER CODE END DMA2_Stream0_IRQn 1 */
 250:Core/Src/stm32f4xx_it.c **** }
 327              		.loc 1 250 1 is_stmt 0 view .LVU39
 328 0008 08BD     		pop	{r3, pc}
 329              	.L33:
 330 000a 00BF     		.align	2
 331              	.L32:
 332 000c 00000000 		.word	hdma_spi1_rx
 333              		.cfi_endproc
 334              	.LFE146:
 336              		.section	.text.DMA2_Stream3_IRQHandler,"ax",%progbits
 337              		.align	1
 338              		.global	DMA2_Stream3_IRQHandler
 339              		.syntax unified
ARM GAS  C:\Users\jdcox\AppData\Local\Temp\ccbkldQv.s 			page 11


 340              		.thumb
 341              		.thumb_func
 343              	DMA2_Stream3_IRQHandler:
 344              	.LFB147:
 251:Core/Src/stm32f4xx_it.c **** 
 252:Core/Src/stm32f4xx_it.c **** /**
 253:Core/Src/stm32f4xx_it.c ****   * @brief This function handles DMA2 stream3 global interrupt.
 254:Core/Src/stm32f4xx_it.c ****   */
 255:Core/Src/stm32f4xx_it.c **** void DMA2_Stream3_IRQHandler(void)
 256:Core/Src/stm32f4xx_it.c **** {
 345              		.loc 1 256 1 is_stmt 1 view -0
 346              		.cfi_startproc
 347              		@ args = 0, pretend = 0, frame = 0
 348              		@ frame_needed = 0, uses_anonymous_args = 0
 349 0000 08B5     		push	{r3, lr}
 350              	.LCFI6:
 351              		.cfi_def_cfa_offset 8
 352              		.cfi_offset 3, -8
 353              		.cfi_offset 14, -4
 257:Core/Src/stm32f4xx_it.c ****   /* USER CODE BEGIN DMA2_Stream3_IRQn 0 */
 258:Core/Src/stm32f4xx_it.c **** 
 259:Core/Src/stm32f4xx_it.c ****   /* USER CODE END DMA2_Stream3_IRQn 0 */
 260:Core/Src/stm32f4xx_it.c ****   HAL_DMA_IRQHandler(&hdma_spi1_tx);
 354              		.loc 1 260 3 view .LVU41
 355 0002 0248     		ldr	r0, .L36
 356 0004 FFF7FEFF 		bl	HAL_DMA_IRQHandler
 357              	.LVL6:
 261:Core/Src/stm32f4xx_it.c ****   /* USER CODE BEGIN DMA2_Stream3_IRQn 1 */
 262:Core/Src/stm32f4xx_it.c **** 
 263:Core/Src/stm32f4xx_it.c ****   /* USER CODE END DMA2_Stream3_IRQn 1 */
 264:Core/Src/stm32f4xx_it.c **** }
 358              		.loc 1 264 1 is_stmt 0 view .LVU42
 359 0008 08BD     		pop	{r3, pc}
 360              	.L37:
 361 000a 00BF     		.align	2
 362              	.L36:
 363 000c 00000000 		.word	hdma_spi1_tx
 364              		.cfi_endproc
 365              	.LFE147:
 367              		.section	.text.HAL_SPI_TxCpltCallback,"ax",%progbits
 368              		.align	1
 369              		.global	HAL_SPI_TxCpltCallback
 370              		.syntax unified
 371              		.thumb
 372              		.thumb_func
 374              	HAL_SPI_TxCpltCallback:
 375              	.LVL7:
 376              	.LFB148:
 265:Core/Src/stm32f4xx_it.c **** 
 266:Core/Src/stm32f4xx_it.c **** /* USER CODE BEGIN 1 */
 267:Core/Src/stm32f4xx_it.c **** 
 268:Core/Src/stm32f4xx_it.c **** void HAL_SPI_TxCpltCallback(SPI_HandleTypeDef * hspi)
 269:Core/Src/stm32f4xx_it.c **** {
 377              		.loc 1 269 1 is_stmt 1 view -0
 378              		.cfi_startproc
 379              		@ args = 0, pretend = 0, frame = 0
 380              		@ frame_needed = 0, uses_anonymous_args = 0
ARM GAS  C:\Users\jdcox\AppData\Local\Temp\ccbkldQv.s 			page 12


 381              		@ link register save eliminated.
 270:Core/Src/stm32f4xx_it.c ****    //lora_send_packet_dma_complete(&lora);
 271:Core/Src/stm32f4xx_it.c **** }
 382              		.loc 1 271 1 view .LVU44
 383 0000 7047     		bx	lr
 384              		.cfi_endproc
 385              	.LFE148:
 387              		.section	.text.HAL_SPI_RxCpltCallback,"ax",%progbits
 388              		.align	1
 389              		.global	HAL_SPI_RxCpltCallback
 390              		.syntax unified
 391              		.thumb
 392              		.thumb_func
 394              	HAL_SPI_RxCpltCallback:
 395              	.LVL8:
 396              	.LFB149:
 272:Core/Src/stm32f4xx_it.c **** 
 273:Core/Src/stm32f4xx_it.c **** void HAL_SPI_RxCpltCallback(SPI_HandleTypeDef * hspi)
 274:Core/Src/stm32f4xx_it.c **** {
 397              		.loc 1 274 1 view -0
 398              		.cfi_startproc
 399              		@ args = 0, pretend = 0, frame = 0
 400              		@ frame_needed = 0, uses_anonymous_args = 0
 401              		@ link register save eliminated.
 275:Core/Src/stm32f4xx_it.c ****   //lora_receive_packet_dma_complete(&lora);
 276:Core/Src/stm32f4xx_it.c **** }
 402              		.loc 1 276 1 view .LVU46
 403 0000 7047     		bx	lr
 404              		.cfi_endproc
 405              	.LFE149:
 407              		.section	.text.HAL_GPIO_EXTI_Callback,"ax",%progbits
 408              		.align	1
 409              		.global	HAL_GPIO_EXTI_Callback
 410              		.syntax unified
 411              		.thumb
 412              		.thumb_func
 414              	HAL_GPIO_EXTI_Callback:
 415              	.LVL9:
 416              	.LFB150:
 277:Core/Src/stm32f4xx_it.c **** 
 278:Core/Src/stm32f4xx_it.c **** void HAL_GPIO_EXTI_Callback(uint16_t GPIO_Pin)
 279:Core/Src/stm32f4xx_it.c **** {
 417              		.loc 1 279 1 view -0
 418              		.cfi_startproc
 419              		@ args = 0, pretend = 0, frame = 0
 420              		@ frame_needed = 0, uses_anonymous_args = 0
 421              		.loc 1 279 1 is_stmt 0 view .LVU48
 422 0000 08B5     		push	{r3, lr}
 423              	.LCFI7:
 424              		.cfi_def_cfa_offset 8
 425              		.cfi_offset 3, -8
 426              		.cfi_offset 14, -4
 280:Core/Src/stm32f4xx_it.c ****   if( (!debouncing_Flag) && (GPIO_Pin == BTN_IN_Pin) ) 
 427              		.loc 1 280 3 is_stmt 1 view .LVU49
 428              		.loc 1 280 8 is_stmt 0 view .LVU50
 429 0002 084B     		ldr	r3, .L44
 430 0004 1B78     		ldrb	r3, [r3]	@ zero_extendqisi2
ARM GAS  C:\Users\jdcox\AppData\Local\Temp\ccbkldQv.s 			page 13


 431              		.loc 1 280 5 view .LVU51
 432 0006 0BB9     		cbnz	r3, .L40
 433              		.loc 1 280 26 discriminator 1 view .LVU52
 434 0008 0128     		cmp	r0, #1
 435 000a 00D0     		beq	.L43
 436              	.LVL10:
 437              	.L40:
 281:Core/Src/stm32f4xx_it.c ****   {
 282:Core/Src/stm32f4xx_it.c **** 
 283:Core/Src/stm32f4xx_it.c ****     debouncing_Flag = 1;
 284:Core/Src/stm32f4xx_it.c ****     btnPressed();
 285:Core/Src/stm32f4xx_it.c ****     osTimerStart(debounceTimerHandle, pdMS_TO_TICKS(250));
 286:Core/Src/stm32f4xx_it.c **** 
 287:Core/Src/stm32f4xx_it.c ****   }
 288:Core/Src/stm32f4xx_it.c **** }
 438              		.loc 1 288 1 view .LVU53
 439 000c 08BD     		pop	{r3, pc}
 440              	.LVL11:
 441              	.L43:
 283:Core/Src/stm32f4xx_it.c ****     btnPressed();
 442              		.loc 1 283 5 is_stmt 1 view .LVU54
 283:Core/Src/stm32f4xx_it.c ****     btnPressed();
 443              		.loc 1 283 21 is_stmt 0 view .LVU55
 444 000e 054B     		ldr	r3, .L44
 445 0010 0122     		movs	r2, #1
 446 0012 1A70     		strb	r2, [r3]
 284:Core/Src/stm32f4xx_it.c ****     osTimerStart(debounceTimerHandle, pdMS_TO_TICKS(250));
 447              		.loc 1 284 5 is_stmt 1 view .LVU56
 448 0014 FFF7FEFF 		bl	btnPressed
 449              	.LVL12:
 285:Core/Src/stm32f4xx_it.c **** 
 450              		.loc 1 285 5 view .LVU57
 451 0018 FA21     		movs	r1, #250
 452 001a 034B     		ldr	r3, .L44+4
 453 001c 1868     		ldr	r0, [r3]
 454 001e FFF7FEFF 		bl	osTimerStart
 455              	.LVL13:
 456              		.loc 1 288 1 is_stmt 0 view .LVU58
 457 0022 F3E7     		b	.L40
 458              	.L45:
 459              		.align	2
 460              	.L44:
 461 0024 00000000 		.word	debouncing_Flag
 462 0028 00000000 		.word	debounceTimerHandle
 463              		.cfi_endproc
 464              	.LFE150:
 466              		.text
 467              	.Letext0:
 468              		.file 2 "c:\\libraries\\gcc\\11.2 2022.02\\arm-none-eabi\\include\\machine\\_default_types.h"
 469              		.file 3 "c:\\libraries\\gcc\\11.2 2022.02\\arm-none-eabi\\include\\sys\\_stdint.h"
 470              		.file 4 "Drivers/CMSIS/Device/ST/STM32F4xx/Include/stm32f401xc.h"
 471              		.file 5 "Drivers/STM32F4xx_HAL_Driver/Inc/stm32f4xx_hal_def.h"
 472              		.file 6 "Drivers/STM32F4xx_HAL_Driver/Inc/stm32f4xx_hal_dma.h"
 473              		.file 7 "Drivers/STM32F4xx_HAL_Driver/Inc/stm32f4xx_hal_i2c.h"
 474              		.file 8 "Drivers/STM32F4xx_HAL_Driver/Inc/stm32f4xx_hal_spi.h"
 475              		.file 9 "Drivers/STM32F4xx_HAL_Driver/Inc/stm32f4xx_hal_tim.h"
 476              		.file 10 "Middlewares/Third_Party/FreeRTOS/Source/portable/GCC/ARM_CM4F/portmacro.h"
ARM GAS  C:\Users\jdcox\AppData\Local\Temp\ccbkldQv.s 			page 14


 477              		.file 11 "Middlewares/Third_Party/FreeRTOS/Source/include/timers.h"
 478              		.file 12 "Middlewares/Third_Party/FreeRTOS/Source/CMSIS_RTOS/cmsis_os.h"
 479              		.file 13 "Core/Inc/extern.h"
 480              		.file 14 "Drivers/STM32F4xx_HAL_Driver/Inc/stm32f4xx_hal_gpio.h"
ARM GAS  C:\Users\jdcox\AppData\Local\Temp\ccbkldQv.s 			page 15

